GAS LISTING /tmp/ccH5HMHD.s 			page 1


   1              		.file	"sieve_extend.c"
   2              		.intel_syntax noprefix
   3              	# GNU C17 (Ubuntu 9.4.0-1ubuntu1~20.04.1) version 9.4.0 (x86_64-linux-gnu)
   4              	#	compiled by GNU C version 9.4.0, GMP version 6.2.0, MPFR version 4.0.2, MPC version 1.1.0, isl ve
   5              	
   6              	# GGC heuristics: --param ggc-min-expand=100 --param ggc-min-heapsize=131072
   7              	# options passed:  -imultiarch x86_64-linux-gnu sieve_extend.c
   8              	# -march=skylake -mmmx -mno-3dnow -msse -msse2 -msse3 -mssse3 -mno-sse4a
   9              	# -mcx16 -msahf -mmovbe -maes -mno-sha -mpclmul -mpopcnt -mabm -mno-lwp
  10              	# -mfma -mno-fma4 -mno-xop -mbmi -mno-sgx -mbmi2 -mno-pconfig -mno-wbnoinvd
  11              	# -mno-tbm -mavx2 -msse4.2 -msse4.1 -mlzcnt -mrtm -mhle -mrdrnd -mf16c
  12              	# -mfsgsbase -mrdseed -mprfchw -madx -mfxsr -mxsave -mxsaveopt -mno-avx512f
  13              	# -mno-avx512er -mno-avx512cd -mno-avx512pf -mno-prefetchwt1 -mclflushopt
  14              	# -mxsavec -mxsaves -mno-avx512dq -mno-avx512bw -mno-avx512vl
  15              	# -mno-avx512ifma -mno-avx512vbmi -mno-avx5124fmaps -mno-avx5124vnniw
  16              	# -mno-clwb -mno-mwaitx -mno-clzero -mno-pku -mno-rdpid -mno-gfni
  17              	# -mno-shstk -mno-avx512vbmi2 -mno-avx512vnni -mno-vaes -mno-vpclmulqdq
  18              	# -mno-avx512bitalg -mno-avx512vpopcntdq -mno-movdiri -mno-movdir64b
  19              	# -mno-waitpkg -mno-cldemote -mno-ptwrite -mtune=intel -masm=intel
  20              	# -malign-data=cacheline -mavx -g -Ofast -funroll-all-loops
  21              	# -fno-asynchronous-unwind-tables -fno-exceptions -fverbose-asm
  22              	# -fstack-protector-strong -Wformat -Wformat-security
  23              	# -fstack-clash-protection -fcf-protection
  24              	# options enabled:  -fPIC -fPIE -faggressive-loop-optimizations
  25              	# -falign-functions -falign-jumps -falign-labels -falign-loops
  26              	# -fassociative-math -fassume-phsa -fauto-inc-dec -fbranch-count-reg
  27              	# -fcaller-saves -fcode-hoisting -fcombine-stack-adjustments -fcommon
  28              	# -fcompare-elim -fcprop-registers -fcrossjumping -fcse-follow-jumps
  29              	# -fcx-limited-range -fdefer-pop -fdelete-null-pointer-checks
  30              	# -fdevirtualize -fdevirtualize-speculatively -fdwarf2-cfi-asm
  31              	# -fearly-inlining -feliminate-unused-debug-types -fexpensive-optimizations
  32              	# -ffinite-math-only -fforward-propagate -ffp-int-builtin-inexact
  33              	# -ffunction-cse -fgcse -fgcse-after-reload -fgcse-lm -fgnu-runtime
  34              	# -fgnu-unique -fguess-branch-probability -fhoist-adjacent-loads -fident
  35              	# -fif-conversion -fif-conversion2 -findirect-inlining -finline
  36              	# -finline-atomics -finline-functions -finline-functions-called-once
  37              	# -finline-small-functions -fipa-bit-cp -fipa-cp -fipa-cp-clone -fipa-icf
  38              	# -fipa-icf-functions -fipa-icf-variables -fipa-profile -fipa-pure-const
  39              	# -fipa-ra -fipa-reference -fipa-reference-addressable -fipa-sra
  40              	# -fipa-stack-alignment -fipa-vrp -fira-hoist-pressure
  41              	# -fira-share-save-slots -fira-share-spill-slots
  42              	# -fisolate-erroneous-paths-dereference -fivopts -fkeep-static-consts
  43              	# -fleading-underscore -flifetime-dse -floop-interchange
  44              	# -floop-unroll-and-jam -flra-remat -flto-odr-type-merging
  45              	# -fmerge-constants -fmerge-debug-strings -fmove-loop-invariants
  46              	# -fomit-frame-pointer -foptimize-sibling-calls -foptimize-strlen
  47              	# -fpartial-inlining -fpeel-loops -fpeephole -fpeephole2 -fplt
  48              	# -fpredictive-commoning -fprefetch-loop-arrays -freciprocal-math -free
  49              	# -freg-struct-return -frename-registers -freorder-blocks
  50              	# -freorder-blocks-and-partition -freorder-functions -frerun-cse-after-loop
  51              	# -fsched-critical-path-heuristic -fsched-dep-count-heuristic
  52              	# -fsched-group-heuristic -fsched-interblock -fsched-last-insn-heuristic
  53              	# -fsched-rank-heuristic -fsched-spec -fsched-spec-insn-heuristic
  54              	# -fsched-stalled-insns-dep -fschedule-fusion -fschedule-insns2
  55              	# -fsemantic-interposition -fshow-column -fshrink-wrap
  56              	# -fshrink-wrap-separate -fsplit-ivs-in-unroller -fsplit-loops
  57              	# -fsplit-paths -fsplit-wide-types -fssa-backprop -fssa-phiopt
GAS LISTING /tmp/ccH5HMHD.s 			page 2


  58              	# -fstack-clash-protection -fstack-protector-strong -fstdarg-opt
  59              	# -fstore-merging -fstrict-aliasing -fstrict-volatile-bitfields
  60              	# -fsync-libcalls -fthread-jumps -ftoplevel-reorder -ftree-bit-ccp
  61              	# -ftree-builtin-call-dce -ftree-ccp -ftree-ch -ftree-coalesce-vars
  62              	# -ftree-copy-prop -ftree-cselim -ftree-dce -ftree-dominator-opts
  63              	# -ftree-dse -ftree-forwprop -ftree-fre -ftree-loop-distribute-patterns
  64              	# -ftree-loop-distribution -ftree-loop-if-convert -ftree-loop-im
  65              	# -ftree-loop-ivcanon -ftree-loop-optimize -ftree-loop-vectorize
  66              	# -ftree-parallelize-loops= -ftree-partial-pre -ftree-phiprop -ftree-pre
  67              	# -ftree-pta -ftree-reassoc -ftree-scev-cprop -ftree-sink
  68              	# -ftree-slp-vectorize -ftree-slsr -ftree-sra -ftree-switch-conversion
  69              	# -ftree-tail-merge -ftree-ter -ftree-vrp -funit-at-a-time
  70              	# -funroll-all-loops -funroll-loops -funsafe-math-optimizations
  71              	# -funswitch-loops -fvar-tracking -fvar-tracking-assignments -fverbose-asm
  72              	# -fversion-loops-for-strides -fweb -fzero-initialized-in-bss
  73              	# -m128bit-long-double -m64 -m80387 -mabm -maccumulate-outgoing-args -madx
  74              	# -maes -malign-stringops -mavx -mavx2 -mbmi -mbmi2 -mclflushopt -mcx16
  75              	# -mf16c -mfancy-math-387 -mfma -mfp-ret-in-387 -mfsgsbase -mfxsr -mglibc
  76              	# -mhle -mlong-double-80 -mlzcnt -mmmx -mmovbe -mpclmul -mpopcnt -mprfchw
  77              	# -mpush-args -mrdrnd -mrdseed -mred-zone -mrtm -msahf -msse -msse2 -msse3
  78              	# -msse4 -msse4.1 -msse4.2 -mssse3 -mstv -mtls-direct-seg-refs -mvzeroupper
  79              	# -mxsave -mxsavec -mxsaveopt -mxsaves
  80              	
  81              		.text
  82              	.Ltext0:
  83              		.cfi_sections	.debug_frame
  84              		.p2align 4
  86              	extendSieve_smallSize:
  87              	.LVL0:
  88              	.LFB64:
  89              		.file 1 "sieve_extend.c"
   1:sieve_extend.c **** #include <stdio.h>
   2:sieve_extend.c **** #include <stdlib.h>
   3:sieve_extend.c **** #include <stdint.h>
   4:sieve_extend.c **** #include <time.h>
   5:sieve_extend.c **** #include <math.h>
   6:sieve_extend.c **** #include <string.h>
   7:sieve_extend.c **** 
   8:sieve_extend.c **** //add debug in front of a line to only compile it if the value below is set to 1 (or !=0)
   9:sieve_extend.c **** #define option_runonce 0
  10:sieve_extend.c **** #define debug if (option_runonce)
  11:sieve_extend.c **** 
  12:sieve_extend.c **** #define default_sieve_limit 1000000
  13:sieve_extend.c **** #define default_blocksize (32*1024*8-1024)
  14:sieve_extend.c **** #define default_sieve_duration 5
  15:sieve_extend.c **** #define default_sample_duration 0.1
  16:sieve_extend.c **** #define default_sample_max 5
  17:sieve_extend.c **** #define default_verbose_level 2
  18:sieve_extend.c **** #define default_tune_level 1
  19:sieve_extend.c **** #define default_check_level 1
  20:sieve_extend.c **** #define default_show_primes_on_error 100
  21:sieve_extend.c **** #define default_showMaxFactor (0 || option_runonce?100:0)
  22:sieve_extend.c **** #define anticiped_cache_line_bytesize 128
  23:sieve_extend.c **** 
  24:sieve_extend.c **** // 64 bit
  25:sieve_extend.c **** #define TYPE uint64_t
  26:sieve_extend.c **** 
GAS LISTING /tmp/ccH5HMHD.s 			page 3


  27:sieve_extend.c **** // calculate the rest dynamically
  28:sieve_extend.c **** #define counter_t TYPE
  29:sieve_extend.c **** #define bitshift_t TYPE
  30:sieve_extend.c **** #define bitword_t uint64_t
  31:sieve_extend.c **** 
  32:sieve_extend.c **** #define WORD_SIZE (sizeof(bitword_t)*8)
  33:sieve_extend.c **** #define WORD_SIZE_counter ((counter_t)WORD_SIZE)
  34:sieve_extend.c **** #define WORD_SIZE_bitshift ((bitshift_t)WORD_SIZE)
  35:sieve_extend.c **** #define pow(base,pow) (pow*((base>>pow)&1U))
  36:sieve_extend.c **** //#define SHIFT ((bitshift_t)(pow(WORD_SIZE,1)+pow(WORD_SIZE,2)+pow(WORD_SIZE,3)+pow(WORD_SIZE,4)+p
  37:sieve_extend.c **** #define SHIFT_WORD ((bitshift_t)(pow(WORD_SIZE,1)+pow(WORD_SIZE,2)+pow(WORD_SIZE,3)+pow(WORD_SIZE,4
  38:sieve_extend.c **** 
  39:sieve_extend.c **** #define VECTOR_ELEMENTS 4
  40:sieve_extend.c **** #define VECTOR_SIZE_bytes (sizeof(bitword_t)*VECTOR_ELEMENTS)
  41:sieve_extend.c **** #define VECTOR_SIZE_counter (VECTOR_SIZE_bytes*8)
  42:sieve_extend.c **** #define VECTOR_SIZE (VECTOR_SIZE_bytes*8)
  43:sieve_extend.c **** #define SHIFT_VECTOR ((bitshift_t)(pow(VECTOR_SIZE,1)+pow(VECTOR_SIZE,2)+pow(VECTOR_SIZE,3)+pow(VEC
  44:sieve_extend.c **** 
  45:sieve_extend.c **** typedef bitword_t bitvector_t __attribute__ ((vector_size(VECTOR_SIZE_bytes)));
  46:sieve_extend.c **** 
  47:sieve_extend.c **** // globals for tuning
  48:sieve_extend.c **** counter_t global_SMALLSTEP_FASTER = 0;
  49:sieve_extend.c **** counter_t global_MEDIUMSTEP_FASTER = 16;
  50:sieve_extend.c **** counter_t global_VECTORSTEP_FASTER = 96;
  51:sieve_extend.c **** 
  52:sieve_extend.c **** #define SAFE_SHIFTBIT (bitshift_t)1U
  53:sieve_extend.c **** #define SAFE_ZERO  (bitword_t)0U
  54:sieve_extend.c **** #define BITWORD_SHIFTBIT (bitword_t)1U
  55:sieve_extend.c **** #define WORDMASK ((~SAFE_ZERO)>>(WORD_SIZE_bitshift-SHIFT_WORD))
  56:sieve_extend.c **** #define VECTORMASK ((~SAFE_ZERO)>>(WORD_SIZE_bitshift-SHIFT_VECTOR))
  57:sieve_extend.c **** // #define SMALLSTEP_FASTER ((counter_t)0)
  58:sieve_extend.c **** // #define MEDIUMSTEP_FASTER ((counter_t)16)
  59:sieve_extend.c **** // #define VECTORSTEP_FASTER ((counter_t)96)
  60:sieve_extend.c **** 
  61:sieve_extend.c **** #define SMALLSTEP_FASTER ((counter_t)global_SMALLSTEP_FASTER)
  62:sieve_extend.c **** #define MEDIUMSTEP_FASTER ((counter_t)global_MEDIUMSTEP_FASTER)
  63:sieve_extend.c **** #define VECTORSTEP_FASTER ((counter_t)global_VECTORSTEP_FASTER)
  64:sieve_extend.c **** 
  65:sieve_extend.c **** #define wordindex(index) (((counter_t)index) >> (bitshift_t)SHIFT_WORD)
  66:sieve_extend.c **** #define wordend(index) ((counter_t)index|WORDMASK)
  67:sieve_extend.c **** #define vectorindex(index) (((counter_t)index) >> (bitshift_t)SHIFT_VECTOR)
  68:sieve_extend.c **** #define vectorstart(index) (((counter_t)index) & (counter_t)VECTORMASK)
  69:sieve_extend.c **** 
  70:sieve_extend.c **** // modern processors do a & over the shiftssize, so we only have to do that ourselve when using the
  71:sieve_extend.c **** #define bitindex(index) ((bitshift_t)(index))
  72:sieve_extend.c **** // #define bitindex(index) ((bitshift_t)(index)&((bitword_t)(WORD_SIZE-1)))
  73:sieve_extend.c **** //#define bitindex_calc(index) ((bitshift_t)(index)&((bitshift_t)(WORD_SIZE_bitshift-SAFE_SHIFTBIT)
  74:sieve_extend.c **** #define bitindex_calc(index) ((bitshift_t)(index)&((bitshift_t)(WORDMASK)))
  75:sieve_extend.c **** #define  markmask(index) (BITWORD_SHIFTBIT << bitindex(index))
  76:sieve_extend.c **** #define  markmask_calc(index) (BITWORD_SHIFTBIT << bitindex_calc(index))
  77:sieve_extend.c **** // #define chopmask(index) ((SAFE_SHIFTBIT << bitindex(index))-SAFE_SHIFTBIT)
  78:sieve_extend.c **** // #define chopmask2(index) (((bitword_t)2U << bitindex(index))-SAFE_SHIFTBIT)
  79:sieve_extend.c **** #define chopmask(index) (~SAFE_ZERO >> (WORD_SIZE-1-bitindex_calc(index)))
  80:sieve_extend.c **** #define keepmask(index) (~SAFE_ZERO << (bitindex_calc(index)))
  81:sieve_extend.c **** #define chopmask2(index) chopmask(index)
  82:sieve_extend.c **** #define real(bit) (bit*2+1)
  83:sieve_extend.c **** 
GAS LISTING /tmp/ccH5HMHD.s 			page 4


  84:sieve_extend.c **** #define min(a,b) ((a<b) ? a : b)
  85:sieve_extend.c **** #define uintsafeminus(a,b) ((a>b)?(a-b):0)
  86:sieve_extend.c **** 
  87:sieve_extend.c **** #define likely(x)       (__builtin_expect((x),1))
  88:sieve_extend.c **** #define unlikely(x)     (__builtin_expect((x),0))
  89:sieve_extend.c **** 
  90:sieve_extend.c **** counter_t debug_hitpoint[5] = { 0,0,0,0,0};
  91:sieve_extend.c **** 
  92:sieve_extend.c **** struct sieve_state {
  93:sieve_extend.c ****     bitword_t* bitarray;
  94:sieve_extend.c ****     counter_t  bits;
  95:sieve_extend.c ****     counter_t  size;
  96:sieve_extend.c **** };
  97:sieve_extend.c **** 
  98:sieve_extend.c **** #include "debugtools.h"
  99:sieve_extend.c **** 
 100:sieve_extend.c **** // use cache lines as much as possible - alignment might be key
 101:sieve_extend.c **** #define ceiling(x,y) (((x) + (y) - 1) / (y)) // Return the smallest multiple N of y such that:  x <
 102:sieve_extend.c **** static struct sieve_state *create_sieve(counter_t size) {
 103:sieve_extend.c ****     struct sieve_state *sieve = aligned_alloc(8, sizeof(struct sieve_state));
 104:sieve_extend.c ****     size_t memSize = ceiling(1+((size_t)size/2), anticiped_cache_line_bytesize*8) * anticiped_cache
 105:sieve_extend.c **** 
 106:sieve_extend.c ****     sieve->bitarray = aligned_alloc((size_t)anticiped_cache_line_bytesize, (size_t)memSize );
 107:sieve_extend.c ****     sieve->bits     = size >> 1;
 108:sieve_extend.c ****     sieve->size     = size;
 109:sieve_extend.c **** 
 110:sieve_extend.c ****     // moved clearing the sieve with 0 to the sieve_block_extend
 111:sieve_extend.c ****     // it gave weird malloc problems at this point
 112:sieve_extend.c ****     return sieve;
 113:sieve_extend.c **** }
 114:sieve_extend.c **** 
 115:sieve_extend.c **** static void delete_sieve(struct sieve_state *sieve) {
 116:sieve_extend.c ****     free(sieve->bitarray);
 117:sieve_extend.c ****     free(sieve);
 118:sieve_extend.c **** }
 119:sieve_extend.c **** 
 120:sieve_extend.c **** // not much performance gain at smaller sieves, but its's nice to have an implementation
 121:sieve_extend.c **** static inline counter_t searchBitFalse(bitword_t* bitarray, register counter_t index) {
 122:sieve_extend.c ****     while (bitarray[wordindex(index)] & markmask(index)) index++;
 123:sieve_extend.c ****     return index;
 124:sieve_extend.c **** }
 125:sieve_extend.c **** 
 126:sieve_extend.c **** // not much performance gain at smaller sieves, but its's nice to have an implementation
 127:sieve_extend.c **** static inline counter_t searchBitFalse_longRange(bitword_t* bitarray, register counter_t index) {
 128:sieve_extend.c ****     // return searchBitFalse(bitarray, index);
 129:sieve_extend.c **** 
 130:sieve_extend.c ****    register counter_t index_word = wordindex(index);
 131:sieve_extend.c ****    bitshift_t index_bit  = bitindex_calc(index);
 132:sieve_extend.c ****    register  bitshift_t distance = (bitshift_t) __builtin_ctzll( ~(bitarray[index_word] >> index_bi
 133:sieve_extend.c ****    index += distance;
 134:sieve_extend.c ****    distance += index_bit;
 135:sieve_extend.c **** 
 136:sieve_extend.c ****    while unlikely(distance == WORD_SIZE_bitshift) { // to prevent a bug from optimzer
 137:sieve_extend.c ****        index_word++;
 138:sieve_extend.c ****        distance = (bitshift_t) __builtin_ctzll(~(bitarray[index_word]));
 139:sieve_extend.c ****        index += distance;
 140:sieve_extend.c ****    }
GAS LISTING /tmp/ccH5HMHD.s 			page 5


 141:sieve_extend.c **** 
 142:sieve_extend.c ****    return index;
 143:sieve_extend.c **** }
 144:sieve_extend.c **** 
 145:sieve_extend.c **** 
 146:sieve_extend.c **** static void inline applyMask(bitword_t* __restrict bitarray, const counter_t step, const counter_t 
 147:sieve_extend.c **** //#if __APPLE__
 148:sieve_extend.c **** //   register const counter_t step_2 = step * 2;
 149:sieve_extend.c **** //   register const counter_t step_3 = step * 3;
 150:sieve_extend.c **** //   register const counter_t step_4 = step * 4;
 151:sieve_extend.c **** //   register const counter_t range_stop_word = wordindex(range_stop);
 152:sieve_extend.c **** //   const counter_t loop_stop_word = (range_stop_word > step_3) ? (range_stop_word - step_3) : (co
 153:sieve_extend.c **** //
 154:sieve_extend.c **** //   #pragma ivdep
 155:sieve_extend.c **** //   for (;index_word < loop_stop_word;  index_word += step_4) {
 156:sieve_extend.c **** //       bitarray[index_word         ] |= mask;
 157:sieve_extend.c **** //       bitarray[index_word + step  ] |= mask;
 158:sieve_extend.c **** //       bitarray[index_word + step_2] |= mask;
 159:sieve_extend.c **** //       bitarray[index_word + step_3] |= mask;
 160:sieve_extend.c **** //   }
 161:sieve_extend.c **** //
 162:sieve_extend.c **** //   #pragma ivdep
 163:sieve_extend.c **** //   while (index_word < range_stop_word) {
 164:sieve_extend.c **** //       bitarray[index_word] |= mask;
 165:sieve_extend.c **** //       index_word += step;
 166:sieve_extend.c **** //   }
 167:sieve_extend.c **** //
 168:sieve_extend.c **** //   if (index_word == wordindex(range_stop)) {
 169:sieve_extend.c **** //       bitarray[wordindex(range_stop)] |= (mask & chopmask2(range_stop));
 170:sieve_extend.c **** //   }
 171:sieve_extend.c **** //#endif
 172:sieve_extend.c **** //    ALTERNATIVE using pointers is faster in gcc
 173:sieve_extend.c **** //#if __linux__
 174:sieve_extend.c ****    const counter_t range_stop_word = wordindex(range_stop);
 175:sieve_extend.c ****    register bitword_t* __restrict index_ptr      =  __builtin_assume_aligned(&bitarray[index_word],
 176:sieve_extend.c ****    register bitword_t* __restrict fast_loop_ptr  =  __builtin_assume_aligned(&bitarray[((range_stop
 177:sieve_extend.c **** 
 178:sieve_extend.c ****   #pragma unroll
 179:sieve_extend.c ****    #pragma ivdep
 180:sieve_extend.c ****    while likely(index_ptr < fast_loop_ptr) {
 181:sieve_extend.c ****        *index_ptr |= mask;
 182:sieve_extend.c ****        index_ptr+=step;
 183:sieve_extend.c ****        *index_ptr |= mask;
 184:sieve_extend.c ****        index_ptr+=step;
 185:sieve_extend.c ****        *index_ptr |= mask;
 186:sieve_extend.c ****        index_ptr+=step;
 187:sieve_extend.c ****        *index_ptr |= mask;
 188:sieve_extend.c ****        index_ptr+=step;
 189:sieve_extend.c ****        *index_ptr |= mask;
 190:sieve_extend.c ****        index_ptr+=step;
 191:sieve_extend.c ****    }
 192:sieve_extend.c **** 
 193:sieve_extend.c ****    const register bitword_t* __restrict range_stop_ptr = &bitarray[(range_stop_word)];
 194:sieve_extend.c ****    while likely(index_ptr < range_stop_ptr) {
 195:sieve_extend.c ****        *index_ptr |= mask;
 196:sieve_extend.c ****        index_ptr+=step;
 197:sieve_extend.c ****    }
GAS LISTING /tmp/ccH5HMHD.s 			page 6


 198:sieve_extend.c **** 
 199:sieve_extend.c ****    if (index_ptr == range_stop_ptr) { // index_ptr could also end above range_stop_ptr, depending o
 200:sieve_extend.c ****       *index_ptr |= (mask & chopmask(range_stop));
 201:sieve_extend.c ****    }
 202:sieve_extend.c **** 
 203:sieve_extend.c **** //    const counter_t range_stop_word = wordindex(range_stop);
 204:sieve_extend.c **** //    bitword_t* __restrict index_ptr = &bitarray[index_word];
 205:sieve_extend.c **** //    bitword_t* __restrict fast_loop_ptr = &bitarray[((range_stop_word>step*4) ? (range_stop_word 
 206:sieve_extend.c **** //    bitword_t* __restrict range_stop_ptr = &bitarray[(range_stop_word)];//>step_4) ? (range_stop_
 207:sieve_extend.c **** //    const int loop_iterations = ((range_stop_word - index_word) / (step*4));
 208:sieve_extend.c **** 
 209:sieve_extend.c **** //      debug printf("..%ju loop iterations for step %ju range in words (%ju - %ju)\n",(uintmax_t)l
 210:sieve_extend.c **** 
 211:sieve_extend.c **** //     #pragma unroll 1
 212:sieve_extend.c **** //    #pragma ivdep
 213:sieve_extend.c **** //    for ( int i=0; i < loop_iterations; i++) {
 214:sieve_extend.c **** //        *(index_ptr) |= mask;
 215:sieve_extend.c **** //        *(index_ptr+step) |= mask;
 216:sieve_extend.c **** //        *(index_ptr+2*step) |= mask;
 217:sieve_extend.c **** //        *(index_ptr+3*step) |= mask;
 218:sieve_extend.c **** //        index_ptr += 4*step;
 219:sieve_extend.c **** //    }
 220:sieve_extend.c **** 
 221:sieve_extend.c **** //    while ( index_ptr < range_stop_ptr) {
 222:sieve_extend.c **** //        *index_ptr |= mask;
 223:sieve_extend.c **** //        index_ptr+=step;
 224:sieve_extend.c **** //    }
 225:sieve_extend.c **** 
 226:sieve_extend.c **** //    if (index_ptr == range_stop_ptr) {
 227:sieve_extend.c **** //       *range_stop_ptr |= (mask & chopmask(range_stop));
 228:sieve_extend.c **** //    }
 229:sieve_extend.c **** //#endif
 230:sieve_extend.c **** }
 231:sieve_extend.c **** 
 232:sieve_extend.c **** // set bits by creating a pattern and then extending it to word and range size
 233:sieve_extend.c **** static void inline setBitsTrue_smallStep(bitword_t* __restrict bitarray, const counter_t range_star
 234:sieve_extend.c ****     debug printf("Setting bits step %ju in %ju bit range (%ju-%ju) using smallstep (%ju occurances)
 235:sieve_extend.c **** 
 236:sieve_extend.c ****     // build the pattern in a word
 237:sieve_extend.c **** 	register bitword_t pattern = BITWORD_SHIFTBIT;
 238:sieve_extend.c ****     for (bitshift_t patternsize = step; patternsize <= WORD_SIZE_bitshift; patternsize += patternsi
 239:sieve_extend.c ****         pattern |= (pattern << patternsize);
 240:sieve_extend.c **** 
 241:sieve_extend.c ****     // debug if (step==13) { printf("Before\n"); dump_bitarray(bitarray,10); }
 242:sieve_extend.c ****     
 243:sieve_extend.c ****     // initialize loop variables and stop if this is it
 244:sieve_extend.c ****     const counter_t range_stop_word = wordindex(range_stop);
 245:sieve_extend.c ****     register counter_t range_start_word = wordindex(range_start);
 246:sieve_extend.c ****      if (range_start_word >= range_stop_word) { // shortcut
 247:sieve_extend.c ****        bitarray[range_start_word] |= (pattern << bitindex(range_start)) & chopmask(range_stop);
 248:sieve_extend.c ****         //  debug if (step==13) { printf("After\n"); dump_bitarray(bitarray,10); }
 249:sieve_extend.c ****        return;
 250:sieve_extend.c ****     }
 251:sieve_extend.c ****     
 252:sieve_extend.c ****     bitarray[range_start_word] |= (pattern << bitindex(range_start));
 253:sieve_extend.c **** 
 254:sieve_extend.c ****    // from now on, we are before range_stop_word
GAS LISTING /tmp/ccH5HMHD.s 			page 7


 255:sieve_extend.c ****    // first word is special, because it should not set bits before the range_start_bit
 256:sieve_extend.c ****    register bitshift_t pattern_size = WORD_SIZE_bitshift - (WORD_SIZE_bitshift % step);
 257:sieve_extend.c ****    register bitshift_t pattern_shift = step - (WORD_SIZE_bitshift % step);
 258:sieve_extend.c ****    register bitshift_t shift = (bitindex_calc(range_start))%step ;
 259:sieve_extend.c ****    counter_t loop_range = range_stop_word - range_start_word;
 260:sieve_extend.c ****    #pragma unroll
 261:sieve_extend.c ****    #pragma ivdep
 262:sieve_extend.c ****    for (counter_t i=1; i <= loop_range; i++) {
 263:sieve_extend.c ****         bitshift_t totalshift = (shift+i*pattern_shift) % step;
 264:sieve_extend.c ****        bitarray[range_start_word+i] |=  (pattern >> (pattern_size-totalshift)) | (pattern << (total
 265:sieve_extend.c **** 
 266:sieve_extend.c ****         // bitarray[range_start_word+i] |=  (pattern >> (pattern_size-((shift+i*pattern_shift) % st
 267:sieve_extend.c ****    }
 268:sieve_extend.c ****    bitarray[range_stop_word] &= chopmask(range_stop);
 269:sieve_extend.c **** 
 270:sieve_extend.c **** //    for(counter_t check=range_start; check<=range_stop; check+=step) {
 271:sieve_extend.c **** //         if (!(bitarray[wordindex(check)] & markmask(check))) {
 272:sieve_extend.c **** //             printf("Bit %ju not set\n",check);
 273:sieve_extend.c **** //             dump_bitarray(bitarray,4);
 274:sieve_extend.c **** //             printWord(pattern); printf("\n");
 275:sieve_extend.c **** //             exit(0);
 276:sieve_extend.c **** //         }
 277:sieve_extend.c **** //    }
 278:sieve_extend.c **** 
 279:sieve_extend.c ****     // pattern = (pattern << (bitindex_calc(range_start) % step)); // correct for inital offset
 280:sieve_extend.c ****     // const register bitshift_t pattern_shift = WORD_SIZE_bitshift % step;
 281:sieve_extend.c ****     // const register bitshift_t pattern_shift_flipped = WORD_SIZE_bitshift - pattern_shift - patte
 282:sieve_extend.c ****     // const register counter_t loop_range = range_stop_word - range_start_word;
 283:sieve_extend.c ****     // #pragma unroll
 284:sieve_extend.c ****     // #pragma ivdep
 285:sieve_extend.c ****     // for (counter_t i=1; i <= loop_range; i++) {
 286:sieve_extend.c ****     //     pattern = (pattern >> pattern_shift) | (pattern << pattern_shift_flipped);
 287:sieve_extend.c ****     //     bitarray[range_start_word+i] |= pattern;
 288:sieve_extend.c ****     // }
 289:sieve_extend.c ****     // bitarray[range_stop_word] &= chopmask(range_stop);
 290:sieve_extend.c **** }
 291:sieve_extend.c **** 
 292:sieve_extend.c **** // Medium steps could be within the same word (e.g. less than 64 bits apart).
 293:sieve_extend.c **** // By joining the masks and then writing to memory, we might save some time.
 294:sieve_extend.c **** // This is especially true for small steps over long ranges
 295:sieve_extend.c **** // but it needs tuning, because there is some overhead of checking if the next step is in the same 
 296:sieve_extend.c **** static void  setBitsTrue_mediumStep(bitword_t* __restrict bitarray, const counter_t range_start, co
 297:sieve_extend.c ****     const counter_t range_stop_unique =  range_start + WORD_SIZE_counter * step;
 298:sieve_extend.c **** 
 299:sieve_extend.c ****     if (range_stop_unique > range_stop) { // the range will not repeat itself; no need to try to re
 300:sieve_extend.c ****         debug printf("Setting bits step %ju in %ju bit range (%ju-%ju) using mediumstep-unique (%ju
 301:sieve_extend.c **** 
 302:sieve_extend.c ****         #pragma ivdep
 303:sieve_extend.c ****         for (register counter_t index = range_start; index <= range_stop;) {
 304:sieve_extend.c ****             register counter_t index_word = wordindex(index);
 305:sieve_extend.c ****             register bitword_t mask = SAFE_ZERO;
 306:sieve_extend.c ****             #pragma ivdep
 307:sieve_extend.c ****             do {
 308:sieve_extend.c ****                 mask |= markmask(index);
 309:sieve_extend.c ****                 index += step;
 310:sieve_extend.c ****             } while (index_word == wordindex(index));
 311:sieve_extend.c ****             // for (; index_word == wordindex(index);  index += step) 
GAS LISTING /tmp/ccH5HMHD.s 			page 8


 312:sieve_extend.c ****             //     mask |= markmask(index);
 313:sieve_extend.c ****             bitarray[index_word] |= mask;
 314:sieve_extend.c ****         }
 315:sieve_extend.c ****     }
 316:sieve_extend.c ****     else { // this mask will reoccur at a interval of step words -> fill mask and reapply as a inte
 317:sieve_extend.c ****         debug printf("Setting bits step %ju in %ju bit range (%ju-%ju) using mediumstep-repeat (%ju
 318:sieve_extend.c ****         
 319:sieve_extend.c ****         #pragma ivdep
 320:sieve_extend.c ****         for (register counter_t index = range_start; index <= range_stop_unique;) {
 321:sieve_extend.c ****             register counter_t index_word = wordindex(index);
 322:sieve_extend.c ****             register bitword_t mask = SAFE_ZERO;
 323:sieve_extend.c ****             #pragma ivdep
 324:sieve_extend.c ****             do {
 325:sieve_extend.c ****                 mask |= markmask(index);
 326:sieve_extend.c ****                 index += step;
 327:sieve_extend.c ****             } while (index_word == wordindex(index));
 328:sieve_extend.c ****             // #pragma ivdep
 329:sieve_extend.c ****             // for (; index_word == wordindex(index);  index += step) 
 330:sieve_extend.c ****             //     mask |= markmask(index);
 331:sieve_extend.c ****             applyMask(bitarray, step, range_stop, mask, index_word);
 332:sieve_extend.c ****         }
 333:sieve_extend.c ****     }
 334:sieve_extend.c **** }
 335:sieve_extend.c **** 
 336:sieve_extend.c **** // small ranges (< WORD_SIZE * step) mean the mask is unique
 337:sieve_extend.c **** static inline void setBitsTrue_largeSteps(bitword_t* __restrict bitarray, const counter_t range_sta
 338:sieve_extend.c ****     debug printf("Setting bits step %ju in %ju bit range (%ju-%ju) using largesteps (%ju occurances
 339:sieve_extend.c ****     
 340:sieve_extend.c ****     #pragma unroll
 341:sieve_extend.c ****     #pragma ivdep
 342:sieve_extend.c ****     for (counter_t index = range_start; index <= range_stop; index += step) {
 343:sieve_extend.c ****         bitarray[wordindex(index)] |= markmask(index);
 344:sieve_extend.c ****     }
 345:sieve_extend.c **** 
 346:sieve_extend.c **** //    counter_t loop_iterations = (range_stop - range_start) / step;
 347:sieve_extend.c **** //    #pragma unroll
 348:sieve_extend.c **** //     #pragma ivdep
 349:sieve_extend.c **** //     for (register counter_t i = 0; i <= loop_iterations; i++) {
 350:sieve_extend.c **** //         bitarray[wordindex(range_start+i*step)] |= markmask(range_start+i*step);
 351:sieve_extend.c **** //     }
 352:sieve_extend.c **** }
 353:sieve_extend.c **** 
 354:sieve_extend.c **** // small ranges (< WORD_SIZE * step) mean the mask is unique
 355:sieve_extend.c **** static void setBitsTrue_race(bitword_t* bitarray, counter_t index1, counter_t index2, const counter
 356:sieve_extend.c ****     debug printf("Setting bits step %ju and %ju in %ju bit range (%ju-%ju) using race (%ju occuranc
 357:sieve_extend.c **** 
 358:sieve_extend.c ****     counter_t index1_word = wordindex(index1);
 359:sieve_extend.c ****     counter_t index2_word = wordindex(index2);
 360:sieve_extend.c ****     
 361:sieve_extend.c ****     while (1) {
 362:sieve_extend.c ****         if (index1_word == index2_word) {
 363:sieve_extend.c ****             bitword_t mask = SAFE_ZERO;
 364:sieve_extend.c ****             counter_t index_word = index1_word;
 365:sieve_extend.c ****             do {
 366:sieve_extend.c ****                 mask |= markmask(index1);
 367:sieve_extend.c ****                 index1 += step1;
 368:sieve_extend.c ****                 index1_word = wordindex(index1);
GAS LISTING /tmp/ccH5HMHD.s 			page 9


 369:sieve_extend.c ****             } while (index1_word == index_word);
 370:sieve_extend.c ****             do {
 371:sieve_extend.c ****                 mask |= markmask(index2);
 372:sieve_extend.c ****                 index2 += step2;
 373:sieve_extend.c ****                 index2_word = wordindex(index2);
 374:sieve_extend.c ****             } while (index2_word == index_word);
 375:sieve_extend.c ****             bitarray[index_word] |= mask;
 376:sieve_extend.c ****         }
 377:sieve_extend.c **** 
 378:sieve_extend.c ****         // because step is larger, index2 is the most likely to get out of bounds first
 379:sieve_extend.c ****         if (index2 > range_stop) {
 380:sieve_extend.c ****             while (index1 <= range_stop) {
 381:sieve_extend.c ****                 bitarray[wordindex(index1)] |= markmask(index1);
 382:sieve_extend.c ****                 index1 += step1;
 383:sieve_extend.c ****             }
 384:sieve_extend.c ****             return;
 385:sieve_extend.c ****         }
 386:sieve_extend.c **** 
 387:sieve_extend.c ****         if (index1 > range_stop) {
 388:sieve_extend.c ****             while (index2 <= range_stop) {
 389:sieve_extend.c ****                 bitarray[wordindex(index2)] |= markmask(index2);
 390:sieve_extend.c ****                 index2 += step2;
 391:sieve_extend.c ****             }
 392:sieve_extend.c ****             return;
 393:sieve_extend.c ****         }
 394:sieve_extend.c **** 
 395:sieve_extend.c ****         while (index1_word < index2_word) {
 396:sieve_extend.c ****             bitarray[index1_word] |= markmask(index1);
 397:sieve_extend.c ****             index1 += step1;
 398:sieve_extend.c ****             index1_word = wordindex(index1);
 399:sieve_extend.c ****         }
 400:sieve_extend.c ****         
 401:sieve_extend.c ****         while (index2_word < index1_word){
 402:sieve_extend.c ****             bitarray[index2_word] |= markmask(index2);
 403:sieve_extend.c ****             index2 += step2;
 404:sieve_extend.c ****             index2_word = wordindex(index2);
 405:sieve_extend.c ****         }
 406:sieve_extend.c **** 
 407:sieve_extend.c ****     }
 408:sieve_extend.c **** }
 409:sieve_extend.c **** 
 410:sieve_extend.c **** // Large ranges (> WORD_SIZE * step) mean the same mask can be reused
 411:sieve_extend.c **** static inline void setBitsTrue_largeRange(bitword_t* __restrict bitarray, const counter_t range_sta
 412:sieve_extend.c ****     debug printf("Setting bits step %ju in %ju bit range (%ju-%ju) using largerange (%ju occurances
 413:sieve_extend.c ****     const counter_t range_stop_unique =  range_start + WORD_SIZE_counter * step;
 414:sieve_extend.c **** 
 415:sieve_extend.c **** //    #pragma unroll
 416:sieve_extend.c ****     #pragma ivdep
 417:sieve_extend.c ****     for (register counter_t index = range_start; index < range_stop_unique; index += step) {
 418:sieve_extend.c ****         applyMask(bitarray, step, range_stop, markmask(index), wordindex(index));
 419:sieve_extend.c ****     }
 420:sieve_extend.c **** }
 421:sieve_extend.c **** 
 422:sieve_extend.c **** static void setBitsTrue_largeRange_vector(bitword_t* __restrict bitarray_word, counter_t range_star
 423:sieve_extend.c ****     debug printf("Setting bits step %ju in %ju bit range (%ju-%ju) using largerange vector (%ju occ
 424:sieve_extend.c **** 
 425:sieve_extend.c ****     // const counter_t range_stop_unique_oneword =  min(range_start + WORD_SIZE_counter * step, ran
GAS LISTING /tmp/ccH5HMHD.s 			page 10


 426:sieve_extend.c ****     // for (counter_t index = range_start; index <= range_stop_unique_oneword; index += step) {
 427:sieve_extend.c ****     //     applyMask(bitarray_word, step, range_stop, markmask(index), wordindex(index));
 428:sieve_extend.c ****     // }
 429:sieve_extend.c ****     // return;
 430:sieve_extend.c **** 
 431:sieve_extend.c ****     bitvector_t* __restrict bitarray_vector = __builtin_assume_aligned( (bitvector_t*) bitarray_wor
 432:sieve_extend.c ****     
 433:sieve_extend.c ****     // find out where the first complete vector is
 434:sieve_extend.c ****     counter_t range_start_atvector = vectorstart(range_start);
 435:sieve_extend.c ****     if likely((range_start_atvector + step) < range_start) { // not the first step possible in this
 436:sieve_extend.c ****         range_start_atvector += VECTOR_SIZE; // find next vector
 437:sieve_extend.c ****         if (unlikely(range_start_atvector > range_stop)) { // we should not be here; just handle wi
 438:sieve_extend.c ****             #pragma ivdep unroll
 439:sieve_extend.c ****             for (counter_t index = range_start; index <= range_stop; index += step) 
 440:sieve_extend.c ****                 bitarray_word[wordindex(index)] |= markmask(index);
 441:sieve_extend.c ****             return;                 
 442:sieve_extend.c ****         }
 443:sieve_extend.c **** 
 444:sieve_extend.c ****         register counter_t index = range_start; // outside to later adjust range_start
 445:sieve_extend.c ****         #pragma ivdep unroll
 446:sieve_extend.c ****         for (; index < range_start_atvector; index += step) {
 447:sieve_extend.c ****             register counter_t index_word = wordindex(index);
 448:sieve_extend.c ****             register bitword_t mask = SAFE_ZERO;
 449:sieve_extend.c ****             do {
 450:sieve_extend.c ****                 mask |= markmask(index);
 451:sieve_extend.c ****                 index += step;
 452:sieve_extend.c ****             } while (wordindex(index) == index_word);
 453:sieve_extend.c ****             bitarray_word[wordindex(index)] |= markmask(index);
 454:sieve_extend.c ****         }
 455:sieve_extend.c ****         range_start = index;
 456:sieve_extend.c ****     }
 457:sieve_extend.c ****     
 458:sieve_extend.c ****     const counter_t range_stop_unique =  min(range_start + VECTOR_SIZE_counter * step, range_stop);
 459:sieve_extend.c ****     
 460:sieve_extend.c ****     #pragma ivdep unroll
 461:sieve_extend.c ****     for (counter_t index = range_start; index < range_stop_unique;) {
 462:sieve_extend.c ****         const counter_t current_vector_start_word =  vectorindex(index)*VECTOR_ELEMENTS;
 463:sieve_extend.c ****         register bitvector_t quadmask = { };
 464:sieve_extend.c ****         register counter_t word = wordindex(index) - current_vector_start_word;
 465:sieve_extend.c ****         
 466:sieve_extend.c ****         // build a quadmask
 467:sieve_extend.c ****         do {
 468:sieve_extend.c ****             quadmask[word] |= markmask(index);
 469:sieve_extend.c ****             index += step;
 470:sieve_extend.c ****             word = wordindex(index) - current_vector_start_word;
 471:sieve_extend.c ****         } while (word < (VECTOR_ELEMENTS) && index <= range_stop_unique);
 472:sieve_extend.c ****         
 473:sieve_extend.c ****         // use mask on all n*step multiples
 474:sieve_extend.c ****         register counter_t current_vector = current_vector_start_word >> (SHIFT_VECTOR - SHIFT_WORD
 475:sieve_extend.c ****         const counter_t range_stop_vector = vectorindex(range_stop);
 476:sieve_extend.c **** 
 477:sieve_extend.c ****         #pragma ivdep unroll
 478:sieve_extend.c ****         for(; current_vector+4*step <= range_stop_vector; current_vector += 4*step) {
 479:sieve_extend.c ****             bitarray_vector[current_vector] |= quadmask;
 480:sieve_extend.c ****             bitarray_vector[current_vector+step] |= quadmask;
 481:sieve_extend.c ****             bitarray_vector[current_vector+2*step] |= quadmask;
 482:sieve_extend.c ****             bitarray_vector[current_vector+3*step] |= quadmask;
GAS LISTING /tmp/ccH5HMHD.s 			page 11


 483:sieve_extend.c ****         }
 484:sieve_extend.c **** 
 485:sieve_extend.c ****         #pragma ivdep unroll
 486:sieve_extend.c ****         for(; current_vector <= range_stop_vector; current_vector += step) {
 487:sieve_extend.c ****             bitarray_vector[current_vector] |= quadmask;
 488:sieve_extend.c ****         }
 489:sieve_extend.c ****         
 490:sieve_extend.c ****         counter_t index_word = current_vector * VECTOR_ELEMENTS;
 491:sieve_extend.c ****         counter_t range_stop_word = wordindex(range_stop);
 492:sieve_extend.c ****         if (index_word <= range_stop_word) {
 493:sieve_extend.c ****             #pragma ivdep
 494:sieve_extend.c ****             for (word =0; word < VECTOR_ELEMENTS; word++) {
 495:sieve_extend.c ****                 if (index_word+word <= range_stop_word)
 496:sieve_extend.c ****                     bitarray_word[index_word+word] |= quadmask[word];
 497:sieve_extend.c ****             }
 498:sieve_extend.c ****         }
 499:sieve_extend.c ****     }
 500:sieve_extend.c **** }
 501:sieve_extend.c **** 
 502:sieve_extend.c **** static void extendSieve_smallSize(bitword_t* __restrict bitarray, const counter_t source_start, con
  90              		.loc 1 502 153 view -0
  91              		.cfi_startproc
 503:sieve_extend.c ****     debug printf("Extending sieve size %ju in %ju bit range (%ju-%ju) using smallsize (%ju copies)\
  92              		.loc 1 503 5 view .LVU1
 504:sieve_extend.c ****     // debug { printf("...At start. "); dump_bitarray(bitarray, 4); }
 505:sieve_extend.c **** 
 506:sieve_extend.c ****     const counter_t source_word = wordindex(source_start);
  93              		.loc 1 506 5 view .LVU2
 507:sieve_extend.c ****     register bitword_t pattern = ((bitarray[source_word] >> bitindex(source_start)) | (bitarray[sou
  94              		.loc 1 507 5 view .LVU3
  95              	# sieve_extend.c:502: static void extendSieve_smallSize(bitword_t* __restrict bitarray, const count
 502:sieve_extend.c ****     debug printf("Extending sieve size %ju in %ju bit range (%ju-%ju) using smallsize (%ju copies)\
  96              		.loc 1 502 153 is_stmt 0 view .LVU4
  97 0000 55       		push	rbp	#
  98              		.cfi_def_cfa_offset 16
  99              		.cfi_offset 6, -16
 100 0001 4989D1   		mov	r9, rdx	# size, tmp576
 101              	# sieve_extend.c:506:     const counter_t source_word = wordindex(source_start);
 506:sieve_extend.c ****     register bitword_t pattern = ((bitarray[source_word] >> bitindex(source_start)) | (bitarray[sou
 102              		.loc 1 506 21 view .LVU5
 103 0004 4889F0   		mov	rax, rsi	# source_word, source_start
 104              	# sieve_extend.c:502: static void extendSieve_smallSize(bitword_t* __restrict bitarray, const count
 502:sieve_extend.c ****     debug printf("Extending sieve size %ju in %ju bit range (%ju-%ju) using smallsize (%ju copies)\
 105              		.loc 1 502 153 view .LVU6
 106 0007 4889E5   		mov	rbp, rsp	#,
 107              		.cfi_def_cfa_register 6
 108              	# sieve_extend.c:507:     register bitword_t pattern = ((bitarray[source_word] >> bitindex(source_s
 109              		.loc 1 507 134 view .LVU7
 110 000a 89F2     		mov	edx, esi	# tmp334, source_start
 111              	.LVL1:
 112              	# sieve_extend.c:502: static void extendSieve_smallSize(bitword_t* __restrict bitarray, const count
 502:sieve_extend.c ****     debug printf("Extending sieve size %ju in %ju bit range (%ju-%ju) using smallsize (%ju copies)\
 113              		.loc 1 502 153 view .LVU8
 114 000c 4157     		push	r15	#
 115              	# sieve_extend.c:506:     const counter_t source_word = wordindex(source_start);
 506:sieve_extend.c ****     register bitword_t pattern = ((bitarray[source_word] >> bitindex(source_start)) | (bitarray[sou
 116              		.loc 1 506 21 view .LVU9
GAS LISTING /tmp/ccH5HMHD.s 			page 12


 117 000e 48C1E806 		shr	rax, 6	# source_word,
 118              	.LVL2:
 119              	# sieve_extend.c:507:     register bitword_t pattern = ((bitarray[source_word] >> bitindex(source_s
 120              		.loc 1 507 134 view .LVU10
 121 0012 83E23F   		and	edx, 63	# tmp334,
 122              	# sieve_extend.c:502: static void extendSieve_smallSize(bitword_t* __restrict bitarray, const count
 502:sieve_extend.c ****     debug printf("Extending sieve size %ju in %ju bit range (%ju-%ju) using smallsize (%ju copies)\
 123              		.loc 1 502 153 view .LVU11
 124 0015 4156     		push	r14	#
 125              	# sieve_extend.c:507:     register bitword_t pattern = ((bitarray[source_word] >> bitindex(source_s
 126              		.loc 1 507 133 view .LVU12
 127 0017 41B84000 		mov	r8d, 64	# tmp336,
 127      0000
 128              	# sieve_extend.c:507:     register bitword_t pattern = ((bitarray[source_word] >> bitindex(source_s
 129              		.loc 1 507 167 view .LVU13
 130 001d 4589CB   		mov	r11d, r9d	# tmp342, size
 131              	# sieve_extend.c:502: static void extendSieve_smallSize(bitword_t* __restrict bitarray, const count
 502:sieve_extend.c ****     debug printf("Extending sieve size %ju in %ju bit range (%ju-%ju) using smallsize (%ju copies)\
 132              		.loc 1 502 153 view .LVU14
 133 0020 4155     		push	r13	#
 134              	# sieve_extend.c:507:     register bitword_t pattern = ((bitarray[source_word] >> bitindex(source_s
 135              		.loc 1 507 133 view .LVU15
 136 0022 4129D0   		sub	r8d, edx	# tmp335, tmp334
 137              	# sieve_extend.c:507:     register bitword_t pattern = ((bitarray[source_word] >> bitindex(source_s
 138              		.loc 1 507 167 view .LVU16
 139 0025 41F7D3   		not	r11d	# tmp342
 140              	# sieve_extend.c:502: static void extendSieve_smallSize(bitword_t* __restrict bitarray, const count
 502:sieve_extend.c ****     debug printf("Extending sieve size %ju in %ju bit range (%ju-%ju) using smallsize (%ju copies)\
 141              		.loc 1 502 153 view .LVU17
 142 0028 4154     		push	r12	#
 143              		.cfi_offset 15, -24
 144              		.cfi_offset 14, -32
 145              		.cfi_offset 13, -40
 146              		.cfi_offset 12, -48
 147              	# sieve_extend.c:507:     register bitword_t pattern = ((bitarray[source_word] >> bitindex(source_s
 148              		.loc 1 507 167 view .LVU18
 149 002a 49C7C4FF 		mov	r12, -1	# tmp345,
 149      FFFFFF
 150 0031 C442A3F7 		shrx	r13, r12, r11	# tmp344, tmp345, tmp342
 150      EC
 151              	# sieve_extend.c:502: static void extendSieve_smallSize(bitword_t* __restrict bitarray, const count
 502:sieve_extend.c ****     debug printf("Extending sieve size %ju in %ju bit range (%ju-%ju) using smallsize (%ju copies)\
 152              		.loc 1 502 153 view .LVU19
 153 0036 53       		push	rbx	#
 154              		.cfi_offset 3, -56
 155 0037 4889CB   		mov	rbx, rcx	# destination_stop, tmp577
 156              	# sieve_extend.c:507:     register bitword_t pattern = ((bitarray[source_word] >> bitindex(source_s
 157              		.loc 1 507 58 view .LVU20
 158 003a 488B0CC7 		mov	rcx, QWORD PTR [rdi+rax*8]	# *_5, *_5
 159              	.LVL3:
 160              	# sieve_extend.c:507:     register bitword_t pattern = ((bitarray[source_word] >> bitindex(source_s
 161              		.loc 1 507 112 view .LVU21
 162 003e C462B9F7 		shlx	r8, QWORD PTR 8[rdi+rax*8], r8	# tmp337, *_11, tmp335
 162      44C708
 163              	# sieve_extend.c:507:     register bitword_t pattern = ((bitarray[source_word] >> bitindex(source_s
 164              		.loc 1 507 58 view .LVU22
 165 0045 C462CBF7 		shrx	r10, rcx, rsi	# tmp339, *_5, source_start
GAS LISTING /tmp/ccH5HMHD.s 			page 13


 165      D1
 166              	# sieve_extend.c:507:     register bitword_t pattern = ((bitarray[source_word] >> bitindex(source_s
 167              		.loc 1 507 85 view .LVU23
 168 004a 4D09D0   		or	r8, r10	# tmp341, tmp339
 169              	# sieve_extend.c:502: static void extendSieve_smallSize(bitword_t* __restrict bitarray, const count
 502:sieve_extend.c ****     debug printf("Extending sieve size %ju in %ju bit range (%ju-%ju) using smallsize (%ju copies)\
 170              		.loc 1 502 153 view .LVU24
 171 004d 4883E4E0 		and	rsp, -32	#,
 172              	# sieve_extend.c:507:     register bitword_t pattern = ((bitarray[source_word] >> bitindex(source_s
 173              		.loc 1 507 24 view .LVU25
 174 0051 4D21E8   		and	r8, r13	# pattern, tmp344
 175              	.LVL4:
 508:sieve_extend.c ****     for (bitshift_t pattern_size = (bitshift_t)size; pattern_size <= WORD_SIZE_bitshift; pattern_si
 176              		.loc 1 508 5 is_stmt 1 view .LVU26
 177              	.LBB315:
 178              		.loc 1 508 10 view .LVU27
 179              		.loc 1 508 54 view .LVU28
 180              	# sieve_extend.c:508:     for (bitshift_t pattern_size = (bitshift_t)size; pattern_size <= WORD_SIZ
 181              		.loc 1 508 5 is_stmt 0 view .LVU29
 182 0054 4983F940 		cmp	r9, 64	# size,
 183 0058 0F87C200 		ja	.L2	#,
 183      0000
 184 005e 4D89CE   		mov	r14, r9	# pattern_size, size
 185              	.LVL5:
 186              	.L3:
 509:sieve_extend.c ****         pattern |= (pattern << pattern_size);
 187              		.loc 1 509 9 is_stmt 1 discriminator 3 view .LVU30
 188              	# sieve_extend.c:508:     for (bitshift_t pattern_size = (bitshift_t)size; pattern_size <= WORD_SIZ
 508:sieve_extend.c ****     for (bitshift_t pattern_size = (bitshift_t)size; pattern_size <= WORD_SIZE_bitshift; pattern_si
 189              		.loc 1 508 103 is_stmt 0 discriminator 3 view .LVU31
 190 0061 4B8D0436 		lea	rax, [r14+r14]	# pattern_size,
 191              	# sieve_extend.c:509:         pattern |= (pattern << pattern_size);
 192              		.loc 1 509 29 discriminator 3 view .LVU32
 193 0065 C44289F7 		shlx	r15, r8, r14	# _23, pattern, pattern_size
 193      F8
 194              	# sieve_extend.c:509:         pattern |= (pattern << pattern_size);
 195              		.loc 1 509 17 discriminator 3 view .LVU33
 196 006a 4D09F8   		or	r8, r15	# pattern, _23
 197              	.LVL6:
 508:sieve_extend.c ****     for (bitshift_t pattern_size = (bitshift_t)size; pattern_size <= WORD_SIZE_bitshift; pattern_si
 198              		.loc 1 508 90 is_stmt 1 discriminator 3 view .LVU34
 508:sieve_extend.c ****     for (bitshift_t pattern_size = (bitshift_t)size; pattern_size <= WORD_SIZE_bitshift; pattern_si
 199              		.loc 1 508 54 discriminator 3 view .LVU35
 200              	# sieve_extend.c:508:     for (bitshift_t pattern_size = (bitshift_t)size; pattern_size <= WORD_SIZ
 508:sieve_extend.c ****     for (bitshift_t pattern_size = (bitshift_t)size; pattern_size <= WORD_SIZE_bitshift; pattern_si
 201              		.loc 1 508 5 is_stmt 0 discriminator 3 view .LVU36
 202 006d 4883F840 		cmp	rax, 64	# pattern_size,
 203 0071 0F87A900 		ja	.L2	#,
 203      0000
 204              		.loc 1 509 9 is_stmt 1 view .LVU37
 205              	# sieve_extend.c:508:     for (bitshift_t pattern_size = (bitshift_t)size; pattern_size <= WORD_SIZ
 508:sieve_extend.c ****     for (bitshift_t pattern_size = (bitshift_t)size; pattern_size <= WORD_SIZE_bitshift; pattern_si
 206              		.loc 1 508 103 is_stmt 0 view .LVU38
 207 0077 4A8D0CB5 		lea	rcx, 0[0+r14*4]	# pattern_size,
 207      00000000 
 208              	# sieve_extend.c:509:         pattern |= (pattern << pattern_size);
 209              		.loc 1 509 29 view .LVU39
GAS LISTING /tmp/ccH5HMHD.s 			page 14


 210 007f C4C2F9F7 		shlx	rdx, r8, rax	# _23, pattern, pattern_size
 210      D0
 211              	# sieve_extend.c:509:         pattern |= (pattern << pattern_size);
 212              		.loc 1 509 17 view .LVU40
 213 0084 4909D0   		or	r8, rdx	# pattern, _23
 214              	.LVL7:
 508:sieve_extend.c ****     for (bitshift_t pattern_size = (bitshift_t)size; pattern_size <= WORD_SIZE_bitshift; pattern_si
 215              		.loc 1 508 90 is_stmt 1 view .LVU41
 508:sieve_extend.c ****     for (bitshift_t pattern_size = (bitshift_t)size; pattern_size <= WORD_SIZE_bitshift; pattern_si
 216              		.loc 1 508 54 view .LVU42
 217              	# sieve_extend.c:508:     for (bitshift_t pattern_size = (bitshift_t)size; pattern_size <= WORD_SIZ
 508:sieve_extend.c ****     for (bitshift_t pattern_size = (bitshift_t)size; pattern_size <= WORD_SIZE_bitshift; pattern_si
 218              		.loc 1 508 5 is_stmt 0 view .LVU43
 219 0087 4883F940 		cmp	rcx, 64	# pattern_size,
 220 008b 0F878F00 		ja	.L2	#,
 220      0000
 221              		.loc 1 509 9 is_stmt 1 view .LVU44
 222              	# sieve_extend.c:508:     for (bitshift_t pattern_size = (bitshift_t)size; pattern_size <= WORD_SIZ
 508:sieve_extend.c ****     for (bitshift_t pattern_size = (bitshift_t)size; pattern_size <= WORD_SIZE_bitshift; pattern_si
 223              		.loc 1 508 103 is_stmt 0 view .LVU45
 224 0091 4E8D1CF5 		lea	r11, 0[0+r14*8]	# pattern_size,
 224      00000000 
 225              	# sieve_extend.c:509:         pattern |= (pattern << pattern_size);
 226              		.loc 1 509 29 view .LVU46
 227 0099 C442F1F7 		shlx	r10, r8, rcx	# _23, pattern, pattern_size
 227      D0
 228              	# sieve_extend.c:509:         pattern |= (pattern << pattern_size);
 229              		.loc 1 509 17 view .LVU47
 230 009e 4D09D0   		or	r8, r10	# pattern, _23
 231              	.LVL8:
 508:sieve_extend.c ****     for (bitshift_t pattern_size = (bitshift_t)size; pattern_size <= WORD_SIZE_bitshift; pattern_si
 232              		.loc 1 508 90 is_stmt 1 view .LVU48
 508:sieve_extend.c ****     for (bitshift_t pattern_size = (bitshift_t)size; pattern_size <= WORD_SIZE_bitshift; pattern_si
 233              		.loc 1 508 54 view .LVU49
 234              	# sieve_extend.c:508:     for (bitshift_t pattern_size = (bitshift_t)size; pattern_size <= WORD_SIZ
 508:sieve_extend.c ****     for (bitshift_t pattern_size = (bitshift_t)size; pattern_size <= WORD_SIZE_bitshift; pattern_si
 235              		.loc 1 508 5 is_stmt 0 view .LVU50
 236 00a1 4983FB40 		cmp	r11, 64	# pattern_size,
 237 00a5 7779     		ja	.L2	#,
 238              		.loc 1 509 9 is_stmt 1 view .LVU51
 239              	# sieve_extend.c:508:     for (bitshift_t pattern_size = (bitshift_t)size; pattern_size <= WORD_SIZ
 508:sieve_extend.c ****     for (bitshift_t pattern_size = (bitshift_t)size; pattern_size <= WORD_SIZE_bitshift; pattern_si
 240              		.loc 1 508 103 is_stmt 0 view .LVU52
 241 00a7 4D89F5   		mov	r13, r14	# pattern_size, pattern_size
 242              	# sieve_extend.c:509:         pattern |= (pattern << pattern_size);
 243              		.loc 1 509 29 view .LVU53
 244 00aa C442A1F7 		shlx	r12, r8, r11	# _23, pattern, pattern_size
 244      E0
 245              	# sieve_extend.c:508:     for (bitshift_t pattern_size = (bitshift_t)size; pattern_size <= WORD_SIZ
 508:sieve_extend.c ****     for (bitshift_t pattern_size = (bitshift_t)size; pattern_size <= WORD_SIZE_bitshift; pattern_si
 246              		.loc 1 508 103 view .LVU54
 247 00af 49C1E504 		sal	r13, 4	# pattern_size,
 248              	# sieve_extend.c:509:         pattern |= (pattern << pattern_size);
 249              		.loc 1 509 17 view .LVU55
 250 00b3 4D09E0   		or	r8, r12	# pattern, _23
 251              	.LVL9:
 508:sieve_extend.c ****     for (bitshift_t pattern_size = (bitshift_t)size; pattern_size <= WORD_SIZE_bitshift; pattern_si
GAS LISTING /tmp/ccH5HMHD.s 			page 15


 252              		.loc 1 508 90 is_stmt 1 view .LVU56
 508:sieve_extend.c ****     for (bitshift_t pattern_size = (bitshift_t)size; pattern_size <= WORD_SIZE_bitshift; pattern_si
 253              		.loc 1 508 54 view .LVU57
 254              	# sieve_extend.c:508:     for (bitshift_t pattern_size = (bitshift_t)size; pattern_size <= WORD_SIZ
 508:sieve_extend.c ****     for (bitshift_t pattern_size = (bitshift_t)size; pattern_size <= WORD_SIZE_bitshift; pattern_si
 255              		.loc 1 508 5 is_stmt 0 view .LVU58
 256 00b6 4983FD40 		cmp	r13, 64	# pattern_size,
 257 00ba 7764     		ja	.L2	#,
 258              		.loc 1 509 9 is_stmt 1 view .LVU59
 259              	# sieve_extend.c:508:     for (bitshift_t pattern_size = (bitshift_t)size; pattern_size <= WORD_SIZ
 508:sieve_extend.c ****     for (bitshift_t pattern_size = (bitshift_t)size; pattern_size <= WORD_SIZE_bitshift; pattern_si
 260              		.loc 1 508 103 is_stmt 0 view .LVU60
 261 00bc 4C89F0   		mov	rax, r14	# pattern_size, pattern_size
 262              	# sieve_extend.c:509:         pattern |= (pattern << pattern_size);
 263              		.loc 1 509 29 view .LVU61
 264 00bf C44291F7 		shlx	r15, r8, r13	# _23, pattern, pattern_size
 264      F8
 265              	# sieve_extend.c:508:     for (bitshift_t pattern_size = (bitshift_t)size; pattern_size <= WORD_SIZ
 508:sieve_extend.c ****     for (bitshift_t pattern_size = (bitshift_t)size; pattern_size <= WORD_SIZE_bitshift; pattern_si
 266              		.loc 1 508 103 view .LVU62
 267 00c4 48C1E005 		sal	rax, 5	# pattern_size,
 268              	# sieve_extend.c:509:         pattern |= (pattern << pattern_size);
 269              		.loc 1 509 17 view .LVU63
 270 00c8 4D09F8   		or	r8, r15	# pattern, _23
 271              	.LVL10:
 508:sieve_extend.c ****     for (bitshift_t pattern_size = (bitshift_t)size; pattern_size <= WORD_SIZE_bitshift; pattern_si
 272              		.loc 1 508 90 is_stmt 1 view .LVU64
 508:sieve_extend.c ****     for (bitshift_t pattern_size = (bitshift_t)size; pattern_size <= WORD_SIZE_bitshift; pattern_si
 273              		.loc 1 508 54 view .LVU65
 274              	# sieve_extend.c:508:     for (bitshift_t pattern_size = (bitshift_t)size; pattern_size <= WORD_SIZ
 508:sieve_extend.c ****     for (bitshift_t pattern_size = (bitshift_t)size; pattern_size <= WORD_SIZE_bitshift; pattern_si
 275              		.loc 1 508 5 is_stmt 0 view .LVU66
 276 00cb 4883F840 		cmp	rax, 64	# pattern_size,
 277 00cf 774F     		ja	.L2	#,
 278              		.loc 1 509 9 is_stmt 1 view .LVU67
 279              	# sieve_extend.c:508:     for (bitshift_t pattern_size = (bitshift_t)size; pattern_size <= WORD_SIZ
 508:sieve_extend.c ****     for (bitshift_t pattern_size = (bitshift_t)size; pattern_size <= WORD_SIZE_bitshift; pattern_si
 280              		.loc 1 508 103 is_stmt 0 view .LVU68
 281 00d1 4C89F1   		mov	rcx, r14	# pattern_size, pattern_size
 282              	# sieve_extend.c:509:         pattern |= (pattern << pattern_size);
 283              		.loc 1 509 29 view .LVU69
 284 00d4 C4C2F9F7 		shlx	rdx, r8, rax	# _23, pattern, pattern_size
 284      D0
 285              	# sieve_extend.c:508:     for (bitshift_t pattern_size = (bitshift_t)size; pattern_size <= WORD_SIZ
 508:sieve_extend.c ****     for (bitshift_t pattern_size = (bitshift_t)size; pattern_size <= WORD_SIZE_bitshift; pattern_si
 286              		.loc 1 508 103 view .LVU70
 287 00d9 48C1E106 		sal	rcx, 6	# pattern_size,
 288              	# sieve_extend.c:509:         pattern |= (pattern << pattern_size);
 289              		.loc 1 509 17 view .LVU71
 290 00dd 4909D0   		or	r8, rdx	# pattern, _23
 291              	.LVL11:
 508:sieve_extend.c ****     for (bitshift_t pattern_size = (bitshift_t)size; pattern_size <= WORD_SIZE_bitshift; pattern_si
 292              		.loc 1 508 90 is_stmt 1 view .LVU72
 508:sieve_extend.c ****     for (bitshift_t pattern_size = (bitshift_t)size; pattern_size <= WORD_SIZE_bitshift; pattern_si
 293              		.loc 1 508 54 view .LVU73
 294              	# sieve_extend.c:508:     for (bitshift_t pattern_size = (bitshift_t)size; pattern_size <= WORD_SIZ
 508:sieve_extend.c ****     for (bitshift_t pattern_size = (bitshift_t)size; pattern_size <= WORD_SIZE_bitshift; pattern_si
GAS LISTING /tmp/ccH5HMHD.s 			page 16


 295              		.loc 1 508 5 is_stmt 0 view .LVU74
 296 00e0 4883F940 		cmp	rcx, 64	# pattern_size,
 297 00e4 773A     		ja	.L2	#,
 298              		.loc 1 509 9 is_stmt 1 view .LVU75
 299              	# sieve_extend.c:508:     for (bitshift_t pattern_size = (bitshift_t)size; pattern_size <= WORD_SIZ
 508:sieve_extend.c ****     for (bitshift_t pattern_size = (bitshift_t)size; pattern_size <= WORD_SIZE_bitshift; pattern_si
 300              		.loc 1 508 103 is_stmt 0 view .LVU76
 301 00e6 4D89F3   		mov	r11, r14	# pattern_size, pattern_size
 302              	# sieve_extend.c:509:         pattern |= (pattern << pattern_size);
 303              		.loc 1 509 29 view .LVU77
 304 00e9 C442F1F7 		shlx	r10, r8, rcx	# _23, pattern, pattern_size
 304      D0
 305              	# sieve_extend.c:508:     for (bitshift_t pattern_size = (bitshift_t)size; pattern_size <= WORD_SIZ
 508:sieve_extend.c ****     for (bitshift_t pattern_size = (bitshift_t)size; pattern_size <= WORD_SIZE_bitshift; pattern_si
 306              		.loc 1 508 103 view .LVU78
 307 00ee 49C1E307 		sal	r11, 7	# pattern_size,
 308              	# sieve_extend.c:509:         pattern |= (pattern << pattern_size);
 309              		.loc 1 509 17 view .LVU79
 310 00f2 4D09D0   		or	r8, r10	# pattern, _23
 311              	.LVL12:
 508:sieve_extend.c ****     for (bitshift_t pattern_size = (bitshift_t)size; pattern_size <= WORD_SIZE_bitshift; pattern_si
 312              		.loc 1 508 90 is_stmt 1 view .LVU80
 508:sieve_extend.c ****     for (bitshift_t pattern_size = (bitshift_t)size; pattern_size <= WORD_SIZE_bitshift; pattern_si
 313              		.loc 1 508 54 view .LVU81
 314              	# sieve_extend.c:508:     for (bitshift_t pattern_size = (bitshift_t)size; pattern_size <= WORD_SIZ
 508:sieve_extend.c ****     for (bitshift_t pattern_size = (bitshift_t)size; pattern_size <= WORD_SIZE_bitshift; pattern_si
 315              		.loc 1 508 5 is_stmt 0 view .LVU82
 316 00f5 4983FB40 		cmp	r11, 64	# pattern_size,
 317 00f9 7725     		ja	.L2	#,
 318              		.loc 1 509 9 is_stmt 1 view .LVU83
 319              	# sieve_extend.c:508:     for (bitshift_t pattern_size = (bitshift_t)size; pattern_size <= WORD_SIZ
 508:sieve_extend.c ****     for (bitshift_t pattern_size = (bitshift_t)size; pattern_size <= WORD_SIZE_bitshift; pattern_si
 320              		.loc 1 508 103 is_stmt 0 view .LVU84
 321 00fb 49C1E608 		sal	r14, 8	# pattern_size,
 322              	# sieve_extend.c:509:         pattern |= (pattern << pattern_size);
 323              		.loc 1 509 29 view .LVU85
 324 00ff C442A1F7 		shlx	r12, r8, r11	# _23, pattern, pattern_size
 324      E0
 325              	# sieve_extend.c:509:         pattern |= (pattern << pattern_size);
 326              		.loc 1 509 17 view .LVU86
 327 0104 4D09E0   		or	r8, r12	# pattern, _23
 328              	.LVL13:
 508:sieve_extend.c ****     for (bitshift_t pattern_size = (bitshift_t)size; pattern_size <= WORD_SIZE_bitshift; pattern_si
 329              		.loc 1 508 90 is_stmt 1 view .LVU87
 508:sieve_extend.c ****     for (bitshift_t pattern_size = (bitshift_t)size; pattern_size <= WORD_SIZE_bitshift; pattern_si
 330              		.loc 1 508 54 view .LVU88
 331              	# sieve_extend.c:508:     for (bitshift_t pattern_size = (bitshift_t)size; pattern_size <= WORD_SIZ
 508:sieve_extend.c ****     for (bitshift_t pattern_size = (bitshift_t)size; pattern_size <= WORD_SIZE_bitshift; pattern_si
 332              		.loc 1 508 5 is_stmt 0 view .LVU89
 333 0107 4983FE40 		cmp	r14, 64	# pattern_size,
 334 010b 0F8650FF 		jbe	.L3	#,
 334      FFFF
 335              	.LVL14:
 336 0111 66662E0F 		.p2align 4
 336      1F840000 
 336      0000000F 
 336      1F4000
GAS LISTING /tmp/ccH5HMHD.s 			page 17


 337              		.p2align 3
 338              	.L2:
 508:sieve_extend.c ****     for (bitshift_t pattern_size = (bitshift_t)size; pattern_size <= WORD_SIZE_bitshift; pattern_si
 339              		.loc 1 508 5 view .LVU90
 340              	.LBE315:
 510:sieve_extend.c **** 
 511:sieve_extend.c ****     const counter_t destination_start = source_start + size;
 341              		.loc 1 511 5 is_stmt 1 view .LVU91
 342              	# sieve_extend.c:511:     const counter_t destination_start = source_start + size;
 343              		.loc 1 511 21 is_stmt 0 view .LVU92
 344 0120 4A8D0C0E 		lea	rcx, [rsi+r9]	# destination_start,
 345              	.LVL15:
 512:sieve_extend.c ****     counter_t destination_start_word = wordindex(destination_start);
 346              		.loc 1 512 5 is_stmt 1 view .LVU93
 347              	# sieve_extend.c:513:     counter_t destination_stop_word = wordindex(destination_stop);
 513:sieve_extend.c ****     counter_t destination_stop_word = wordindex(destination_stop);
 348              		.loc 1 513 15 is_stmt 0 view .LVU94
 349 0124 4989DC   		mov	r12, rbx	# destination_stop_word, destination_stop
 350              	# sieve_extend.c:512:     counter_t destination_start_word = wordindex(destination_start);
 512:sieve_extend.c ****     counter_t destination_start_word = wordindex(destination_start);
 351              		.loc 1 512 15 view .LVU95
 352 0127 4989CB   		mov	r11, rcx	# destination_start_word, destination_start
 353 012a F7D3     		not	ebx	# tmp348
 354              	.LVL16:
 512:sieve_extend.c ****     counter_t destination_start_word = wordindex(destination_start);
 355              		.loc 1 512 15 view .LVU96
 356 012c 49C1EB06 		shr	r11, 6	# destination_start_word,
 357              	.LVL17:
 358              		.loc 1 513 5 is_stmt 1 view .LVU97
 359 0130 49C7C5FF 		mov	r13, -1	# tmp350,
 359      FFFFFF
 360              	# sieve_extend.c:513:     counter_t destination_stop_word = wordindex(destination_stop);
 361              		.loc 1 513 15 is_stmt 0 view .LVU98
 362 0137 49C1EC06 		shr	r12, 6	# destination_stop_word,
 363              	.LVL18:
 514:sieve_extend.c ****     if (destination_start_word >= destination_stop_word) {
 364              		.loc 1 514 5 is_stmt 1 view .LVU99
 365 013b 4A8D34DD 		lea	rsi, 0[0+r11*8]	# _116,
 365      00000000 
 366              	.LVL19:
 367              		.loc 1 514 5 is_stmt 0 view .LVU100
 368 0143 4C8D3437 		lea	r14, [rdi+rsi]	# _117,
 369              	# sieve_extend.c:514:     if (destination_start_word >= destination_stop_word) {
 370              		.loc 1 514 8 view .LVU101
 371 0147 4D39E3   		cmp	r11, r12	# destination_start_word, destination_stop_word
 372 014a C4C2F1F7 		shlx	rax, r8, rcx	# _120, pattern, destination_start
 372      C0
 373 014f 4D8B3E   		mov	r15, QWORD PTR [r14]	# pretmp_118, *_117
 374 0152 C4C2E3F7 		shrx	rbx, r13, rbx	# _124, tmp350, tmp348
 374      DD
 375 0157 0F833305 		jnb	.L49	#,
 375      0000
 515:sieve_extend.c ****         bitarray[destination_start_word] |= (pattern << bitindex(destination_start)) & chopmask(des
 516:sieve_extend.c ****         return;
 517:sieve_extend.c ****     }
 518:sieve_extend.c **** 
 519:sieve_extend.c ****     bitarray[destination_start_word] |= (pattern << bitindex(destination_start));
GAS LISTING /tmp/ccH5HMHD.s 			page 18


 376              		.loc 1 519 5 is_stmt 1 view .LVU102
 377              	# sieve_extend.c:519:     bitarray[destination_start_word] |= (pattern << bitindex(destination_star
 378              		.loc 1 519 38 is_stmt 0 view .LVU103
 379 015d 4C09F8   		or	rax, r15	# tmp353, pretmp_118
 380              	# sieve_extend.c:522:     register const bitshift_t pattern_shift = WORD_SIZE_counter % size;
 520:sieve_extend.c **** 
 521:sieve_extend.c ****     // TODO: refactor according to smallstep
 522:sieve_extend.c ****     register const bitshift_t pattern_shift = WORD_SIZE_counter % size;
 381              		.loc 1 522 31 view .LVU104
 382 0160 31D2     		xor	edx, edx	# tmp355
 383              	# sieve_extend.c:519:     bitarray[destination_start_word] |= (pattern << bitindex(destination_star
 519:sieve_extend.c **** 
 384              		.loc 1 519 38 view .LVU105
 385 0162 498906   		mov	QWORD PTR [r14], rax	# *_117, tmp353
 386              		.loc 1 522 5 is_stmt 1 view .LVU106
 387              	# sieve_extend.c:522:     register const bitshift_t pattern_shift = WORD_SIZE_counter % size;
 388              		.loc 1 522 31 is_stmt 0 view .LVU107
 389 0165 41BE4000 		mov	r14d, 64	# tmp354,
 389      0000
 390 016b 4C89F0   		mov	rax, r14	# tmp356, tmp354
 391 016e 488D7437 		lea	rsi, 8[rdi+rsi]	# vectp.140,
 391      08
 392 0173 49F7F1   		div	r9	# size
 393              	.LVL20:
 523:sieve_extend.c ****     register const bitshift_t pattern_size = WORD_SIZE_bitshift - pattern_shift;
 394              		.loc 1 523 5 is_stmt 1 view .LVU108
 524:sieve_extend.c ****     register bitshift_t shift = (WORD_SIZE_bitshift - bitindex_calc(destination_start)) & WORDMASK;
 395              		.loc 1 524 5 view .LVU109
 525:sieve_extend.c ****     register counter_t loop_range = destination_stop_word - destination_start_word;
 396              		.loc 1 525 5 view .LVU110
 397 0176 48C1EE03 		shr	rsi, 3	# tmp363,
 398              	# sieve_extend.c:525:     register counter_t loop_range = destination_stop_word - destination_start
 399              		.loc 1 525 24 is_stmt 0 view .LVU111
 400 017a 4D89E1   		mov	r9, r12	# loop_range, destination_stop_word
 401              	.LVL21:
 402              	# sieve_extend.c:524:     register bitshift_t shift = (WORD_SIZE_bitshift - bitindex_calc(destinati
 524:sieve_extend.c ****     register bitshift_t shift = (WORD_SIZE_bitshift - bitindex_calc(destination_start)) & WORDMASK;
 403              		.loc 1 524 89 view .LVU112
 404 017d 48F7D9   		neg	rcx	# tmp359
 405              	.LVL22:
 406              	# sieve_extend.c:525:     register counter_t loop_range = destination_stop_word - destination_start
 407              		.loc 1 525 24 view .LVU113
 408 0180 4D29D9   		sub	r9, r11	# loop_range, destination_start_word
 409              	.LVL23:
 526:sieve_extend.c ****     destination_start_word++;
 410              		.loc 1 526 5 is_stmt 1 view .LVU114
 411              	# sieve_extend.c:523:     register const bitshift_t pattern_size = WORD_SIZE_bitshift - pattern_shi
 523:sieve_extend.c ****     register bitshift_t shift = (WORD_SIZE_bitshift - bitindex_calc(destination_start)) & WORDMASK;
 412              		.loc 1 523 31 is_stmt 0 view .LVU115
 413 0183 4C89F0   		mov	rax, r14	# tmp354, tmp354
 414 0186 48F7DE   		neg	rsi	# tmp364
 415              	# sieve_extend.c:524:     register bitshift_t shift = (WORD_SIZE_bitshift - bitindex_calc(destinati
 524:sieve_extend.c ****     register counter_t loop_range = destination_stop_word - destination_start_word;
 416              		.loc 1 524 25 view .LVU116
 417 0189 83E13F   		and	ecx, 63	# shift,
 418              	.LVL24:
 524:sieve_extend.c ****     register counter_t loop_range = destination_stop_word - destination_start_word;
GAS LISTING /tmp/ccH5HMHD.s 			page 19


 419              		.loc 1 524 25 view .LVU117
 420 018c 83E603   		and	esi, 3	# prolog_loop_niters.141,
 421              	# sieve_extend.c:526:     destination_start_word++;
 422              		.loc 1 526 27 view .LVU118
 423 018f 4D8D5301 		lea	r10, 1[r11]	# destination_start_word,
 424              	.LVL25:
 527:sieve_extend.c ****     
 528:sieve_extend.c ****     #pragma unroll
 529:sieve_extend.c ****     #pragma ivdep
 530:sieve_extend.c ****     for (counter_t i=0; i<=loop_range; ++i ) {
 425              		.loc 1 530 5 is_stmt 1 view .LVU119
 426              	.LBB316:
 427              		.loc 1 530 10 view .LVU120
 428              		.loc 1 530 25 view .LVU121
 429 0193 4D8D6901 		lea	r13, 1[r9]	# niters.139,
 430 0197 894C24F4 		mov	DWORD PTR -12[rsp], ecx	# %sfp, shift
 431 019b 895424F8 		mov	DWORD PTR -8[rsp], edx	# %sfp, tmp355
 432              	.LBE316:
 433              	# sieve_extend.c:523:     register const bitshift_t pattern_size = WORD_SIZE_bitshift - pattern_shi
 523:sieve_extend.c ****     register bitshift_t shift = (WORD_SIZE_bitshift - bitindex_calc(destination_start)) & WORDMASK;
 434              		.loc 1 523 31 is_stmt 0 view .LVU122
 435 019f 4829D0   		sub	rax, rdx	# tmp354, tmp355
 436              	.LVL26:
 523:sieve_extend.c ****     register bitshift_t shift = (WORD_SIZE_bitshift - bitindex_calc(destination_start)) & WORDMASK;
 437              		.loc 1 523 31 view .LVU123
 438 01a2 894424FC 		mov	DWORD PTR -4[rsp], eax	# %sfp, pattern_size
 439 01a6 4983F90A 		cmp	r9, 10	# loop_range,
 440 01aa 0F860505 		jbe	.L11	#,
 440      0000
 441 01b0 4885F6   		test	rsi, rsi	# prolog_loop_niters.141
 442 01b3 0F84F404 		je	.L12	#,
 442      0000
 443              	.LBB317:
 531:sieve_extend.c ****         bitarray[destination_start_word+i] = (pattern << (pattern_size - ((shift+i*pattern_shift) &
 444              		.loc 1 531 9 is_stmt 1 view .LVU124
 445              	# sieve_extend.c:531:         bitarray[destination_start_word+i] = (pattern << (pattern_size - ((sh
 446              		.loc 1 531 72 is_stmt 0 view .LVU125
 447 01b9 4189C7   		mov	r15d, eax	# tmp365, pattern_size
 448 01bc 4129CF   		sub	r15d, ecx	# tmp365, shift
 449              	# sieve_extend.c:531:         bitarray[destination_start_word+i] = (pattern << (pattern_size - ((sh
 450              		.loc 1 531 55 view .LVU126
 451 01bf C44281F7 		shlx	r14, r8, r15	# tmp366, pattern, tmp365
 451      F0
 452              	# sieve_extend.c:531:         bitarray[destination_start_word+i] = (pattern << (pattern_size - ((sh
 453              		.loc 1 531 127 view .LVU127
 454 01c4 C442F3F7 		shrx	r15, r8, rcx	# tmp367, pattern, shift
 454      F8
 455              	# sieve_extend.c:531:         bitarray[destination_start_word+i] = (pattern << (pattern_size - ((sh
 456              		.loc 1 531 116 view .LVU128
 457 01c9 4D09FE   		or	r14, r15	# tmp368, tmp367
 458 01cc 4E8934D7 		mov	QWORD PTR [rdi+r10*8], r14	# *_317, tmp368
 530:sieve_extend.c ****         bitarray[destination_start_word+i] = (pattern << (pattern_size - ((shift+i*pattern_shift) &
 459              		.loc 1 530 40 is_stmt 1 view .LVU129
 460              	.LVL27:
 530:sieve_extend.c ****         bitarray[destination_start_word+i] = (pattern << (pattern_size - ((shift+i*pattern_shift) &
 461              		.loc 1 530 25 view .LVU130
 462 01d0 4883FE01 		cmp	rsi, 1	# prolog_loop_niters.141,
GAS LISTING /tmp/ccH5HMHD.s 			page 20


 463              	# sieve_extend.c:530:     for (counter_t i=0; i<=loop_range; ++i ) {
 530:sieve_extend.c ****         bitarray[destination_start_word+i] = (pattern << (pattern_size - ((shift+i*pattern_shift) &
 464              		.loc 1 530 40 is_stmt 0 view .LVU131
 465 01d4 41BE0100 		mov	r14d, 1	# i,
 465      0000
 466 01da 7452     		je	.L7	#,
 467              		.loc 1 531 9 is_stmt 1 view .LVU132
 468              	# sieve_extend.c:531:         bitarray[destination_start_word+i] = (pattern << (pattern_size - ((sh
 469              		.loc 1 531 81 is_stmt 0 view .LVU133
 470 01dc 448D3411 		lea	r14d, [rcx+rdx]	# tmp369,
 471              	# sieve_extend.c:531:         bitarray[destination_start_word+i] = (pattern << (pattern_size - ((sh
 472              		.loc 1 531 72 view .LVU134
 473 01e0 4189C7   		mov	r15d, eax	# tmp371, pattern_size
 474              	# sieve_extend.c:531:         bitarray[destination_start_word+i] = (pattern << (pattern_size - ((sh
 475              		.loc 1 531 99 view .LVU135
 476 01e3 4183E63F 		and	r14d, 63	# _328,
 477              	# sieve_extend.c:531:         bitarray[destination_start_word+i] = (pattern << (pattern_size - ((sh
 478              		.loc 1 531 72 view .LVU136
 479 01e7 4529F7   		sub	r15d, r14d	# tmp371, _328
 480              	# sieve_extend.c:531:         bitarray[destination_start_word+i] = (pattern << (pattern_size - ((sh
 481              		.loc 1 531 127 view .LVU137
 482 01ea C4428BF7 		shrx	r14, r8, r14	# tmp373, pattern, _328
 482      F0
 483              	# sieve_extend.c:531:         bitarray[destination_start_word+i] = (pattern << (pattern_size - ((sh
 484              		.loc 1 531 55 view .LVU138
 485 01ef C44281F7 		shlx	r15, r8, r15	# tmp372, pattern, tmp371
 485      F8
 486              	# sieve_extend.c:531:         bitarray[destination_start_word+i] = (pattern << (pattern_size - ((sh
 487              		.loc 1 531 116 view .LVU139
 488 01f4 4D09FE   		or	r14, r15	# tmp374, tmp372
 489 01f7 4E8974DF 		mov	QWORD PTR 16[rdi+r11*8], r14	# *_334, tmp374
 489      10
 530:sieve_extend.c ****         bitarray[destination_start_word+i] = (pattern << (pattern_size - ((shift+i*pattern_shift) &
 490              		.loc 1 530 40 is_stmt 1 view .LVU140
 491              	.LVL28:
 530:sieve_extend.c ****         bitarray[destination_start_word+i] = (pattern << (pattern_size - ((shift+i*pattern_shift) &
 492              		.loc 1 530 25 view .LVU141
 493 01fc 4883FE03 		cmp	rsi, 3	# prolog_loop_niters.141,
 494              	# sieve_extend.c:530:     for (counter_t i=0; i<=loop_range; ++i ) {
 530:sieve_extend.c ****         bitarray[destination_start_word+i] = (pattern << (pattern_size - ((shift+i*pattern_shift) &
 495              		.loc 1 530 40 is_stmt 0 view .LVU142
 496 0200 41BE0200 		mov	r14d, 2	# i,
 496      0000
 497 0206 7526     		jne	.L7	#,
 498              		.loc 1 531 9 is_stmt 1 view .LVU143
 499              	# sieve_extend.c:531:         bitarray[destination_start_word+i] = (pattern << (pattern_size - ((sh
 500              		.loc 1 531 81 is_stmt 0 view .LVU144
 501 0208 448D3451 		lea	r14d, [rcx+rdx*2]	# tmp376,
 502              	# sieve_extend.c:531:         bitarray[destination_start_word+i] = (pattern << (pattern_size - ((sh
 503              		.loc 1 531 72 view .LVU145
 504 020c 4189C7   		mov	r15d, eax	# tmp378, pattern_size
 505              	# sieve_extend.c:531:         bitarray[destination_start_word+i] = (pattern << (pattern_size - ((sh
 506              		.loc 1 531 99 view .LVU146
 507 020f 4183E63F 		and	r14d, 63	# _104,
 508              	# sieve_extend.c:531:         bitarray[destination_start_word+i] = (pattern << (pattern_size - ((sh
 509              		.loc 1 531 72 view .LVU147
 510 0213 4529F7   		sub	r15d, r14d	# tmp378, _104
GAS LISTING /tmp/ccH5HMHD.s 			page 21


 511              	# sieve_extend.c:531:         bitarray[destination_start_word+i] = (pattern << (pattern_size - ((sh
 512              		.loc 1 531 127 view .LVU148
 513 0216 C4428BF7 		shrx	r14, r8, r14	# tmp380, pattern, _104
 513      F0
 514              	# sieve_extend.c:531:         bitarray[destination_start_word+i] = (pattern << (pattern_size - ((sh
 515              		.loc 1 531 55 view .LVU149
 516 021b C44281F7 		shlx	r15, r8, r15	# tmp379, pattern, tmp378
 516      F8
 517              	# sieve_extend.c:531:         bitarray[destination_start_word+i] = (pattern << (pattern_size - ((sh
 518              		.loc 1 531 116 view .LVU150
 519 0220 4D09FE   		or	r14, r15	# tmp381, tmp379
 520 0223 4E8974DF 		mov	QWORD PTR 24[rdi+r11*8], r14	# *_94, tmp381
 520      18
 530:sieve_extend.c ****         bitarray[destination_start_word+i] = (pattern << (pattern_size - ((shift+i*pattern_shift) &
 521              		.loc 1 530 40 is_stmt 1 view .LVU151
 522              	.LVL29:
 530:sieve_extend.c ****         bitarray[destination_start_word+i] = (pattern << (pattern_size - ((shift+i*pattern_shift) &
 523              		.loc 1 530 25 view .LVU152
 524              	# sieve_extend.c:530:     for (counter_t i=0; i<=loop_range; ++i ) {
 530:sieve_extend.c ****         bitarray[destination_start_word+i] = (pattern << (pattern_size - ((shift+i*pattern_shift) &
 525              		.loc 1 530 40 is_stmt 0 view .LVU153
 526 0228 41BE0300 		mov	r14d, 3	# i,
 526      0000
 527              	.LVL30:
 528              	.L7:
 530:sieve_extend.c ****         bitarray[destination_start_word+i] = (pattern << (pattern_size - ((shift+i*pattern_shift) &
 529              		.loc 1 530 40 view .LVU154
 530 022e 4929F5   		sub	r13, rsi	# niters.142, prolog_loop_niters.141
 531 0231 4C01D6   		add	rsi, r10	# tmp388, destination_start_word
 532 0234 4D89EB   		mov	r11, r13	# bnd.143, niters.142
 533 0237 C4C1F96E 		vmovq	xmm3, r14	# i, i
 533      DE
 534 023c 49C1EB03 		shr	r11, 3	# bnd.143,
 535 0240 488D34F7 		lea	rsi, [rdi+rsi*8]	# ivtmp.161,
 536 0244 49C1E306 		sal	r11, 6	# tmp391,
 537 0248 C4627D59 		vpbroadcastq	ymm9, xmm3	# tmp382, i
 537      CB
 538 024d C4C1F96E 		vmovq	xmm4, r8	# pattern, pattern
 538      E0
 539 0252 4D8D3C33 		lea	r15, [r11+rsi]	# _344,
 540 0256 4183E340 		and	r11d, 64	# tmp391,
 541 025a C535D435 		vpaddq	ymm14, ymm9, YMMWORD PTR .LC0[rip]	# vect_vec_iv_.146, tmp382,
 541      00000000 
 542 0262 C4E27D58 		vpbroadcastd	ymm6, DWORD PTR -8[rsp]	# vect_cst__146, %sfp
 542      7424F8
 543 0269 C4E27D59 		vpbroadcastq	ymm2, xmm4	# vect_cst__156, pattern
 543      D4
 544 026e C4E27D58 		vpbroadcastd	ymm5, DWORD PTR -12[rsp]	# vect_cst__148, %sfp
 544      6C24F4
 545 0275 C4627D58 		vpbroadcastd	ymm12, DWORD PTR -4[rsp]	# vect_cst__152, %sfp
 545      6424FC
 546 027c C57D6F05 		vmovdqa	ymm8, YMMWORD PTR .LC1[rip]	# tmp496,
 546      00000000 
 547 0284 C5FD6F3D 		vmovdqa	ymm7, YMMWORD PTR .LC2[rip]	# tmp497,
 547      00000000 
 548 028c C57D6F2D 		vmovdqa	ymm13, YMMWORD PTR .LC3[rip]	# tmp498,
 548      00000000 
GAS LISTING /tmp/ccH5HMHD.s 			page 22


 549 0294 0F849600 		je	.L9	#,
 549      0000
 550              	.LVL31:
 530:sieve_extend.c ****         bitarray[destination_start_word+i] = (pattern << (pattern_size - ((shift+i*pattern_shift) &
 551              		.loc 1 530 40 view .LVU155
 552 029a C57D7FF1 		vmovdqa	ymm1, ymm14	# vect_vec_iv_.146, vect_vec_iv_.146
 553 029e 4883C640 		add	rsi, 64	# ivtmp.161,
 554              	# sieve_extend.c:531:         bitarray[destination_start_word+i] = (pattern << (pattern_size - ((sh
 555              		.loc 1 531 81 view .LVU156
 556 02a2 C575D4D7 		vpaddq	ymm10, ymm1, ymm7	# vect_vec_iv_.146, vect_vec_iv_.146, tmp497
 557 02a6 C4410DD4 		vpaddq	ymm14, ymm14, ymm8	# vect_vec_iv_.146, vect_vec_iv_.146, tmp496
 557      F0
 558              		.loc 1 531 9 is_stmt 1 view .LVU157
 559              	# sieve_extend.c:531:         bitarray[destination_start_word+i] = (pattern << (pattern_size - ((sh
 560              		.loc 1 531 81 is_stmt 0 view .LVU158
 561 02ab C4C37546 		vperm2i128	ymm0, ymm1, ymm10, 32	# tmp538, vect_vec_iv_.146, vect_vec_iv_.146,
 561      C220
 562 02b1 C4437546 		vperm2i128	ymm11, ymm1, ymm10, 49	# tmp539, vect_vec_iv_.146, vect_vec_iv_.146,
 562      DA31
 563 02b7 C57D70F8 		vpshufd	ymm15, ymm0, 216	# tmp540, tmp538,
 563      D8
 564 02bc C4C17D70 		vpshufd	ymm3, ymm11, 216	# tmp541, tmp539,
 564      DBD8
 565 02c2 C5056CCB 		vpunpcklqdq	ymm9, ymm15, ymm3	# tmp542, tmp540, tmp541
 566 02c6 C4C24D40 		vpmulld	ymm4, ymm6, ymm9	# vect__45.148, vect_cst__146, tmp542
 566      E1
 567              	.LVL32:
 568              		.loc 1 531 81 view .LVU159
 569 02cb C5DDFECD 		vpaddd	ymm1, ymm4, ymm5	# vect__47.149, vect__45.148, vect_cst__148
 570              	# sieve_extend.c:531:         bitarray[destination_start_word+i] = (pattern << (pattern_size - ((sh
 571              		.loc 1 531 99 view .LVU160
 572 02cf C4C175DB 		vpand	ymm0, ymm1, ymm13	# vect__48.150, vect__47.149, tmp498
 572      C5
 573              	# sieve_extend.c:531:         bitarray[destination_start_word+i] = (pattern << (pattern_size - ((sh
 574              		.loc 1 531 72 view .LVU161
 575 02d4 C51DFAF8 		vpsubd	ymm15, ymm12, ymm0	# vect__49.151, vect_cst__152, vect__48.150
 576              	# sieve_extend.c:531:         bitarray[destination_start_word+i] = (pattern << (pattern_size - ((sh
 577              		.loc 1 531 116 view .LVU162
 578 02d8 C4627D35 		vpmovzxdq	ymm11, xmm0	#, vect__48.150
 578      D8
 579 02dd C4427D35 		vpmovzxdq	ymm10, xmm15	#, vect__49.151
 579      D7
 580 02e2 C442ED45 		vpsrlvq	ymm9, ymm2, ymm11	# vect_patt_136.155, vect_cst__156, vect_patt_137.154
 580      CB
 581 02e7 C4C2ED47 		vpsllvq	ymm3, ymm2, ymm10	# vect_patt_138.153, vect_cst__156, vect_patt_139.152
 581      DA
 582 02ec C4637D39 		vextracti128	xmm1, ymm15, 0x1	# tmp554, vect__49.151
 582      F901
 583 02f2 C4C165EB 		vpor	ymm4, ymm3, ymm9	# vect__55.156, vect_patt_138.153, vect_patt_136.155
 583      E1
 584 02f7 C4E37D39 		vextracti128	xmm0, ymm0, 0x1	# tmp557, vect__48.150
 584      C001
 585 02fd C4627D35 		vpmovzxdq	ymm15, xmm1	# vect_patt_139.152, tmp554
 585      F9
 586 0302 C4E27D35 		vpmovzxdq	ymm3, xmm0	# vect_patt_137.154, tmp557
 586      D8
 587 0307 C442ED47 		vpsllvq	ymm10, ymm2, ymm15	# vect_patt_138.153, vect_cst__156, vect_patt_139.152
GAS LISTING /tmp/ccH5HMHD.s 			page 23


 587      D7
 588 030c C462ED45 		vpsrlvq	ymm11, ymm2, ymm3	# vect_patt_136.155, vect_cst__156, vect_patt_137.154
 588      DB
 589              	# sieve_extend.c:531:         bitarray[destination_start_word+i] = (pattern << (pattern_size - ((sh
 590              		.loc 1 531 44 view .LVU163
 591 0311 C5FD7F66 		vmovdqa	YMMWORD PTR -64[rsi], ymm4	# MEM[base: _341, offset: 0B], vect__55.156
 591      C0
 592              	# sieve_extend.c:531:         bitarray[destination_start_word+i] = (pattern << (pattern_size - ((sh
 593              		.loc 1 531 116 view .LVU164
 594 0316 C4412DEB 		vpor	ymm9, ymm10, ymm11	# vect__55.156, vect_patt_138.153, vect_patt_136.155
 594      CB
 595              	# sieve_extend.c:531:         bitarray[destination_start_word+i] = (pattern << (pattern_size - ((sh
 596              		.loc 1 531 44 view .LVU165
 597 031b C57D7F4E 		vmovdqa	YMMWORD PTR -32[rsi], ymm9	# MEM[base: _341, offset: 32B], vect__55.156
 597      E0
 530:sieve_extend.c ****         bitarray[destination_start_word+i] = (pattern << (pattern_size - ((shift+i*pattern_shift) &
 598              		.loc 1 530 40 is_stmt 1 view .LVU166
 530:sieve_extend.c ****         bitarray[destination_start_word+i] = (pattern << (pattern_size - ((shift+i*pattern_shift) &
 599              		.loc 1 530 25 view .LVU167
 600 0320 4C39FE   		cmp	rsi, r15	# ivtmp.161, _344
 601 0323 0F841201 		je	.L37	#,
 601      0000
 602 0329 0F1F8000 		.p2align 4
 602      000000
 603              		.p2align 3
 604              	.L9:
 605              	# sieve_extend.c:531:         bitarray[destination_start_word+i] = (pattern << (pattern_size - ((sh
 606              		.loc 1 531 81 is_stmt 0 discriminator 3 view .LVU168
 607 0330 C58DD4CF 		vpaddq	ymm1, ymm14, ymm7	# vect_vec_iv_.146, vect_vec_iv_.146, tmp497
 608 0334 C4C10DD4 		vpaddq	ymm4, ymm14, ymm8	# vect_vec_iv_.146, vect_vec_iv_.146, tmp496
 608      E0
 609              		.loc 1 531 9 is_stmt 1 discriminator 3 view .LVU169
 610              	# sieve_extend.c:531:         bitarray[destination_start_word+i] = (pattern << (pattern_size - ((sh
 611              		.loc 1 531 81 is_stmt 0 discriminator 3 view .LVU170
 612 0339 C4630D46 		vperm2i128	ymm15, ymm14, ymm1, 32	# tmp398, vect_vec_iv_.146, vect_vec_iv_.146,
 612      F920
 613 033f C4630D46 		vperm2i128	ymm14, ymm14, ymm1, 49	# tmp399, vect_vec_iv_.146, vect_vec_iv_.146,
 613      F131
 614 0345 C4417D70 		vpshufd	ymm10, ymm15, 216	# tmp396, tmp398,
 614      D7D8
 615 034b 4883EE80 		sub	rsi, -128	# ivtmp.161,
 616 034f C4C17D70 		vpshufd	ymm0, ymm14, 216	# tmp397, tmp399,
 616      C6D8
 617 0355 C5AD6CD8 		vpunpcklqdq	ymm3, ymm10, ymm0	# tmp400, tmp396, tmp397
 618 0359 C4624D40 		vpmulld	ymm11, ymm6, ymm3	# vect__45.148, vect_cst__146, tmp400
 618      DB
 619 035e C525FECD 		vpaddd	ymm9, ymm11, ymm5	# vect__47.149, vect__45.148, vect_cst__148
 620              	# sieve_extend.c:531:         bitarray[destination_start_word+i] = (pattern << (pattern_size - ((sh
 621              		.loc 1 531 99 discriminator 3 view .LVU171
 622 0362 C44135DB 		vpand	ymm15, ymm9, ymm13	# vect__48.150, vect__47.149, tmp498
 622      FD
 623              	# sieve_extend.c:531:         bitarray[destination_start_word+i] = (pattern << (pattern_size - ((sh
 624              		.loc 1 531 72 discriminator 3 view .LVU172
 625 0367 C4C11DFA 		vpsubd	ymm1, ymm12, ymm15	# vect__49.151, vect_cst__152, vect__48.150
 625      CF
 626              	# sieve_extend.c:531:         bitarray[destination_start_word+i] = (pattern << (pattern_size - ((sh
 627              		.loc 1 531 116 discriminator 3 view .LVU173
GAS LISTING /tmp/ccH5HMHD.s 			page 24


 628 036c C4C27D35 		vpmovzxdq	ymm0, xmm15	#, vect__48.150
 628      C7
 629 0371 C4627D35 		vpmovzxdq	ymm14, xmm1	#, vect__49.151
 629      F1
 630 0376 C4E2ED45 		vpsrlvq	ymm3, ymm2, ymm0	# vect_patt_136.155, vect_cst__156, vect_patt_137.154
 630      D8
 631 037b C442ED47 		vpsllvq	ymm10, ymm2, ymm14	# vect_patt_138.153, vect_cst__156, vect_patt_139.152
 631      D6
 632 0380 C4C37D39 		vextracti128	xmm9, ymm1, 0x1	# tmp412, vect__49.151
 632      C901
 633 0386 C52DEBDB 		vpor	ymm11, ymm10, ymm3	# vect__55.156, vect_patt_138.153, vect_patt_136.155
 634 038a C4437D39 		vextracti128	xmm15, ymm15, 0x1	# tmp415, vect__48.150
 634      FF01
 635 0390 C4C27D35 		vpmovzxdq	ymm1, xmm9	# vect_patt_139.152, tmp412
 635      C9
 636 0395 C4427D35 		vpmovzxdq	ymm10, xmm15	# vect_patt_137.154, tmp415
 636      D7
 637 039a C462ED47 		vpsllvq	ymm14, ymm2, ymm1	# vect_patt_138.153, vect_cst__156, vect_patt_139.152
 637      F1
 638 039f C4C2ED45 		vpsrlvq	ymm0, ymm2, ymm10	# vect_patt_136.155, vect_cst__156, vect_patt_137.154
 638      C2
 639              	# sieve_extend.c:531:         bitarray[destination_start_word+i] = (pattern << (pattern_size - ((sh
 640              		.loc 1 531 44 discriminator 3 view .LVU174
 641 03a4 C57D7F5E 		vmovdqa	YMMWORD PTR -128[rsi], ymm11	# MEM[base: _341, offset: 0B], vect__55.156
 641      80
 642              	# sieve_extend.c:531:         bitarray[destination_start_word+i] = (pattern << (pattern_size - ((sh
 643              		.loc 1 531 81 discriminator 3 view .LVU175
 644 03a9 C55DD4DF 		vpaddq	ymm11, ymm4, ymm7	# vect_vec_iv_.146, vect_vec_iv_.146, tmp497
 645              	# sieve_extend.c:531:         bitarray[destination_start_word+i] = (pattern << (pattern_size - ((sh
 646              		.loc 1 531 116 discriminator 3 view .LVU176
 647 03ad C58DEBD8 		vpor	ymm3, ymm14, ymm0	# vect__55.156, vect_patt_138.153, vect_patt_136.155
 648              	# sieve_extend.c:531:         bitarray[destination_start_word+i] = (pattern << (pattern_size - ((sh
 649              		.loc 1 531 81 discriminator 3 view .LVU177
 650 03b1 C4435D46 		vperm2i128	ymm9, ymm4, ymm11, 32	# tmp513, vect_vec_iv_.146, vect_vec_iv_.146,
 650      CB20
 651 03b7 C4C17D70 		vpshufd	ymm1, ymm9, 216	# tmp515, tmp513,
 651      C9D8
 652 03bd C4415DD4 		vpaddq	ymm14, ymm4, ymm8	# vect_vec_iv_.146, vect_vec_iv_.146, tmp496
 652      F0
 653              	# sieve_extend.c:531:         bitarray[destination_start_word+i] = (pattern << (pattern_size - ((sh
 654              		.loc 1 531 44 discriminator 3 view .LVU178
 655 03c2 C5FD7F5E 		vmovdqa	YMMWORD PTR -96[rsi], ymm3	# MEM[base: _341, offset: 32B], vect__55.156
 655      A0
 530:sieve_extend.c ****         bitarray[destination_start_word+i] = (pattern << (pattern_size - ((shift+i*pattern_shift) &
 656              		.loc 1 530 40 is_stmt 1 discriminator 3 view .LVU179
 530:sieve_extend.c ****         bitarray[destination_start_word+i] = (pattern << (pattern_size - ((shift+i*pattern_shift) &
 657              		.loc 1 530 25 discriminator 3 view .LVU180
 658              		.loc 1 531 9 discriminator 3 view .LVU181
 659              	# sieve_extend.c:531:         bitarray[destination_start_word+i] = (pattern << (pattern_size - ((sh
 660              		.loc 1 531 81 is_stmt 0 discriminator 3 view .LVU182
 661 03c7 C4C35D46 		vperm2i128	ymm4, ymm4, ymm11, 49	# tmp514, vect_vec_iv_.146, vect_vec_iv_.146,
 661      E331
 662 03cd C57D70FC 		vpshufd	ymm15, ymm4, 216	# tmp516, tmp514,
 662      D8
 663 03d2 C441756C 		vpunpcklqdq	ymm10, ymm1, ymm15	# tmp517, tmp515, tmp516
 663      D7
 664 03d7 C4C24D40 		vpmulld	ymm0, ymm6, ymm10	# vect__45.148, vect_cst__146, tmp517
GAS LISTING /tmp/ccH5HMHD.s 			page 25


 664      C2
 665 03dc C5FDFEDD 		vpaddd	ymm3, ymm0, ymm5	# vect__47.149, vect__45.148, vect_cst__148
 666              	# sieve_extend.c:531:         bitarray[destination_start_word+i] = (pattern << (pattern_size - ((sh
 667              		.loc 1 531 99 discriminator 3 view .LVU183
 668 03e0 C44165DB 		vpand	ymm9, ymm3, ymm13	# vect__48.150, vect__47.149, tmp498
 668      CD
 669              	# sieve_extend.c:531:         bitarray[destination_start_word+i] = (pattern << (pattern_size - ((sh
 670              		.loc 1 531 72 discriminator 3 view .LVU184
 671 03e5 C4C11DFA 		vpsubd	ymm4, ymm12, ymm9	# vect__49.151, vect_cst__152, vect__48.150
 671      E1
 672              	# sieve_extend.c:531:         bitarray[destination_start_word+i] = (pattern << (pattern_size - ((sh
 673              		.loc 1 531 116 discriminator 3 view .LVU185
 674 03ea C4427D35 		vpmovzxdq	ymm15, xmm9	#, vect__48.150
 674      F9
 675 03ef C4627D35 		vpmovzxdq	ymm11, xmm4	#, vect__49.151
 675      DC
 676 03f4 C442ED45 		vpsrlvq	ymm10, ymm2, ymm15	# vect_patt_136.155, vect_cst__156, vect_patt_137.154
 676      D7
 677 03f9 C4C2ED47 		vpsllvq	ymm1, ymm2, ymm11	# vect_patt_138.153, vect_cst__156, vect_patt_139.152
 677      CB
 678 03fe C4E37D39 		vextracti128	xmm3, ymm4, 0x1	# tmp529, vect__49.151
 678      E301
 679 0404 C4C175EB 		vpor	ymm0, ymm1, ymm10	# vect__55.156, vect_patt_138.153, vect_patt_136.155
 679      C2
 680 0409 C4437D39 		vextracti128	xmm9, ymm9, 0x1	# tmp532, vect__48.150
 680      C901
 681 040f C4E27D35 		vpmovzxdq	ymm4, xmm3	# vect_patt_139.152, tmp529
 681      E3
 682 0414 C4C27D35 		vpmovzxdq	ymm1, xmm9	# vect_patt_137.154, tmp532
 682      C9
 683 0419 C462ED47 		vpsllvq	ymm11, ymm2, ymm4	# vect_patt_138.153, vect_cst__156, vect_patt_139.152
 683      DC
 684 041e C462ED45 		vpsrlvq	ymm15, ymm2, ymm1	# vect_patt_136.155, vect_cst__156, vect_patt_137.154
 684      F9
 685              	# sieve_extend.c:531:         bitarray[destination_start_word+i] = (pattern << (pattern_size - ((sh
 686              		.loc 1 531 44 discriminator 3 view .LVU186
 687 0423 C5FD7F46 		vmovdqa	YMMWORD PTR -64[rsi], ymm0	# MEM[base: _341, offset: 0B], vect__55.156
 687      C0
 688              	# sieve_extend.c:531:         bitarray[destination_start_word+i] = (pattern << (pattern_size - ((sh
 689              		.loc 1 531 116 discriminator 3 view .LVU187
 690 0428 C44125EB 		vpor	ymm10, ymm11, ymm15	# vect__55.156, vect_patt_138.153, vect_patt_136.155
 690      D7
 691              	# sieve_extend.c:531:         bitarray[destination_start_word+i] = (pattern << (pattern_size - ((sh
 692              		.loc 1 531 44 discriminator 3 view .LVU188
 693 042d C57D7F56 		vmovdqa	YMMWORD PTR -32[rsi], ymm10	# MEM[base: _341, offset: 32B], vect__55.156
 693      E0
 530:sieve_extend.c ****         bitarray[destination_start_word+i] = (pattern << (pattern_size - ((shift+i*pattern_shift) &
 694              		.loc 1 530 40 is_stmt 1 discriminator 3 view .LVU189
 530:sieve_extend.c ****         bitarray[destination_start_word+i] = (pattern << (pattern_size - ((shift+i*pattern_shift) &
 695              		.loc 1 530 25 discriminator 3 view .LVU190
 696 0432 4C39FE   		cmp	rsi, r15	# ivtmp.161, _344
 697 0435 0F85F5FE 		jne	.L9	#,
 697      FFFF
 698              	.L37:
 699 043b 4C89EE   		mov	rsi, r13	# niters_vector_mult_vf.144, niters.142
 700 043e 4883E6F8 		and	rsi, -8	# niters_vector_mult_vf.144,
 701 0442 4901F6   		add	r14, rsi	# tmp.145, niters_vector_mult_vf.144
GAS LISTING /tmp/ccH5HMHD.s 			page 26


 702 0445 4939F5   		cmp	r13, rsi	# niters.142, niters_vector_mult_vf.144
 703 0448 0F845A02 		je	.L50	#,
 703      0000
 704 044e C5F877   		vzeroupper
 705              	.L6:
 706              	.LVL33:
 707              		.loc 1 531 9 view .LVU191
 708              	# sieve_extend.c:531:         bitarray[destination_start_word+i] = (pattern << (pattern_size - ((sh
 709              		.loc 1 531 81 is_stmt 0 view .LVU192
 710 0451 4189D7   		mov	r15d, edx	# tmp418, tmp355
 711              	# sieve_extend.c:531:         bitarray[destination_start_word+i] = (pattern << (pattern_size - ((sh
 712              		.loc 1 531 72 view .LVU193
 713 0454 4189C5   		mov	r13d, eax	# tmp421, pattern_size
 714              	# sieve_extend.c:531:         bitarray[destination_start_word+i] = (pattern << (pattern_size - ((sh
 715              		.loc 1 531 81 view .LVU194
 716 0457 450FAFFE 		imul	r15d, r14d	# tmp418, tmp.145
 717              	# sieve_extend.c:531:         bitarray[destination_start_word+i] = (pattern << (pattern_size - ((sh
 718              		.loc 1 531 17 view .LVU195
 719 045b 4F8D1C16 		lea	r11, [r14+r10]	# tmp420,
 720              	# sieve_extend.c:531:         bitarray[destination_start_word+i] = (pattern << (pattern_size - ((sh
 721              		.loc 1 531 81 view .LVU196
 722 045f 4101CF   		add	r15d, ecx	# tmp419, shift
 723              	# sieve_extend.c:531:         bitarray[destination_start_word+i] = (pattern << (pattern_size - ((sh
 724              		.loc 1 531 99 view .LVU197
 725 0462 4183E73F 		and	r15d, 63	# _49,
 726              	# sieve_extend.c:531:         bitarray[destination_start_word+i] = (pattern << (pattern_size - ((sh
 727              		.loc 1 531 127 view .LVU198
 728 0466 C4C283F7 		shrx	rsi, r8, r15	# tmp423, pattern, _49
 728      F0
 729              	# sieve_extend.c:531:         bitarray[destination_start_word+i] = (pattern << (pattern_size - ((sh
 730              		.loc 1 531 72 view .LVU199
 731 046b 4529FD   		sub	r13d, r15d	# tmp421, _49
 732              	# sieve_extend.c:530:     for (counter_t i=0; i<=loop_range; ++i ) {
 530:sieve_extend.c ****         bitarray[destination_start_word+i] = (pattern << (pattern_size - ((shift+i*pattern_shift) &
 733              		.loc 1 530 40 view .LVU200
 734 046e 4D8D7E01 		lea	r15, 1[r14]	# i,
 735              	# sieve_extend.c:531:         bitarray[destination_start_word+i] = (pattern << (pattern_size - ((sh
 736              		.loc 1 531 55 view .LVU201
 737 0472 C44291F7 		shlx	r13, r8, r13	# tmp422, pattern, tmp421
 737      E8
 738              	# sieve_extend.c:531:         bitarray[destination_start_word+i] = (pattern << (pattern_size - ((sh
 739              		.loc 1 531 116 view .LVU202
 740 0477 4C09EE   		or	rsi, r13	# tmp424, tmp422
 741 047a 4A8934DF 		mov	QWORD PTR [rdi+r11*8], rsi	# *_55, tmp424
 530:sieve_extend.c ****         bitarray[destination_start_word+i] = (pattern << (pattern_size - ((shift+i*pattern_shift) &
 742              		.loc 1 530 40 is_stmt 1 view .LVU203
 743              	.LVL34:
 530:sieve_extend.c ****         bitarray[destination_start_word+i] = (pattern << (pattern_size - ((shift+i*pattern_shift) &
 744              		.loc 1 530 25 view .LVU204
 745              	# sieve_extend.c:530:     for (counter_t i=0; i<=loop_range; ++i ) {
 530:sieve_extend.c ****         bitarray[destination_start_word+i] = (pattern << (pattern_size - ((shift+i*pattern_shift) &
 746              		.loc 1 530 5 is_stmt 0 view .LVU205
 747 047e 4D39CF   		cmp	r15, r9	# i, loop_range
 748 0481 0F87F101 		ja	.L10	#,
 748      0000
 749              		.loc 1 531 9 is_stmt 1 view .LVU206
 750              	# sieve_extend.c:531:         bitarray[destination_start_word+i] = (pattern << (pattern_size - ((sh
GAS LISTING /tmp/ccH5HMHD.s 			page 27


 751              		.loc 1 531 81 is_stmt 0 view .LVU207
 752 0487 4189D3   		mov	r11d, edx	# tmp425, tmp355
 753              	# sieve_extend.c:531:         bitarray[destination_start_word+i] = (pattern << (pattern_size - ((sh
 754              		.loc 1 531 72 view .LVU208
 755 048a 4189C5   		mov	r13d, eax	# tmp428, pattern_size
 756              	# sieve_extend.c:531:         bitarray[destination_start_word+i] = (pattern << (pattern_size - ((sh
 757              		.loc 1 531 81 view .LVU209
 758 048d 450FAFDF 		imul	r11d, r15d	# tmp425, i
 759              	# sieve_extend.c:531:         bitarray[destination_start_word+i] = (pattern << (pattern_size - ((sh
 760              		.loc 1 531 17 view .LVU210
 761 0491 4D01D7   		add	r15, r10	# tmp427, destination_start_word
 762              	.LVL35:
 763              	# sieve_extend.c:531:         bitarray[destination_start_word+i] = (pattern << (pattern_size - ((sh
 764              		.loc 1 531 81 view .LVU211
 765 0494 4101CB   		add	r11d, ecx	# tmp426, shift
 766              	# sieve_extend.c:531:         bitarray[destination_start_word+i] = (pattern << (pattern_size - ((sh
 767              		.loc 1 531 99 view .LVU212
 768 0497 4183E33F 		and	r11d, 63	# _83,
 769              	# sieve_extend.c:531:         bitarray[destination_start_word+i] = (pattern << (pattern_size - ((sh
 770              		.loc 1 531 72 view .LVU213
 771 049b 4529DD   		sub	r13d, r11d	# tmp428, _83
 772              	# sieve_extend.c:531:         bitarray[destination_start_word+i] = (pattern << (pattern_size - ((sh
 773              		.loc 1 531 127 view .LVU214
 774 049e C442A3F7 		shrx	r11, r8, r11	# tmp430, pattern, _83
 774      D8
 775              	# sieve_extend.c:531:         bitarray[destination_start_word+i] = (pattern << (pattern_size - ((sh
 776              		.loc 1 531 55 view .LVU215
 777 04a3 C4C291F7 		shlx	rsi, r8, r13	# tmp429, pattern, tmp428
 777      F0
 778              	# sieve_extend.c:531:         bitarray[destination_start_word+i] = (pattern << (pattern_size - ((sh
 779              		.loc 1 531 116 view .LVU216
 780 04a8 4C09DE   		or	rsi, r11	# tmp431, tmp430
 781 04ab 4A8934FF 		mov	QWORD PTR [rdi+r15*8], rsi	# *_181, tmp431
 530:sieve_extend.c ****         bitarray[destination_start_word+i] = (pattern << (pattern_size - ((shift+i*pattern_shift) &
 782              		.loc 1 530 40 is_stmt 1 view .LVU217
 783 04af 4D8D7E02 		lea	r15, 2[r14]	# i,
 784              	.LVL36:
 530:sieve_extend.c ****         bitarray[destination_start_word+i] = (pattern << (pattern_size - ((shift+i*pattern_shift) &
 785              		.loc 1 530 25 view .LVU218
 786              	# sieve_extend.c:530:     for (counter_t i=0; i<=loop_range; ++i ) {
 530:sieve_extend.c ****         bitarray[destination_start_word+i] = (pattern << (pattern_size - ((shift+i*pattern_shift) &
 787              		.loc 1 530 5 is_stmt 0 view .LVU219
 788 04b3 4D39F9   		cmp	r9, r15	# loop_range, i
 789 04b6 0F82BC01 		jb	.L10	#,
 789      0000
 790              		.loc 1 531 9 is_stmt 1 view .LVU220
 791              	# sieve_extend.c:531:         bitarray[destination_start_word+i] = (pattern << (pattern_size - ((sh
 792              		.loc 1 531 81 is_stmt 0 view .LVU221
 793 04bc 89D6     		mov	esi, edx	# tmp432, tmp355
 794              	# sieve_extend.c:531:         bitarray[destination_start_word+i] = (pattern << (pattern_size - ((sh
 795              		.loc 1 531 72 view .LVU222
 796 04be 4189C5   		mov	r13d, eax	# tmp435, pattern_size
 797              	# sieve_extend.c:531:         bitarray[destination_start_word+i] = (pattern << (pattern_size - ((sh
 798              		.loc 1 531 81 view .LVU223
 799 04c1 410FAFF7 		imul	esi, r15d	# tmp432, i
 800              	# sieve_extend.c:531:         bitarray[destination_start_word+i] = (pattern << (pattern_size - ((sh
 801              		.loc 1 531 17 view .LVU224
GAS LISTING /tmp/ccH5HMHD.s 			page 28


 802 04c5 4D01D7   		add	r15, r10	# tmp434, destination_start_word
 803              	.LVL37:
 804              	# sieve_extend.c:531:         bitarray[destination_start_word+i] = (pattern << (pattern_size - ((sh
 805              		.loc 1 531 81 view .LVU225
 806 04c8 01CE     		add	esi, ecx	# tmp433, shift
 807              	# sieve_extend.c:531:         bitarray[destination_start_word+i] = (pattern << (pattern_size - ((sh
 808              		.loc 1 531 99 view .LVU226
 809 04ca 83E63F   		and	esi, 63	# _190,
 810              	# sieve_extend.c:531:         bitarray[destination_start_word+i] = (pattern << (pattern_size - ((sh
 811              		.loc 1 531 72 view .LVU227
 812 04cd 4129F5   		sub	r13d, esi	# tmp435, _190
 813              	# sieve_extend.c:531:         bitarray[destination_start_word+i] = (pattern << (pattern_size - ((sh
 814              		.loc 1 531 127 view .LVU228
 815 04d0 C4C2CBF7 		shrx	rsi, r8, rsi	# tmp437, pattern, _190
 815      F0
 816              	# sieve_extend.c:531:         bitarray[destination_start_word+i] = (pattern << (pattern_size - ((sh
 817              		.loc 1 531 55 view .LVU229
 818 04d5 C44291F7 		shlx	r11, r8, r13	# tmp436, pattern, tmp435
 818      D8
 819              	# sieve_extend.c:531:         bitarray[destination_start_word+i] = (pattern << (pattern_size - ((sh
 820              		.loc 1 531 116 view .LVU230
 821 04da 4C09DE   		or	rsi, r11	# tmp438, tmp436
 822 04dd 4A8934FF 		mov	QWORD PTR [rdi+r15*8], rsi	# *_196, tmp438
 530:sieve_extend.c ****         bitarray[destination_start_word+i] = (pattern << (pattern_size - ((shift+i*pattern_shift) &
 823              		.loc 1 530 40 is_stmt 1 view .LVU231
 824 04e1 4D8D7E03 		lea	r15, 3[r14]	# i,
 825              	.LVL38:
 530:sieve_extend.c ****         bitarray[destination_start_word+i] = (pattern << (pattern_size - ((shift+i*pattern_shift) &
 826              		.loc 1 530 25 view .LVU232
 827              	# sieve_extend.c:530:     for (counter_t i=0; i<=loop_range; ++i ) {
 530:sieve_extend.c ****         bitarray[destination_start_word+i] = (pattern << (pattern_size - ((shift+i*pattern_shift) &
 828              		.loc 1 530 5 is_stmt 0 view .LVU233
 829 04e5 4D39F9   		cmp	r9, r15	# loop_range, i
 830 04e8 0F828A01 		jb	.L10	#,
 830      0000
 831              		.loc 1 531 9 is_stmt 1 view .LVU234
 832              	# sieve_extend.c:531:         bitarray[destination_start_word+i] = (pattern << (pattern_size - ((sh
 833              		.loc 1 531 81 is_stmt 0 view .LVU235
 834 04ee 4189D3   		mov	r11d, edx	# tmp439, tmp355
 835              	# sieve_extend.c:531:         bitarray[destination_start_word+i] = (pattern << (pattern_size - ((sh
 836              		.loc 1 531 72 view .LVU236
 837 04f1 4189C5   		mov	r13d, eax	# tmp442, pattern_size
 838              	# sieve_extend.c:531:         bitarray[destination_start_word+i] = (pattern << (pattern_size - ((sh
 839              		.loc 1 531 81 view .LVU237
 840 04f4 450FAFDF 		imul	r11d, r15d	# tmp439, i
 841              	# sieve_extend.c:531:         bitarray[destination_start_word+i] = (pattern << (pattern_size - ((sh
 842              		.loc 1 531 17 view .LVU238
 843 04f8 4D01D7   		add	r15, r10	# tmp441, destination_start_word
 844              	.LVL39:
 845              	# sieve_extend.c:531:         bitarray[destination_start_word+i] = (pattern << (pattern_size - ((sh
 846              		.loc 1 531 81 view .LVU239
 847 04fb 4101CB   		add	r11d, ecx	# tmp440, shift
 848              	# sieve_extend.c:531:         bitarray[destination_start_word+i] = (pattern << (pattern_size - ((sh
 849              		.loc 1 531 99 view .LVU240
 850 04fe 4183E33F 		and	r11d, 63	# _205,
 851              	# sieve_extend.c:531:         bitarray[destination_start_word+i] = (pattern << (pattern_size - ((sh
 852              		.loc 1 531 127 view .LVU241
GAS LISTING /tmp/ccH5HMHD.s 			page 29


 853 0502 C4C2A3F7 		shrx	rsi, r8, r11	# tmp444, pattern, _205
 853      F0
 854              	# sieve_extend.c:531:         bitarray[destination_start_word+i] = (pattern << (pattern_size - ((sh
 855              		.loc 1 531 72 view .LVU242
 856 0507 4529DD   		sub	r13d, r11d	# tmp442, _205
 857              	# sieve_extend.c:531:         bitarray[destination_start_word+i] = (pattern << (pattern_size - ((sh
 858              		.loc 1 531 55 view .LVU243
 859 050a C44291F7 		shlx	r13, r8, r13	# tmp443, pattern, tmp442
 859      E8
 860              	# sieve_extend.c:531:         bitarray[destination_start_word+i] = (pattern << (pattern_size - ((sh
 861              		.loc 1 531 116 view .LVU244
 862 050f 4C09EE   		or	rsi, r13	# tmp445, tmp443
 863 0512 4A8934FF 		mov	QWORD PTR [rdi+r15*8], rsi	# *_211, tmp445
 530:sieve_extend.c ****         bitarray[destination_start_word+i] = (pattern << (pattern_size - ((shift+i*pattern_shift) &
 864              		.loc 1 530 40 is_stmt 1 view .LVU245
 865 0516 4D8D7E04 		lea	r15, 4[r14]	# i,
 866              	.LVL40:
 530:sieve_extend.c ****         bitarray[destination_start_word+i] = (pattern << (pattern_size - ((shift+i*pattern_shift) &
 867              		.loc 1 530 25 view .LVU246
 868              	# sieve_extend.c:530:     for (counter_t i=0; i<=loop_range; ++i ) {
 530:sieve_extend.c ****         bitarray[destination_start_word+i] = (pattern << (pattern_size - ((shift+i*pattern_shift) &
 869              		.loc 1 530 5 is_stmt 0 view .LVU247
 870 051a 4D39F9   		cmp	r9, r15	# loop_range, i
 871 051d 0F825501 		jb	.L10	#,
 871      0000
 872              		.loc 1 531 9 is_stmt 1 view .LVU248
 873              	# sieve_extend.c:531:         bitarray[destination_start_word+i] = (pattern << (pattern_size - ((sh
 874              		.loc 1 531 81 is_stmt 0 view .LVU249
 875 0523 4189D3   		mov	r11d, edx	# tmp446, tmp355
 876              	# sieve_extend.c:531:         bitarray[destination_start_word+i] = (pattern << (pattern_size - ((sh
 877              		.loc 1 531 72 view .LVU250
 878 0526 4189C5   		mov	r13d, eax	# tmp449, pattern_size
 879              	# sieve_extend.c:531:         bitarray[destination_start_word+i] = (pattern << (pattern_size - ((sh
 880              		.loc 1 531 81 view .LVU251
 881 0529 450FAFDF 		imul	r11d, r15d	# tmp446, i
 882              	# sieve_extend.c:531:         bitarray[destination_start_word+i] = (pattern << (pattern_size - ((sh
 883              		.loc 1 531 17 view .LVU252
 884 052d 4D01D7   		add	r15, r10	# tmp448, destination_start_word
 885              	.LVL41:
 886              	# sieve_extend.c:531:         bitarray[destination_start_word+i] = (pattern << (pattern_size - ((sh
 887              		.loc 1 531 81 view .LVU253
 888 0530 4101CB   		add	r11d, ecx	# tmp447, shift
 889              	# sieve_extend.c:531:         bitarray[destination_start_word+i] = (pattern << (pattern_size - ((sh
 890              		.loc 1 531 99 view .LVU254
 891 0533 4183E33F 		and	r11d, 63	# _220,
 892              	# sieve_extend.c:531:         bitarray[destination_start_word+i] = (pattern << (pattern_size - ((sh
 893              		.loc 1 531 127 view .LVU255
 894 0537 C4C2A3F7 		shrx	rsi, r8, r11	# tmp451, pattern, _220
 894      F0
 895              	# sieve_extend.c:531:         bitarray[destination_start_word+i] = (pattern << (pattern_size - ((sh
 896              		.loc 1 531 72 view .LVU256
 897 053c 4529DD   		sub	r13d, r11d	# tmp449, _220
 898              	# sieve_extend.c:531:         bitarray[destination_start_word+i] = (pattern << (pattern_size - ((sh
 899              		.loc 1 531 55 view .LVU257
 900 053f C44291F7 		shlx	r13, r8, r13	# tmp450, pattern, tmp449
 900      E8
 901              	# sieve_extend.c:531:         bitarray[destination_start_word+i] = (pattern << (pattern_size - ((sh
GAS LISTING /tmp/ccH5HMHD.s 			page 30


 902              		.loc 1 531 116 view .LVU258
 903 0544 4C09EE   		or	rsi, r13	# tmp452, tmp450
 904 0547 4A8934FF 		mov	QWORD PTR [rdi+r15*8], rsi	# *_226, tmp452
 530:sieve_extend.c ****         bitarray[destination_start_word+i] = (pattern << (pattern_size - ((shift+i*pattern_shift) &
 905              		.loc 1 530 40 is_stmt 1 view .LVU259
 906 054b 4D8D7E05 		lea	r15, 5[r14]	# i,
 907              	.LVL42:
 530:sieve_extend.c ****         bitarray[destination_start_word+i] = (pattern << (pattern_size - ((shift+i*pattern_shift) &
 908              		.loc 1 530 25 view .LVU260
 909              	# sieve_extend.c:530:     for (counter_t i=0; i<=loop_range; ++i ) {
 530:sieve_extend.c ****         bitarray[destination_start_word+i] = (pattern << (pattern_size - ((shift+i*pattern_shift) &
 910              		.loc 1 530 5 is_stmt 0 view .LVU261
 911 054f 4D39F9   		cmp	r9, r15	# loop_range, i
 912 0552 0F822001 		jb	.L10	#,
 912      0000
 913              		.loc 1 531 9 is_stmt 1 view .LVU262
 914              	# sieve_extend.c:531:         bitarray[destination_start_word+i] = (pattern << (pattern_size - ((sh
 915              		.loc 1 531 81 is_stmt 0 view .LVU263
 916 0558 4189D3   		mov	r11d, edx	# tmp453, tmp355
 917              	# sieve_extend.c:531:         bitarray[destination_start_word+i] = (pattern << (pattern_size - ((sh
 918              		.loc 1 531 72 view .LVU264
 919 055b 4189C5   		mov	r13d, eax	# tmp456, pattern_size
 920              	# sieve_extend.c:531:         bitarray[destination_start_word+i] = (pattern << (pattern_size - ((sh
 921              		.loc 1 531 81 view .LVU265
 922 055e 450FAFDF 		imul	r11d, r15d	# tmp453, i
 923              	# sieve_extend.c:531:         bitarray[destination_start_word+i] = (pattern << (pattern_size - ((sh
 924              		.loc 1 531 17 view .LVU266
 925 0562 4D01D7   		add	r15, r10	# tmp455, destination_start_word
 926              	.LVL43:
 927              	# sieve_extend.c:531:         bitarray[destination_start_word+i] = (pattern << (pattern_size - ((sh
 928              		.loc 1 531 81 view .LVU267
 929 0565 4101CB   		add	r11d, ecx	# tmp454, shift
 930              	# sieve_extend.c:531:         bitarray[destination_start_word+i] = (pattern << (pattern_size - ((sh
 931              		.loc 1 531 99 view .LVU268
 932 0568 4183E33F 		and	r11d, 63	# _235,
 933              	# sieve_extend.c:531:         bitarray[destination_start_word+i] = (pattern << (pattern_size - ((sh
 934              		.loc 1 531 127 view .LVU269
 935 056c C4C2A3F7 		shrx	rsi, r8, r11	# tmp458, pattern, _235
 935      F0
 936              	# sieve_extend.c:531:         bitarray[destination_start_word+i] = (pattern << (pattern_size - ((sh
 937              		.loc 1 531 72 view .LVU270
 938 0571 4529DD   		sub	r13d, r11d	# tmp456, _235
 939              	# sieve_extend.c:531:         bitarray[destination_start_word+i] = (pattern << (pattern_size - ((sh
 940              		.loc 1 531 55 view .LVU271
 941 0574 C44291F7 		shlx	r13, r8, r13	# tmp457, pattern, tmp456
 941      E8
 942              	# sieve_extend.c:531:         bitarray[destination_start_word+i] = (pattern << (pattern_size - ((sh
 943              		.loc 1 531 116 view .LVU272
 944 0579 4C09EE   		or	rsi, r13	# tmp459, tmp457
 945 057c 4A8934FF 		mov	QWORD PTR [rdi+r15*8], rsi	# *_241, tmp459
 530:sieve_extend.c ****         bitarray[destination_start_word+i] = (pattern << (pattern_size - ((shift+i*pattern_shift) &
 946              		.loc 1 530 40 is_stmt 1 view .LVU273
 947 0580 4D8D7E06 		lea	r15, 6[r14]	# i,
 948              	.LVL44:
 530:sieve_extend.c ****         bitarray[destination_start_word+i] = (pattern << (pattern_size - ((shift+i*pattern_shift) &
 949              		.loc 1 530 25 view .LVU274
 950              	# sieve_extend.c:530:     for (counter_t i=0; i<=loop_range; ++i ) {
GAS LISTING /tmp/ccH5HMHD.s 			page 31


 530:sieve_extend.c ****         bitarray[destination_start_word+i] = (pattern << (pattern_size - ((shift+i*pattern_shift) &
 951              		.loc 1 530 5 is_stmt 0 view .LVU275
 952 0584 4D39F9   		cmp	r9, r15	# loop_range, i
 953 0587 0F82EB00 		jb	.L10	#,
 953      0000
 954              		.loc 1 531 9 is_stmt 1 view .LVU276
 955              	# sieve_extend.c:531:         bitarray[destination_start_word+i] = (pattern << (pattern_size - ((sh
 956              		.loc 1 531 81 is_stmt 0 view .LVU277
 957 058d 4189D3   		mov	r11d, edx	# tmp460, tmp355
 958              	# sieve_extend.c:531:         bitarray[destination_start_word+i] = (pattern << (pattern_size - ((sh
 959              		.loc 1 531 72 view .LVU278
 960 0590 4189C5   		mov	r13d, eax	# tmp463, pattern_size
 961              	# sieve_extend.c:531:         bitarray[destination_start_word+i] = (pattern << (pattern_size - ((sh
 962              		.loc 1 531 81 view .LVU279
 963 0593 450FAFDF 		imul	r11d, r15d	# tmp460, i
 964              	# sieve_extend.c:531:         bitarray[destination_start_word+i] = (pattern << (pattern_size - ((sh
 965              		.loc 1 531 17 view .LVU280
 966 0597 4D01D7   		add	r15, r10	# tmp462, destination_start_word
 967              	.LVL45:
 968              	# sieve_extend.c:531:         bitarray[destination_start_word+i] = (pattern << (pattern_size - ((sh
 969              		.loc 1 531 81 view .LVU281
 970 059a 4101CB   		add	r11d, ecx	# tmp461, shift
 971              	# sieve_extend.c:531:         bitarray[destination_start_word+i] = (pattern << (pattern_size - ((sh
 972              		.loc 1 531 99 view .LVU282
 973 059d 4183E33F 		and	r11d, 63	# _250,
 974              	# sieve_extend.c:531:         bitarray[destination_start_word+i] = (pattern << (pattern_size - ((sh
 975              		.loc 1 531 127 view .LVU283
 976 05a1 C4C2A3F7 		shrx	rsi, r8, r11	# tmp465, pattern, _250
 976      F0
 977              	# sieve_extend.c:531:         bitarray[destination_start_word+i] = (pattern << (pattern_size - ((sh
 978              		.loc 1 531 72 view .LVU284
 979 05a6 4529DD   		sub	r13d, r11d	# tmp463, _250
 980              	# sieve_extend.c:531:         bitarray[destination_start_word+i] = (pattern << (pattern_size - ((sh
 981              		.loc 1 531 55 view .LVU285
 982 05a9 C44291F7 		shlx	r13, r8, r13	# tmp464, pattern, tmp463
 982      E8
 983              	# sieve_extend.c:531:         bitarray[destination_start_word+i] = (pattern << (pattern_size - ((sh
 984              		.loc 1 531 116 view .LVU286
 985 05ae 4C09EE   		or	rsi, r13	# tmp466, tmp464
 986 05b1 4A8934FF 		mov	QWORD PTR [rdi+r15*8], rsi	# *_256, tmp466
 530:sieve_extend.c ****         bitarray[destination_start_word+i] = (pattern << (pattern_size - ((shift+i*pattern_shift) &
 987              		.loc 1 530 40 is_stmt 1 view .LVU287
 988 05b5 4D8D7E07 		lea	r15, 7[r14]	# i,
 989              	.LVL46:
 530:sieve_extend.c ****         bitarray[destination_start_word+i] = (pattern << (pattern_size - ((shift+i*pattern_shift) &
 990              		.loc 1 530 25 view .LVU288
 991              	# sieve_extend.c:530:     for (counter_t i=0; i<=loop_range; ++i ) {
 530:sieve_extend.c ****         bitarray[destination_start_word+i] = (pattern << (pattern_size - ((shift+i*pattern_shift) &
 992              		.loc 1 530 5 is_stmt 0 view .LVU289
 993 05b9 4D39F9   		cmp	r9, r15	# loop_range, i
 994 05bc 0F82B600 		jb	.L10	#,
 994      0000
 995              		.loc 1 531 9 is_stmt 1 view .LVU290
 996              	# sieve_extend.c:531:         bitarray[destination_start_word+i] = (pattern << (pattern_size - ((sh
 997              		.loc 1 531 81 is_stmt 0 view .LVU291
 998 05c2 4189D3   		mov	r11d, edx	# tmp467, tmp355
 999              	# sieve_extend.c:531:         bitarray[destination_start_word+i] = (pattern << (pattern_size - ((sh
GAS LISTING /tmp/ccH5HMHD.s 			page 32


 1000              		.loc 1 531 72 view .LVU292
 1001 05c5 4189C5   		mov	r13d, eax	# tmp470, pattern_size
 1002              	# sieve_extend.c:531:         bitarray[destination_start_word+i] = (pattern << (pattern_size - ((sh
 1003              		.loc 1 531 81 view .LVU293
 1004 05c8 450FAFDF 		imul	r11d, r15d	# tmp467, i
 1005              	# sieve_extend.c:531:         bitarray[destination_start_word+i] = (pattern << (pattern_size - ((sh
 1006              		.loc 1 531 17 view .LVU294
 1007 05cc 4D01D7   		add	r15, r10	# tmp469, destination_start_word
 1008              	.LVL47:
 1009              	# sieve_extend.c:531:         bitarray[destination_start_word+i] = (pattern << (pattern_size - ((sh
 1010              		.loc 1 531 81 view .LVU295
 1011 05cf 4101CB   		add	r11d, ecx	# tmp468, shift
 1012              	# sieve_extend.c:531:         bitarray[destination_start_word+i] = (pattern << (pattern_size - ((sh
 1013              		.loc 1 531 99 view .LVU296
 1014 05d2 4183E33F 		and	r11d, 63	# _265,
 1015              	# sieve_extend.c:531:         bitarray[destination_start_word+i] = (pattern << (pattern_size - ((sh
 1016              		.loc 1 531 127 view .LVU297
 1017 05d6 C4C2A3F7 		shrx	rsi, r8, r11	# tmp472, pattern, _265
 1017      F0
 1018              	# sieve_extend.c:531:         bitarray[destination_start_word+i] = (pattern << (pattern_size - ((sh
 1019              		.loc 1 531 72 view .LVU298
 1020 05db 4529DD   		sub	r13d, r11d	# tmp470, _265
 1021              	# sieve_extend.c:531:         bitarray[destination_start_word+i] = (pattern << (pattern_size - ((sh
 1022              		.loc 1 531 55 view .LVU299
 1023 05de C44291F7 		shlx	r13, r8, r13	# tmp471, pattern, tmp470
 1023      E8
 1024              	# sieve_extend.c:531:         bitarray[destination_start_word+i] = (pattern << (pattern_size - ((sh
 1025              		.loc 1 531 116 view .LVU300
 1026 05e3 4C09EE   		or	rsi, r13	# tmp473, tmp471
 1027 05e6 4A8934FF 		mov	QWORD PTR [rdi+r15*8], rsi	# *_271, tmp473
 530:sieve_extend.c ****         bitarray[destination_start_word+i] = (pattern << (pattern_size - ((shift+i*pattern_shift) &
 1028              		.loc 1 530 40 is_stmt 1 view .LVU301
 1029 05ea 4D8D7E08 		lea	r15, 8[r14]	# i,
 1030              	.LVL48:
 530:sieve_extend.c ****         bitarray[destination_start_word+i] = (pattern << (pattern_size - ((shift+i*pattern_shift) &
 1031              		.loc 1 530 25 view .LVU302
 1032              	# sieve_extend.c:530:     for (counter_t i=0; i<=loop_range; ++i ) {
 530:sieve_extend.c ****         bitarray[destination_start_word+i] = (pattern << (pattern_size - ((shift+i*pattern_shift) &
 1033              		.loc 1 530 5 is_stmt 0 view .LVU303
 1034 05ee 4D39F9   		cmp	r9, r15	# loop_range, i
 1035 05f1 0F828100 		jb	.L10	#,
 1035      0000
 1036              		.loc 1 531 9 is_stmt 1 view .LVU304
 1037              	# sieve_extend.c:531:         bitarray[destination_start_word+i] = (pattern << (pattern_size - ((sh
 1038              		.loc 1 531 81 is_stmt 0 view .LVU305
 1039 05f7 4189D3   		mov	r11d, edx	# tmp474, tmp355
 1040              	# sieve_extend.c:531:         bitarray[destination_start_word+i] = (pattern << (pattern_size - ((sh
 1041              		.loc 1 531 72 view .LVU306
 1042 05fa 4189C5   		mov	r13d, eax	# tmp477, pattern_size
 1043              	# sieve_extend.c:531:         bitarray[destination_start_word+i] = (pattern << (pattern_size - ((sh
 1044              		.loc 1 531 81 view .LVU307
 1045 05fd 450FAFDF 		imul	r11d, r15d	# tmp474, i
 1046              	# sieve_extend.c:531:         bitarray[destination_start_word+i] = (pattern << (pattern_size - ((sh
 1047              		.loc 1 531 17 view .LVU308
 1048 0601 4D01D7   		add	r15, r10	# tmp476, destination_start_word
 1049              	.LVL49:
 1050              	# sieve_extend.c:531:         bitarray[destination_start_word+i] = (pattern << (pattern_size - ((sh
GAS LISTING /tmp/ccH5HMHD.s 			page 33


 1051              		.loc 1 531 81 view .LVU309
 1052 0604 4101CB   		add	r11d, ecx	# tmp475, shift
 1053              	# sieve_extend.c:531:         bitarray[destination_start_word+i] = (pattern << (pattern_size - ((sh
 1054              		.loc 1 531 99 view .LVU310
 1055 0607 4183E33F 		and	r11d, 63	# _280,
 1056              	# sieve_extend.c:531:         bitarray[destination_start_word+i] = (pattern << (pattern_size - ((sh
 1057              		.loc 1 531 127 view .LVU311
 1058 060b C4C2A3F7 		shrx	rsi, r8, r11	# tmp479, pattern, _280
 1058      F0
 1059              	# sieve_extend.c:531:         bitarray[destination_start_word+i] = (pattern << (pattern_size - ((sh
 1060              		.loc 1 531 72 view .LVU312
 1061 0610 4529DD   		sub	r13d, r11d	# tmp477, _280
 1062              	# sieve_extend.c:531:         bitarray[destination_start_word+i] = (pattern << (pattern_size - ((sh
 1063              		.loc 1 531 55 view .LVU313
 1064 0613 C44291F7 		shlx	r13, r8, r13	# tmp478, pattern, tmp477
 1064      E8
 1065              	# sieve_extend.c:531:         bitarray[destination_start_word+i] = (pattern << (pattern_size - ((sh
 1066              		.loc 1 531 116 view .LVU314
 1067 0618 4C09EE   		or	rsi, r13	# tmp480, tmp478
 1068 061b 4A8934FF 		mov	QWORD PTR [rdi+r15*8], rsi	# *_286, tmp480
 530:sieve_extend.c ****         bitarray[destination_start_word+i] = (pattern << (pattern_size - ((shift+i*pattern_shift) &
 1069              		.loc 1 530 40 is_stmt 1 view .LVU315
 1070 061f 4D8D7E09 		lea	r15, 9[r14]	# i,
 1071              	.LVL50:
 530:sieve_extend.c ****         bitarray[destination_start_word+i] = (pattern << (pattern_size - ((shift+i*pattern_shift) &
 1072              		.loc 1 530 25 view .LVU316
 1073              	# sieve_extend.c:530:     for (counter_t i=0; i<=loop_range; ++i ) {
 530:sieve_extend.c ****         bitarray[destination_start_word+i] = (pattern << (pattern_size - ((shift+i*pattern_shift) &
 1074              		.loc 1 530 5 is_stmt 0 view .LVU317
 1075 0623 4D39F9   		cmp	r9, r15	# loop_range, i
 1076 0626 7250     		jb	.L10	#,
 1077              		.loc 1 531 9 is_stmt 1 view .LVU318
 1078              	# sieve_extend.c:531:         bitarray[destination_start_word+i] = (pattern << (pattern_size - ((sh
 1079              		.loc 1 531 81 is_stmt 0 view .LVU319
 1080 0628 4189D3   		mov	r11d, edx	# tmp481, tmp355
 1081              	# sieve_extend.c:531:         bitarray[destination_start_word+i] = (pattern << (pattern_size - ((sh
 1082              		.loc 1 531 72 view .LVU320
 1083 062b 4189C5   		mov	r13d, eax	# tmp484, pattern_size
 1084              	# sieve_extend.c:531:         bitarray[destination_start_word+i] = (pattern << (pattern_size - ((sh
 1085              		.loc 1 531 81 view .LVU321
 1086 062e 450FAFDF 		imul	r11d, r15d	# tmp481, i
 1087              	# sieve_extend.c:530:     for (counter_t i=0; i<=loop_range; ++i ) {
 530:sieve_extend.c ****         bitarray[destination_start_word+i] = (pattern << (pattern_size - ((shift+i*pattern_shift) &
 1088              		.loc 1 530 40 view .LVU322
 1089 0632 4983C60A 		add	r14, 10	# i,
 1090              	# sieve_extend.c:531:         bitarray[destination_start_word+i] = (pattern << (pattern_size - ((sh
 1091              		.loc 1 531 17 view .LVU323
 1092 0636 4D01D7   		add	r15, r10	# tmp483, destination_start_word
 1093              	.LVL51:
 1094              	# sieve_extend.c:531:         bitarray[destination_start_word+i] = (pattern << (pattern_size - ((sh
 1095              		.loc 1 531 81 view .LVU324
 1096 0639 4101CB   		add	r11d, ecx	# tmp482, shift
 1097              	# sieve_extend.c:531:         bitarray[destination_start_word+i] = (pattern << (pattern_size - ((sh
 1098              		.loc 1 531 99 view .LVU325
 1099 063c 4183E33F 		and	r11d, 63	# _295,
 1100              	# sieve_extend.c:531:         bitarray[destination_start_word+i] = (pattern << (pattern_size - ((sh
 1101              		.loc 1 531 127 view .LVU326
GAS LISTING /tmp/ccH5HMHD.s 			page 34


 1102 0640 C4C2A3F7 		shrx	rsi, r8, r11	# tmp486, pattern, _295
 1102      F0
 1103              	# sieve_extend.c:531:         bitarray[destination_start_word+i] = (pattern << (pattern_size - ((sh
 1104              		.loc 1 531 72 view .LVU327
 1105 0645 4529DD   		sub	r13d, r11d	# tmp484, _295
 1106              	# sieve_extend.c:531:         bitarray[destination_start_word+i] = (pattern << (pattern_size - ((sh
 1107              		.loc 1 531 55 view .LVU328
 1108 0648 C44291F7 		shlx	r13, r8, r13	# tmp485, pattern, tmp484
 1108      E8
 1109              	# sieve_extend.c:531:         bitarray[destination_start_word+i] = (pattern << (pattern_size - ((sh
 1110              		.loc 1 531 116 view .LVU329
 1111 064d 4C09EE   		or	rsi, r13	# tmp487, tmp485
 1112              	# sieve_extend.c:530:     for (counter_t i=0; i<=loop_range; ++i ) {
 530:sieve_extend.c ****         bitarray[destination_start_word+i] = (pattern << (pattern_size - ((shift+i*pattern_shift) &
 1113              		.loc 1 530 5 view .LVU330
 1114 0650 4D39F1   		cmp	r9, r14	# loop_range, i
 1115              	# sieve_extend.c:531:         bitarray[destination_start_word+i] = (pattern << (pattern_size - ((sh
 1116              		.loc 1 531 116 view .LVU331
 1117 0653 4A8934FF 		mov	QWORD PTR [rdi+r15*8], rsi	# *_301, tmp487
 530:sieve_extend.c ****         bitarray[destination_start_word+i] = (pattern << (pattern_size - ((shift+i*pattern_shift) &
 1118              		.loc 1 530 40 is_stmt 1 view .LVU332
 1119              	.LVL52:
 530:sieve_extend.c ****         bitarray[destination_start_word+i] = (pattern << (pattern_size - ((shift+i*pattern_shift) &
 1120              		.loc 1 530 25 view .LVU333
 1121              	# sieve_extend.c:530:     for (counter_t i=0; i<=loop_range; ++i ) {
 530:sieve_extend.c ****         bitarray[destination_start_word+i] = (pattern << (pattern_size - ((shift+i*pattern_shift) &
 1122              		.loc 1 530 5 is_stmt 0 view .LVU334
 1123 0657 721F     		jb	.L10	#,
 1124              		.loc 1 531 9 is_stmt 1 view .LVU335
 1125              	# sieve_extend.c:531:         bitarray[destination_start_word+i] = (pattern << (pattern_size - ((sh
 1126              		.loc 1 531 81 is_stmt 0 view .LVU336
 1127 0659 410FAFD6 		imul	edx, r14d	# tmp488, i
 1128              	.LVL53:
 1129              	# sieve_extend.c:531:         bitarray[destination_start_word+i] = (pattern << (pattern_size - ((sh
 1130              		.loc 1 531 17 view .LVU337
 1131 065d 4D01D6   		add	r14, r10	# tmp490, destination_start_word
 1132              	# sieve_extend.c:531:         bitarray[destination_start_word+i] = (pattern << (pattern_size - ((sh
 1133              		.loc 1 531 81 view .LVU338
 1134 0660 01D1     		add	ecx, edx	# tmp489, tmp488
 1135              	.LVL54:
 1136              	# sieve_extend.c:531:         bitarray[destination_start_word+i] = (pattern << (pattern_size - ((sh
 1137              		.loc 1 531 99 view .LVU339
 1138 0662 83E13F   		and	ecx, 63	# _108,
 1139              	# sieve_extend.c:531:         bitarray[destination_start_word+i] = (pattern << (pattern_size - ((sh
 1140              		.loc 1 531 72 view .LVU340
 1141 0665 29C8     		sub	eax, ecx	# tmp491, _108
 1142              	.LVL55:
 1143              	# sieve_extend.c:531:         bitarray[destination_start_word+i] = (pattern << (pattern_size - ((sh
 1144              		.loc 1 531 55 view .LVU341
 1145 0667 C4C2F9F7 		shlx	rdx, r8, rax	# tmp492, pattern, tmp491
 1145      D0
 1146              	# sieve_extend.c:531:         bitarray[destination_start_word+i] = (pattern << (pattern_size - ((sh
 1147              		.loc 1 531 127 view .LVU342
 1148 066c C442F3F7 		shrx	r8, r8, rcx	# tmp493, pattern, _108
 1148      C0
 1149              	.LVL56:
 1150              	# sieve_extend.c:531:         bitarray[destination_start_word+i] = (pattern << (pattern_size - ((sh
GAS LISTING /tmp/ccH5HMHD.s 			page 35


 1151              		.loc 1 531 116 view .LVU343
 1152 0671 4909D0   		or	r8, rdx	# tmp494, tmp492
 1153 0674 4E8904F7 		mov	QWORD PTR [rdi+r14*8], r8	# *_42, tmp494
 530:sieve_extend.c ****         bitarray[destination_start_word+i] = (pattern << (pattern_size - ((shift+i*pattern_shift) &
 1154              		.loc 1 530 40 is_stmt 1 view .LVU344
 530:sieve_extend.c ****         bitarray[destination_start_word+i] = (pattern << (pattern_size - ((shift+i*pattern_shift) &
 1155              		.loc 1 530 25 view .LVU345
 1156              	.L10:
 530:sieve_extend.c ****         bitarray[destination_start_word+i] = (pattern << (pattern_size - ((shift+i*pattern_shift) &
 1157              		.loc 1 530 25 is_stmt 0 view .LVU346
 1158              	.LBE317:
 532:sieve_extend.c ****     }
 533:sieve_extend.c ****     bitarray[destination_stop_word] &= chopmask(destination_stop);
 1159              		.loc 1 533 5 is_stmt 1 view .LVU347
 1160              	# sieve_extend.c:533:     bitarray[destination_stop_word] &= chopmask(destination_stop);
 1161              		.loc 1 533 37 is_stmt 0 view .LVU348
 1162 0678 4A211CE7 		and	QWORD PTR [rdi+r12*8], rbx	# *_57, _124
 1163              	# sieve_extend.c:534: }
 534:sieve_extend.c **** }
 1164              		.loc 1 534 1 view .LVU349
 1165 067c 488D65D8 		lea	rsp, -40[rbp]	#,
 1166 0680 5B       		pop	rbx	#
 1167 0681 415C     		pop	r12	#
 1168              	.LVL57:
 1169              		.loc 1 534 1 view .LVU350
 1170 0683 415D     		pop	r13	#
 1171 0685 415E     		pop	r14	#
 1172 0687 415F     		pop	r15	#
 1173 0689 5D       		pop	rbp	#
 1174              		.cfi_remember_state
 1175              		.cfi_def_cfa 7, 8
 1176 068a C3       		ret	
 1177              	.LVL58:
 1178 068b 0F1F4400 		.p2align 4,,7
 1178      00
 1179              		.p2align 3
 1180              	.L49:
 1181              		.cfi_restore_state
 515:sieve_extend.c ****         return;
 1182              		.loc 1 515 9 is_stmt 1 view .LVU351
 1183              	# sieve_extend.c:515:         bitarray[destination_start_word] |= (pattern << bitindex(destination_
 515:sieve_extend.c ****         return;
 1184              		.loc 1 515 86 is_stmt 0 view .LVU352
 1185 0690 4821D8   		and	rax, rbx	# tmp351, _124
 1186              	# sieve_extend.c:515:         bitarray[destination_start_word] |= (pattern << bitindex(destination_
 515:sieve_extend.c ****         return;
 1187              		.loc 1 515 42 view .LVU353
 1188 0693 4C09F8   		or	rax, r15	# tmp352, pretmp_118
 1189 0696 498906   		mov	QWORD PTR [r14], rax	# *_117, tmp352
 516:sieve_extend.c ****     }
 1190              		.loc 1 516 9 is_stmt 1 view .LVU354
 1191              	# sieve_extend.c:534: }
 1192              		.loc 1 534 1 is_stmt 0 view .LVU355
 1193 0699 488D65D8 		lea	rsp, -40[rbp]	#,
 1194 069d 5B       		pop	rbx	#
 1195 069e 415C     		pop	r12	#
 1196              	.LVL59:
GAS LISTING /tmp/ccH5HMHD.s 			page 36


 1197              		.loc 1 534 1 view .LVU356
 1198 06a0 415D     		pop	r13	#
 1199 06a2 415E     		pop	r14	#
 1200 06a4 415F     		pop	r15	#
 1201 06a6 5D       		pop	rbp	#
 1202              		.cfi_remember_state
 1203              		.cfi_def_cfa 7, 8
 1204 06a7 C3       		ret	
 1205              	.LVL60:
 1206              	.L50:
 1207              		.cfi_restore_state
 1208              		.loc 1 534 1 view .LVU357
 1209 06a8 C5F877   		vzeroupper
 1210 06ab EBCB     		jmp	.L10	#
 1211              	.LVL61:
 1212              	.L12:
 1213              	.LBB318:
 1214              	# sieve_extend.c:530:     for (counter_t i=0; i<=loop_range; ++i ) {
 530:sieve_extend.c ****         bitarray[destination_start_word+i] = (pattern << (pattern_size - ((shift+i*pattern_shift) &
 1215              		.loc 1 530 20 view .LVU358
 1216 06ad 4531F6   		xor	r14d, r14d	# i
 1217 06b0 E979FBFF 		jmp	.L7	#
 1217      FF
 1218              	.L11:
 1219 06b5 4531F6   		xor	r14d, r14d	# tmp.145
 1220              		.p2align 4,,2
 1221 06b8 E994FDFF 		jmp	.L6	#
 1221      FF
 1222              	.LBE318:
 1223              		.cfi_endproc
 1224              	.LFE64:
 1226 06bd 0F1F00   		.p2align 4
 1228              	extendSieve_shiftright_ivdep:
 1229              	.LVL62:
 1230              	.LFB69:
 535:sieve_extend.c **** 
 536:sieve_extend.c **** static void extendSieve_aligned(bitword_t* bitarray, const counter_t source_start, const counter_t 
 537:sieve_extend.c ****     debug printf("Extending sieve size %ju in %ju bit range (%ju-%ju) using aligned (%ju copies)\n"
 538:sieve_extend.c **** 
 539:sieve_extend.c ****     const counter_t destination_stop_word = wordindex(destination_stop);
 540:sieve_extend.c ****     const counter_t copy_start = source_start + size;
 541:sieve_extend.c ****     counter_t source_word = wordindex(source_start);
 542:sieve_extend.c ****     counter_t copy_word = wordindex(copy_start);
 543:sieve_extend.c ****     
 544:sieve_extend.c ****     bitarray[copy_word] = bitarray[source_word] & ~chopmask(copy_start);
 545:sieve_extend.c **** 
 546:sieve_extend.c ****     while (copy_word + size <= destination_stop_word) {
 547:sieve_extend.c ****         memcpy(&bitarray[copy_word], &bitarray[source_word], (uintmax_t)size*sizeof(bitword_t) );
 548:sieve_extend.c ****         copy_word += size;
 549:sieve_extend.c ****     }
 550:sieve_extend.c **** 
 551:sieve_extend.c ****    while (copy_word < destination_stop_word) {
 552:sieve_extend.c ****         bitarray[copy_word] = bitarray[source_word];
 553:sieve_extend.c ****         source_word++;
 554:sieve_extend.c ****         copy_word++;
 555:sieve_extend.c ****     }
 556:sieve_extend.c **** 
GAS LISTING /tmp/ccH5HMHD.s 			page 37


 557:sieve_extend.c **** }
 558:sieve_extend.c **** 
 559:sieve_extend.c **** //https://stackoverflow.com/questions/1898153/how-to-determine-if-memory-is-aligned
 560:sieve_extend.c **** #define is_unaligned(POINTER, BYTE_COUNT) (((uintptr_t)(const void *)(POINTER)) % (BYTE_COUNT))
 561:sieve_extend.c **** 
 562:sieve_extend.c **** void shiftvec(uint64_t* __restrict dst, const uint64_t* __restrict src, int size, int shift)
 563:sieve_extend.c **** {
 564:sieve_extend.c ****     int i = 0;
 565:sieve_extend.c ****     // MSVC: use steps of 2 for SSE, 4 for AVX2, 8 for AVX512
 566:sieve_extend.c ****     for (; i+4 < size; i+=4,dst+=4,src+=4)
 567:sieve_extend.c ****     {
 568:sieve_extend.c ****         for (int j = 0; j < 4; ++j)
 569:sieve_extend.c ****             *(dst+j) = (*(src+j))<<shift;
 570:sieve_extend.c ****         for (int j = 0; j < 4; ++j)
 571:sieve_extend.c ****             *(dst+j) |= (*(src+1)>>(64-shift));
 572:sieve_extend.c ****     }
 573:sieve_extend.c ****     for (; i < size; ++i,++src,++dst)
 574:sieve_extend.c ****     {
 575:sieve_extend.c ****         *dst = ((*src)>>shift) | (*(src+1)<<(64-shift));
 576:sieve_extend.c ****     }    
 577:sieve_extend.c **** }
 578:sieve_extend.c **** 
 579:sieve_extend.c **** #define forward_distance 3
 580:sieve_extend.c **** static void extendSieve_shiftright_ptr(bitword_t* bitarray, const counter_t source_start, const cou
 581:sieve_extend.c ****     debug printf("Extending sieve size %ju in %ju bit range (%ju-%ju) using shiftright (%ju copies)
 582:sieve_extend.c ****    
 583:sieve_extend.c ****     const counter_t destination_stop_word = wordindex(destination_stop);
 584:sieve_extend.c ****     const counter_t copy_start = source_start + size;
 585:sieve_extend.c ****     register const bitshift_t shift = bitindex_calc(copy_start) - bitindex_calc(source_start);
 586:sieve_extend.c ****     register const bitshift_t shift_flipped = WORD_SIZE_bitshift-shift;
 587:sieve_extend.c ****     register counter_t source_word = wordindex(source_start);
 588:sieve_extend.c ****     register counter_t copy_word = wordindex(copy_start);
 589:sieve_extend.c **** 
 590:sieve_extend.c ****     if (copy_word >= destination_stop_word) { 
 591:sieve_extend.c ****         bitarray[copy_word] |= ((bitarray[source_word] << shift)  // or the start in to not lose da
 592:sieve_extend.c ****                                 | (bitarray[copy_word] >> shift_flipped))
 593:sieve_extend.c ****                                 & keepmask(copy_start) & chopmask(destination_stop);
 594:sieve_extend.c ****         return; // rapid exit for one word variant
 595:sieve_extend.c ****     }
 596:sieve_extend.c **** 
 597:sieve_extend.c ****     bitarray[copy_word] |= ((bitarray[source_word] << shift)  // or the start in to not lose data
 598:sieve_extend.c ****                                 | (bitarray[copy_word] >> shift_flipped))
 599:sieve_extend.c ****                                 & keepmask(copy_start);
 600:sieve_extend.c **** 
 601:sieve_extend.c ****     copy_word++;
 602:sieve_extend.c **** 
 603:sieve_extend.c ****     debug printf("..copy distance %ju\n",(uintmax_t) copy_word - (uintmax_t) source_word);
 604:sieve_extend.c ****     if (((copy_word - source_word) > forward_distance)) {
 605:sieve_extend.c ****         // shiftvec(&bitarray[copy_word], &bitarray[source_word],size_word,shift );
 606:sieve_extend.c ****         
 607:sieve_extend.c ****         bitword_t* __restrict copy_ptr   = &bitarray[copy_word];
 608:sieve_extend.c ****         bitword_t* __restrict source_ptr = &bitarray[source_word];
 609:sieve_extend.c ****         // bitword_t* copy_ptr   = &bitarray[copy_word];
 610:sieve_extend.c ****         // bitword_t* source_ptr = &bitarray[source_word];
 611:sieve_extend.c ****         bitword_t* __restrict dest_ptr   = &bitarray[destination_stop_word];
 612:sieve_extend.c ****         long size_word_ptr   = dest_ptr - copy_ptr;
 613:sieve_extend.c **** 
GAS LISTING /tmp/ccH5HMHD.s 			page 38


 614:sieve_extend.c ****         #pragma ivdep 
 615:sieve_extend.c ****         for (long i = 0; (i+forward_distance) < size_word_ptr; i+=forward_distance, copy_ptr+=forwa
 616:sieve_extend.c ****             #pragma ivdep
 617:sieve_extend.c ****             for (counter_t j = 0; j < forward_distance; ++j) 
 618:sieve_extend.c ****                 *(copy_ptr+j)  = (*(source_ptr+j  ) >> shift_flipped); 
 619:sieve_extend.c ****             #pragma ivdep
 620:sieve_extend.c ****             for (counter_t j = 0; j < forward_distance; ++j) 
 621:sieve_extend.c ****                 *(copy_ptr+j) |= (*(source_ptr+j+1) << shift);
 622:sieve_extend.c ****         }
 623:sieve_extend.c **** 
 624:sieve_extend.c ****         size_word_ptr = dest_ptr - copy_ptr;
 625:sieve_extend.c ****         #pragma ivdep 
 626:sieve_extend.c ****         for (counter_t i=0; i <= size_word_ptr; i++)
 627:sieve_extend.c ****             *(copy_ptr+i) = (*(source_ptr+i) >> shift_flipped) | (*(source_ptr+i+1) << shift);
 628:sieve_extend.c **** 
 629:sieve_extend.c ****         // #pragma GCC ivdep
 630:sieve_extend.c ****         // for (; i <= size_word; i++) 
 631:sieve_extend.c ****         //     *(copy_ptr+i) = (*(source_ptr+i) >> shift_flipped) | (*(source_ptr+i+1) << shift);
 632:sieve_extend.c ****     }
 633:sieve_extend.c ****     else {
 634:sieve_extend.c ****         register counter_t i = 0;
 635:sieve_extend.c ****         bitword_t* copy_ptr   = &bitarray[copy_word];
 636:sieve_extend.c ****         bitword_t* source_ptr = &bitarray[source_word];
 637:sieve_extend.c ****         bitword_t* dest_ptr   = &bitarray[destination_stop_word];
 638:sieve_extend.c ****         long size_word_ptr   = dest_ptr - copy_ptr;
 639:sieve_extend.c ****         for (; i <= size_word_ptr; i++)
 640:sieve_extend.c ****             *(copy_ptr+i) = (*(source_ptr+i) >> shift_flipped) | (*(source_ptr+i+1) << shift);
 641:sieve_extend.c ****     }
 642:sieve_extend.c **** 
 643:sieve_extend.c ****     // for (; i <= size_word; i++) 
 644:sieve_extend.c ****     //     *(copy_ptr+i) = (*(source_ptr+i) >> shift_flipped) | (*(source_ptr+i+1) << shift);
 645:sieve_extend.c **** 
 646:sieve_extend.c ****     // for (; i <= size_word; i++) 
 647:sieve_extend.c ****     //     bitarray[copy_word+i] = (bitarray[source_word+i] >> shift_flipped) | (bitarray[source_wo
 648:sieve_extend.c **** 
 649:sieve_extend.c ****     // for (; copy_word <= destination_stop_word; copy_word++, source_word++ ) 
 650:sieve_extend.c ****     //     bitarray[copy_word] = (bitarray[source_word] >> shift_flipped) | (bitarray[source_word+1
 651:sieve_extend.c **** }
 652:sieve_extend.c **** 
 653:sieve_extend.c **** static inline counter_t extendSieve_shiftleft_unrolled(bitword_t* bitarray, const counter_t aligned
 654:sieve_extend.c ****     const counter_t fast_loop_stop_word = (aligned_copy_word>2) ? (aligned_copy_word - 2) : 0; // s
 655:sieve_extend.c ****     register const bitshift_t shift_flipped = WORD_SIZE_bitshift-shift;
 656:sieve_extend.c ****     counter_t distance = 0;
 657:sieve_extend.c ****     while (copy_word < fast_loop_stop_word) {
 658:sieve_extend.c ****         bitword_t source0 = bitarray[source_word  ];
 659:sieve_extend.c ****         bitword_t source1 = bitarray[source_word+1];
 660:sieve_extend.c ****         bitarray[copy_word  ] = (source0 >> shift) | (source1 << shift_flipped);
 661:sieve_extend.c ****         bitword_t source2 = bitarray[source_word+2];
 662:sieve_extend.c ****         bitarray[copy_word+1] = (source1 >> shift) | (source2 << shift_flipped);
 663:sieve_extend.c ****         copy_word += 2;
 664:sieve_extend.c ****         source_word += 2;
 665:sieve_extend.c ****         distance += 2;
 666:sieve_extend.c ****     }
 667:sieve_extend.c ****     return distance;
 668:sieve_extend.c **** }
 669:sieve_extend.c **** 
 670:sieve_extend.c **** //static void extendSieve_shiftleft(bitword_t* bitarray, const counter_t source_start, const counte
GAS LISTING /tmp/ccH5HMHD.s 			page 39


 671:sieve_extend.c **** //    const bitword_t* destination_stop_ptr = &bitarray[wordindex(destination_stop)];
 672:sieve_extend.c **** //    const counter_t copy_start = source_start + size;
 673:sieve_extend.c **** //    register const bitshift_t shift = bitindex_calc(source_start) - bitindex_calc(copy_start);
 674:sieve_extend.c **** //    register const bitshift_t shift_flipped = WORD_SIZE_bitshift-shift;
 675:sieve_extend.c **** //    register bitword_t* source_ptr = &bitarray[wordindex(source_start)];
 676:sieve_extend.c **** //    register bitword_t* copy_ptr = &bitarray[wordindex(copy_start)];
 677:sieve_extend.c **** //    const bitword_t* aligned_copy_ptr = min(source_ptr + size, destination_stop_ptr); // after <<
 678:sieve_extend.c **** //
 679:sieve_extend.c **** //    *copy_ptr |= ((*source_ptr >> shift) | (*(source_ptr+1) << shift_flipped)) & ~chopmask2(copy_
 680:sieve_extend.c **** //    copy_ptr++;
 681:sieve_extend.c **** //    source_ptr++;
 682:sieve_extend.c **** //
 683:sieve_extend.c **** //    while (copy_ptr+3 <= aligned_copy_ptr) {
 684:sieve_extend.c **** //        bitword_t source0 = *source_ptr >> shift;
 685:sieve_extend.c **** //        bitword_t source1 = *(source_ptr+1);
 686:sieve_extend.c **** //        *copy_ptr = (source0) | (source1 << shift_flipped);
 687:sieve_extend.c **** //        bitword_t source2 = *(source_ptr+2);
 688:sieve_extend.c **** //        *(copy_ptr+1) = (source1 >> shift) | (source2 << shift_flipped);
 689:sieve_extend.c **** //        bitword_t source3 = *(source_ptr+3);
 690:sieve_extend.c **** //        *(copy_ptr+2) = (source2 >> shift) | (source3 << shift_flipped);
 691:sieve_extend.c **** //
 692:sieve_extend.c **** //        copy_ptr+=3;
 693:sieve_extend.c **** //        source_ptr+=3;
 694:sieve_extend.c **** //    }
 695:sieve_extend.c **** //
 696:sieve_extend.c **** //    while (copy_ptr <= aligned_copy_ptr) {
 697:sieve_extend.c **** //        register bitword_t source0 = *source_ptr >> shift;
 698:sieve_extend.c **** //        source_ptr++;
 699:sieve_extend.c **** //        register bitword_t source1 = *source_ptr << shift_flipped;
 700:sieve_extend.c **** //        *copy_ptr = source0 | source1;
 701:sieve_extend.c **** //        copy_ptr++;
 702:sieve_extend.c **** //    }
 703:sieve_extend.c **** //
 704:sieve_extend.c **** //    if (copy_ptr >= destination_stop_ptr) return;
 705:sieve_extend.c **** //
 706:sieve_extend.c **** //    source_ptr = copy_ptr - size; // recalibrate
 707:sieve_extend.c **** //    const size_t memsize = (size_t)size*sizeof(bitword_t);
 708:sieve_extend.c **** //     while (copy_ptr + size <= destination_stop_ptr) {
 709:sieve_extend.c **** //         memcpy(copy_ptr, source_ptr, memsize );
 710:sieve_extend.c **** //         copy_ptr += size;
 711:sieve_extend.c **** //     }
 712:sieve_extend.c **** //
 713:sieve_extend.c **** //    while (copy_ptr <= destination_stop_ptr) {
 714:sieve_extend.c **** //        // *copy_ptr++ = *source_ptr++;
 715:sieve_extend.c **** //        *copy_ptr = *source_ptr;
 716:sieve_extend.c **** //        copy_ptr++;
 717:sieve_extend.c **** //        source_ptr++;
 718:sieve_extend.c **** //    }
 719:sieve_extend.c **** //
 720:sieve_extend.c **** //}
 721:sieve_extend.c **** 
 722:sieve_extend.c **** 
 723:sieve_extend.c **** static void extendSieve_shiftright_ivdep(bitword_t* bitarray, const counter_t source_start, const c
 1231              		.loc 1 723 149 is_stmt 1 view -0
 1232              		.cfi_startproc
 724:sieve_extend.c ****     debug printf("Extending sieve size %ju in %ju bit range (%ju-%ju) using shiftright (%ju copies)
 1233              		.loc 1 724 5 view .LVU360
GAS LISTING /tmp/ccH5HMHD.s 			page 40


 725:sieve_extend.c ****    
 726:sieve_extend.c ****     const counter_t destination_stop_word = wordindex(destination_stop);
 1234              		.loc 1 726 5 view .LVU361
 1235              	# sieve_extend.c:723: static void extendSieve_shiftright_ivdep(bitword_t* bitarray, const counter_t
 723:sieve_extend.c ****     debug printf("Extending sieve size %ju in %ju bit range (%ju-%ju) using shiftright (%ju copies)
 1236              		.loc 1 723 149 is_stmt 0 view .LVU362
 1237 06c0 55       		push	rbp	#
 1238              		.cfi_def_cfa_offset 16
 1239              		.cfi_offset 6, -16
 1240              	# sieve_extend.c:727:     const counter_t copy_start = source_start + size;
 727:sieve_extend.c ****     const counter_t copy_start = source_start + size;
 1241              		.loc 1 727 21 view .LVU363
 1242 06c1 4C8D0416 		lea	r8, [rsi+rdx]	# copy_start,
 1243              	# sieve_extend.c:726:     const counter_t destination_stop_word = wordindex(destination_stop);
 726:sieve_extend.c ****     const counter_t copy_start = source_start + size;
 1244              		.loc 1 726 21 view .LVU364
 1245 06c5 4889C8   		mov	rax, rcx	# destination_stop_word, destination_stop
 1246              	# sieve_extend.c:723: static void extendSieve_shiftright_ivdep(bitword_t* bitarray, const counter_t
 723:sieve_extend.c ****     debug printf("Extending sieve size %ju in %ju bit range (%ju-%ju) using shiftright (%ju copies)
 1247              		.loc 1 723 149 view .LVU365
 1248 06c8 4889E5   		mov	rbp, rsp	#,
 1249              		.cfi_def_cfa_register 6
 1250              	# sieve_extend.c:728:     register const bitshift_t shift = bitindex_calc(copy_start) - bitindex_ca
 728:sieve_extend.c ****     register const bitshift_t shift = bitindex_calc(copy_start) - bitindex_calc(source_start);
 1251              		.loc 1 728 39 view .LVU366
 1252 06cb 4D89C2   		mov	r10, r8	# _4, copy_start
 1253              	# sieve_extend.c:723: static void extendSieve_shiftright_ivdep(bitword_t* bitarray, const counter_t
 723:sieve_extend.c ****     debug printf("Extending sieve size %ju in %ju bit range (%ju-%ju) using shiftright (%ju copies)
 1254              		.loc 1 723 149 view .LVU367
 1255 06ce 4157     		push	r15	#
 1256              	# sieve_extend.c:731:     register counter_t copy_word = wordindex(copy_start);
 729:sieve_extend.c ****     register const bitshift_t shift_flipped = WORD_SIZE_bitshift-shift;
 730:sieve_extend.c ****     register counter_t source_word = wordindex(source_start);
 731:sieve_extend.c ****     register counter_t copy_word = wordindex(copy_start);
 1257              		.loc 1 731 24 view .LVU368
 1258 06d0 49C1E806 		shr	r8, 6	# copy_word,
 1259              	# sieve_extend.c:728:     register const bitshift_t shift = bitindex_calc(copy_start) - bitindex_ca
 728:sieve_extend.c ****     register const bitshift_t shift_flipped = WORD_SIZE_bitshift-shift;
 1260              		.loc 1 728 39 view .LVU369
 1261 06d4 4183E23F 		and	r10d, 63	# _4,
 1262              	# sieve_extend.c:723: static void extendSieve_shiftright_ivdep(bitword_t* bitarray, const counter_t
 723:sieve_extend.c ****     debug printf("Extending sieve size %ju in %ju bit range (%ju-%ju) using shiftright (%ju copies)
 1263              		.loc 1 723 149 view .LVU370
 1264 06d8 4156     		push	r14	#
 1265              	# sieve_extend.c:726:     const counter_t destination_stop_word = wordindex(destination_stop);
 726:sieve_extend.c ****     const counter_t copy_start = source_start + size;
 1266              		.loc 1 726 21 view .LVU371
 1267 06da 48C1E806 		shr	rax, 6	# destination_stop_word,
 1268              		.cfi_offset 15, -24
 1269              		.cfi_offset 14, -32
 1270              	# sieve_extend.c:728:     register const bitshift_t shift = bitindex_calc(copy_start) - bitindex_ca
 728:sieve_extend.c ****     register const bitshift_t shift_flipped = WORD_SIZE_bitshift-shift;
 1271              		.loc 1 728 31 view .LVU372
 1272 06de 4D89D6   		mov	r14, r10	# shift, _4
 1273              	# sieve_extend.c:723: static void extendSieve_shiftright_ivdep(bitword_t* bitarray, const counter_t
 723:sieve_extend.c ****     debug printf("Extending sieve size %ju in %ju bit range (%ju-%ju) using shiftright (%ju copies)
 1274              		.loc 1 723 149 view .LVU373
GAS LISTING /tmp/ccH5HMHD.s 			page 41


 1275 06e1 4155     		push	r13	#
 1276 06e3 F7D1     		not	ecx	# tmp401
 1277              	.LVL63:
 723:sieve_extend.c ****     debug printf("Extending sieve size %ju in %ju bit range (%ju-%ju) using shiftright (%ju copies)
 1278              		.loc 1 723 149 view .LVU374
 1279 06e5 4154     		push	r12	#
 1280              		.cfi_offset 13, -40
 1281              		.cfi_offset 12, -48
 1282 06e7 4E8D24C5 		lea	r12, 0[0+r8*8]	# _176,
 1282      00000000 
 1283 06ef 53       		push	rbx	#
 1284 06f0 4E8D2C27 		lea	r13, [rdi+r12]	# _177,
 1285 06f4 4D8B7D00 		mov	r15, QWORD PTR 0[r13]	# pretmp_178, *_177
 1286 06f8 4883E4E0 		and	rsp, -32	#,
 1287              		.cfi_offset 3, -56
 1288              	.LVL64:
 727:sieve_extend.c ****     register const bitshift_t shift = bitindex_calc(copy_start) - bitindex_calc(source_start);
 1289              		.loc 1 727 5 is_stmt 1 view .LVU375
 728:sieve_extend.c ****     register const bitshift_t shift_flipped = WORD_SIZE_bitshift-shift;
 1290              		.loc 1 728 5 view .LVU376
 1291              	# sieve_extend.c:726:     const counter_t destination_stop_word = wordindex(destination_stop);
 726:sieve_extend.c ****     const counter_t copy_start = source_start + size;
 1292              		.loc 1 726 21 is_stmt 0 view .LVU377
 1293 06fc 48894424 		mov	QWORD PTR -8[rsp], rax	# %sfp, destination_stop_word
 1293      F8
 1294              	.LVL65:
 1295              	# sieve_extend.c:728:     register const bitshift_t shift = bitindex_calc(copy_start) - bitindex_ca
 728:sieve_extend.c ****     register const bitshift_t shift_flipped = WORD_SIZE_bitshift-shift;
 1296              		.loc 1 728 67 view .LVU378
 1297 0701 4889F0   		mov	rax, rsi	# _5, source_start
 1298              	# sieve_extend.c:730:     register counter_t source_word = wordindex(source_start);
 730:sieve_extend.c ****     register counter_t copy_word = wordindex(copy_start);
 1299              		.loc 1 730 24 view .LVU379
 1300 0704 48C1EE06 		shr	rsi, 6	# source_word,
 1301              	.LVL66:
 1302              	# sieve_extend.c:728:     register const bitshift_t shift = bitindex_calc(copy_start) - bitindex_ca
 728:sieve_extend.c ****     register const bitshift_t shift_flipped = WORD_SIZE_bitshift-shift;
 1303              		.loc 1 728 67 view .LVU380
 1304 0708 83E03F   		and	eax, 63	# _5,
 1305              	.LVL67:
 729:sieve_extend.c ****     register counter_t source_word = wordindex(source_start);
 1306              		.loc 1 729 5 is_stmt 1 view .LVU381
 730:sieve_extend.c ****     register counter_t copy_word = wordindex(copy_start);
 1307              		.loc 1 730 5 view .LVU382
 1308              		.loc 1 731 5 view .LVU383
 732:sieve_extend.c **** 
 733:sieve_extend.c ****     if (copy_word >= destination_stop_word) { 
 1309              		.loc 1 733 5 view .LVU384
 1310              	# sieve_extend.c:728:     register const bitshift_t shift = bitindex_calc(copy_start) - bitindex_ca
 728:sieve_extend.c ****     register const bitshift_t shift_flipped = WORD_SIZE_bitshift-shift;
 1311              		.loc 1 728 31 is_stmt 0 view .LVU385
 1312 070b 4929C6   		sub	r14, rax	# shift, _5
 1313              	.LVL68:
 728:sieve_extend.c ****     register const bitshift_t shift_flipped = WORD_SIZE_bitshift-shift;
 1314              		.loc 1 728 31 view .LVU386
 1315 070e 488D1CF5 		lea	rbx, 0[0+rsi*8]	# _179,
 1315      00000000 
GAS LISTING /tmp/ccH5HMHD.s 			page 42


 1316              	# sieve_extend.c:729:     register const bitshift_t shift_flipped = WORD_SIZE_bitshift-shift;
 729:sieve_extend.c ****     register counter_t source_word = wordindex(source_start);
 1317              		.loc 1 729 31 view .LVU387
 1318 0716 4883C040 		add	rax, 64	# tmp394,
 1319              	.LVL69:
 729:sieve_extend.c ****     register counter_t source_word = wordindex(source_start);
 1320              		.loc 1 729 31 view .LVU388
 1321 071a 4C8D1C1F 		lea	r11, [rdi+rbx]	# _180,
 1322 071e 4C897C24 		mov	QWORD PTR -24[rsp], r15	# %sfp, pretmp_178
 1322      E8
 1323 0723 4C29D0   		sub	rax, r10	# shift_flipped, _4
 1324              	.LVL70:
 729:sieve_extend.c ****     register counter_t source_word = wordindex(source_start);
 1325              		.loc 1 729 31 view .LVU389
 1326 0726 C44289F7 		shlx	r9, QWORD PTR [r11], r14	# tmp396, *_180, shift
 1326      0B
 1327 072b C442FBF7 		shrx	r15, r15, rax	# tmp398, pretmp_178, shift_flipped
 1327      FF
 1328 0730 44897424 		mov	DWORD PTR -12[rsp], r14d	# %sfp, shift
 1328      F4
 1329 0735 4D09F9   		or	r9, r15	# _186, tmp398
 1330              	# sieve_extend.c:733:     if (copy_word >= destination_stop_word) { 
 1331              		.loc 1 733 8 view .LVU390
 1332 0738 4C394424 		cmp	QWORD PTR -8[rsp], r8	# %sfp, copy_word
 1332      F8
 1333 073d 49C7C7FF 		mov	r15, -1	# tmp400,
 1333      FFFFFF
 1334 0744 894424F0 		mov	DWORD PTR -16[rsp], eax	# %sfp, shift_flipped
 1335 0748 C442A9F7 		shlx	r10, r15, r10	# _189, tmp400, _4
 1335      D7
 1336              	.LVL71:
 1337              		.loc 1 733 8 view .LVU391
 1338 074d C442F3F7 		shrx	r15, r15, rcx	# _193, tmp400, tmp401
 1338      FF
 1339 0752 0F86F80A 		jbe	.L260	#,
 1339      0000
 734:sieve_extend.c ****         bitarray[copy_word] |= ((bitarray[source_word] << shift)  // or the start in to not lose da
 735:sieve_extend.c ****                                 | (bitarray[copy_word] >> shift_flipped))
 736:sieve_extend.c ****                                 & keepmask(copy_start) & chopmask(destination_stop);
 737:sieve_extend.c ****         return; // rapid exit for one word variant
 738:sieve_extend.c ****     }
 739:sieve_extend.c **** 
 740:sieve_extend.c ****     bitarray[copy_word] |= ((bitarray[source_word] << shift)  // or the start in to not lose data
 1340              		.loc 1 740 5 is_stmt 1 view .LVU392
 1341              	# sieve_extend.c:742:                                 & keepmask(copy_start);
 741:sieve_extend.c ****                                 | (bitarray[copy_word] >> shift_flipped))
 742:sieve_extend.c ****                                 & keepmask(copy_start);
 1342              		.loc 1 742 33 is_stmt 0 view .LVU393
 1343 0758 4D21D1   		and	r9, r10	# tmp407, _189
 1344              	# sieve_extend.c:744:     copy_word++;
 743:sieve_extend.c **** 
 744:sieve_extend.c ****     copy_word++;
 1345              		.loc 1 744 14 view .LVU394
 1346 075b 498D4801 		lea	rcx, 1[r8]	# copy_word,
 1347              	# sieve_extend.c:740:     bitarray[copy_word] |= ((bitarray[source_word] << shift)  // or the start
 740:sieve_extend.c ****                                 | (bitarray[copy_word] >> shift_flipped))
 1348              		.loc 1 740 25 view .LVU395
GAS LISTING /tmp/ccH5HMHD.s 			page 43


 1349 075f 4C0B4C24 		or	r9, QWORD PTR -24[rsp]	# tmp408, %sfp
 1349      E8
 1350              	# sieve_extend.c:748:     if (size >= WORD_SIZE_counter) {
 745:sieve_extend.c **** 
 746:sieve_extend.c ****     debug { printf("...start - %ju - %ju - end\n",(uintmax_t)wordindex(copy_start), (uintmax_t)dest
 747:sieve_extend.c **** 
 748:sieve_extend.c ****     if (size >= WORD_SIZE_counter) {
 1351              		.loc 1 748 8 view .LVU396
 1352 0764 4883FA3F 		cmp	rdx, 63	# size,
 1353              	# sieve_extend.c:740:     bitarray[copy_word] |= ((bitarray[source_word] << shift)  // or the start
 740:sieve_extend.c ****                                 | (bitarray[copy_word] >> shift_flipped))
 1354              		.loc 1 740 25 view .LVU397
 1355 0768 4D894D00 		mov	QWORD PTR 0[r13], r9	# *_177, tmp408
 744:sieve_extend.c **** 
 1356              		.loc 1 744 5 is_stmt 1 view .LVU398
 1357              	.LVL72:
 746:sieve_extend.c **** 
 1358              		.loc 1 746 5 view .LVU399
 1359              		.loc 1 748 5 view .LVU400
 1360              	# sieve_extend.c:748:     if (size >= WORD_SIZE_counter) {
 1361              		.loc 1 748 8 is_stmt 0 view .LVU401
 1362 076c 0F876604 		ja	.L261	#,
 1362      0000
 749:sieve_extend.c ****         register const counter_t loop_distance = destination_stop_word - copy_word;
 750:sieve_extend.c **** 
 751:sieve_extend.c ****         #pragma unroll
 752:sieve_extend.c ****         #pragma ivdep
 753:sieve_extend.c ****         for (register counter_t i = 0; i <loop_distance; i++) {
 754:sieve_extend.c ****             bitarray[copy_word+i] = (bitarray[source_word+i] >> shift_flipped) | (bitarray[source_w
 755:sieve_extend.c ****         }
 756:sieve_extend.c ****         source_word += loop_distance; copy_word+= loop_distance;
 757:sieve_extend.c ****     }
 758:sieve_extend.c **** 
 759:sieve_extend.c ****     for (; copy_word <= destination_stop_word; copy_word++,source_word++ ) {
 1363              		.loc 1 759 12 is_stmt 1 discriminator 1 view .LVU402
 1364              	# sieve_extend.c:759:     for (; copy_word <= destination_stop_word; copy_word++,source_word++ ) {
 1365              		.loc 1 759 5 is_stmt 0 discriminator 1 view .LVU403
 1366 0772 4C8B5C24 		mov	r11, QWORD PTR -8[rsp]	# destination_stop_word, %sfp
 1366      F8
 1367 0777 4939CB   		cmp	r11, rcx	# destination_stop_word, copy_word
 1368 077a 0F824104 		jb	.L66	#,
 1368      0000
 1369 0780 4D89DC   		mov	r12, r11	# _173, destination_stop_word
 1370 0783 498D5301 		lea	rdx, 1[r11]	# _198,
 1371              	.LVL73:
 1372              		.loc 1 759 5 discriminator 1 view .LVU404
 1373 0787 4929CC   		sub	r12, rcx	# _173, copy_word
 1374 078a 4C8D0CF5 		lea	r9, 40[0+rsi*8]	# _168,
 1374      28000000 
 1375 0792 4C896424 		mov	QWORD PTR -32[rsp], r12	# %sfp, _173
 1375      E0
 1376 0797 4C8D24CD 		lea	r12, 0[0+rcx*8]	# _166,
 1376      00000000 
 1377 079f 48895424 		mov	QWORD PTR -24[rsp], rdx	# %sfp, _198
 1377      E8
 1378 07a4 4D8D5424 		lea	r10, 32[r12]	# tmp497,
 1378      20
GAS LISTING /tmp/ccH5HMHD.s 			page 44


 1379 07a9 488D14F5 		lea	rdx, 0[0+rsi*8]	# _260,
 1379      00000000 
 1380 07b1 4D8D6802 		lea	r13, 2[r8]	# _175,
 1381 07b5 4C39D2   		cmp	rdx, r10	# _260, tmp497
 1382 07b8 410F9DC2 		setge	r10b	#, tmp499
 1383 07bc 4D39CC   		cmp	r12, r9	# _166, _168
 1384 07bf 410F9DC1 		setge	r9b	#, tmp501
 1385 07c3 4508CA   		or	r10b, r9b	# tmp499, tmp501
 1386 07c6 0F843808 		je	.L56	#,
 1386      0000
 1387 07cc 48837C24 		cmp	QWORD PTR -32[rsp], 5	# %sfp,
 1387      E005
 1388 07d2 410F97C2 		seta	r10b	#, tmp504
 1389 07d6 4C3B6C24 		cmp	r13, QWORD PTR -24[rsp]	# _175, %sfp
 1389      E8
 1390 07db 410F96C1 		setbe	r9b	#, tmp506
 1391 07df 4584CA   		test	r10b, r9b	# tmp504, tmp506
 1392 07e2 0F841C08 		je	.L56	#,
 1392      0000
 1393 07e8 4D29C3   		sub	r11, r8	# tmp508, copy_word
 1394 07eb 4C3B6C24 		cmp	r13, QWORD PTR -24[rsp]	# _175, %sfp
 1394      E8
 1395 07f0 41B90100 		mov	r9d, 1	# tmp509,
 1395      0000
 1396 07f6 4D0F46CB 		cmovbe	r9, r11	# tmp508,, niters.171
 1397 07fa 4801FA   		add	rdx, rdi	# vectp.172, bitarray
 1398 07fd 48C1EA03 		shr	rdx, 3	# tmp511,
 1399 0801 48F7DA   		neg	rdx	# tmp512
 1400 0804 83E203   		and	edx, 3	# prolog_loop_niters.173,
 1401 0807 0F847B0A 		je	.L77	#,
 1401      0000
 760:sieve_extend.c ****         bitarray[copy_word] = (bitarray[source_word] >> shift_flipped) | (bitarray[source_word+1] <
 1402              		.loc 1 760 9 is_stmt 1 view .LVU405
 1403              	# sieve_extend.c:760:         bitarray[copy_word] = (bitarray[source_word] >> shift_flipped) | (bit
 1404              		.loc 1 760 99 is_stmt 0 view .LVU406
 1405 080d 488B5C1F 		mov	rbx, QWORD PTR 8[rdi+rbx]	# *_354, *_354
 1405      08
 1406              	# sieve_extend.c:760:         bitarray[copy_word] = (bitarray[source_word] >> shift_flipped) | (bit
 1407              		.loc 1 760 83 view .LVU407
 1408 0812 4C8D5601 		lea	r10, 1[rsi]	# tmp566,
 1409              	# sieve_extend.c:760:         bitarray[copy_word] = (bitarray[source_word] >> shift_flipped) | (bit
 1410              		.loc 1 760 99 view .LVU408
 1411 0816 C46289F7 		shlx	r11, rbx, r14	# tmp513, *_354, shift
 1411      DB
 1412              	# sieve_extend.c:760:         bitarray[copy_word] = (bitarray[source_word] >> shift_flipped) | (bit
 1413              		.loc 1 760 54 view .LVU409
 1414 081b C4E2FBF7 		shrx	rbx, QWORD PTR [rdi+rsi*8], rax	# tmp515, *_349, shift_flipped
 1414      1CF7
 1415              	# sieve_extend.c:760:         bitarray[copy_word] = (bitarray[source_word] >> shift_flipped) | (bit
 1416              		.loc 1 760 83 view .LVU410
 1417 0821 4C895424 		mov	QWORD PTR -40[rsp], r10	# %sfp, tmp566
 1417      D8
 1418              	# sieve_extend.c:760:         bitarray[copy_word] = (bitarray[source_word] >> shift_flipped) | (bit
 1419              		.loc 1 760 72 view .LVU411
 1420 0826 4909DB   		or	r11, rbx	# tmp517, tmp515
 1421 0829 4E891C27 		mov	QWORD PTR [rdi+r12], r11	# *_358, tmp517
 759:sieve_extend.c ****         bitarray[copy_word] = (bitarray[source_word] >> shift_flipped) | (bitarray[source_word+1] <
GAS LISTING /tmp/ccH5HMHD.s 			page 45


 1422              		.loc 1 759 48 is_stmt 1 view .LVU412
 1423              	.LVL74:
 759:sieve_extend.c ****         bitarray[copy_word] = (bitarray[source_word] >> shift_flipped) | (bitarray[source_word+1] <
 1424              		.loc 1 759 12 view .LVU413
 1425 082d 4883FA01 		cmp	rdx, 1	# prolog_loop_niters.173,
 1426              	# sieve_extend.c:760:         bitarray[copy_word] = (bitarray[source_word] >> shift_flipped) | (bit
 1427              		.loc 1 760 29 is_stmt 0 view .LVU414
 1428 0831 4D89EC   		mov	r12, r13	# copy_word, _175
 1429 0834 745E     		je	.L67	#,
 1430              		.loc 1 760 9 is_stmt 1 view .LVU415
 1431              	# sieve_extend.c:760:         bitarray[copy_word] = (bitarray[source_word] >> shift_flipped) | (bit
 1432              		.loc 1 760 40 is_stmt 0 view .LVU416
 1433 0836 4E8D24D5 		lea	r12, 0[0+r10*8]	# _367,
 1433      00000000 
 1434              	# sieve_extend.c:760:         bitarray[copy_word] = (bitarray[source_word] >> shift_flipped) | (bit
 1435              		.loc 1 760 83 view .LVU417
 1436 083e 4C8D5E02 		lea	r11, 2[rsi]	# source_word,
 1437              	# sieve_extend.c:760:         bitarray[copy_word] = (bitarray[source_word] >> shift_flipped) | (bit
 1438              		.loc 1 760 54 view .LVU418
 1439 0842 4A8B1C27 		mov	rbx, QWORD PTR [rdi+r12]	# *_368, *_368
 1440              	# sieve_extend.c:760:         bitarray[copy_word] = (bitarray[source_word] >> shift_flipped) | (bit
 1441              		.loc 1 760 83 view .LVU419
 1442 0846 4C895C24 		mov	QWORD PTR -40[rsp], r11	# %sfp, source_word
 1442      D8
 1443              	# sieve_extend.c:760:         bitarray[copy_word] = (bitarray[source_word] >> shift_flipped) | (bit
 1444              		.loc 1 760 99 view .LVU420
 1445 084b C42289F7 		shlx	r11, QWORD PTR 8[rdi+r12], r14	# tmp518, *_373, shift
 1445      5C2708
 1446              	# sieve_extend.c:760:         bitarray[copy_word] = (bitarray[source_word] >> shift_flipped) | (bit
 1447              		.loc 1 760 54 view .LVU421
 1448 0852 C462FBF7 		shrx	r12, rbx, rax	# tmp520, *_368, shift_flipped
 1448      E3
 1449              	# sieve_extend.c:760:         bitarray[copy_word] = (bitarray[source_word] >> shift_flipped) | (bit
 1450              		.loc 1 760 72 view .LVU422
 1451 0857 4D09E3   		or	r11, r12	# tmp522, tmp520
 1452 085a 4883FA03 		cmp	rdx, 3	# prolog_loop_niters.173,
 1453              	# sieve_extend.c:759:     for (; copy_word <= destination_stop_word; copy_word++,source_word++ ) {
 759:sieve_extend.c ****         bitarray[copy_word] = (bitarray[source_word] >> shift_flipped) | (bitarray[source_word+1] <
 1454              		.loc 1 759 57 view .LVU423
 1455 085e 4D8D6003 		lea	r12, 3[r8]	# copy_word,
 1456              	# sieve_extend.c:760:         bitarray[copy_word] = (bitarray[source_word] >> shift_flipped) | (bit
 1457              		.loc 1 760 72 view .LVU424
 1458 0862 4E891CEF 		mov	QWORD PTR [rdi+r13*8], r11	# *_377, tmp522
 759:sieve_extend.c ****         bitarray[copy_word] = (bitarray[source_word] >> shift_flipped) | (bitarray[source_word+1] <
 1459              		.loc 1 759 48 is_stmt 1 view .LVU425
 1460              	.LVL75:
 759:sieve_extend.c ****         bitarray[copy_word] = (bitarray[source_word] >> shift_flipped) | (bitarray[source_word+1] <
 1461              		.loc 1 759 12 view .LVU426
 1462 0866 752C     		jne	.L67	#,
 1463              		.loc 1 760 9 view .LVU427
 1464              	# sieve_extend.c:760:         bitarray[copy_word] = (bitarray[source_word] >> shift_flipped) | (bit
 1465              		.loc 1 760 40 is_stmt 0 view .LVU428
 1466 0868 488D5E02 		lea	rbx, 2[rsi]	# source_word,
 1467              	# sieve_extend.c:760:         bitarray[copy_word] = (bitarray[source_word] >> shift_flipped) | (bit
 1468              		.loc 1 760 83 view .LVU429
 1469 086c 4C8D5E03 		lea	r11, 3[rsi]	# source_word,
 1470 0870 4C895C24 		mov	QWORD PTR -40[rsp], r11	# %sfp, source_word
GAS LISTING /tmp/ccH5HMHD.s 			page 46


 1470      D8
 1471              	.LVL76:
 1472              	# sieve_extend.c:760:         bitarray[copy_word] = (bitarray[source_word] >> shift_flipped) | (bit
 1473              		.loc 1 760 40 view .LVU430
 1474 0875 48C1E303 		sal	rbx, 3	# source_word,
 1475              	.LVL77:
 1476              	# sieve_extend.c:760:         bitarray[copy_word] = (bitarray[source_word] >> shift_flipped) | (bit
 1477              		.loc 1 760 99 view .LVU431
 1478 0879 C46289F7 		shlx	r11, QWORD PTR 8[rdi+rbx], r14	# tmp523, *_111, shift
 1478      5C1F08
 1479              	# sieve_extend.c:760:         bitarray[copy_word] = (bitarray[source_word] >> shift_flipped) | (bit
 1480              		.loc 1 760 54 view .LVU432
 1481 0880 488B1C1F 		mov	rbx, QWORD PTR [rdi+rbx]	# *_121, *_121
 1482 0884 C4E2FBF7 		shrx	rbx, rbx, rax	# tmp525, *_121, shift_flipped
 1482      DB
 1483              	# sieve_extend.c:760:         bitarray[copy_word] = (bitarray[source_word] >> shift_flipped) | (bit
 1484              		.loc 1 760 72 view .LVU433
 1485 0889 4909DB   		or	r11, rbx	# tmp527, tmp525
 1486 088c 4E891CE7 		mov	QWORD PTR [rdi+r12*8], r11	# *_103, tmp527
 759:sieve_extend.c ****         bitarray[copy_word] = (bitarray[source_word] >> shift_flipped) | (bitarray[source_word+1] <
 1487              		.loc 1 759 48 is_stmt 1 view .LVU434
 1488              	# sieve_extend.c:759:     for (; copy_word <= destination_stop_word; copy_word++,source_word++ ) {
 759:sieve_extend.c ****         bitarray[copy_word] = (bitarray[source_word] >> shift_flipped) | (bitarray[source_word+1] <
 1489              		.loc 1 759 57 is_stmt 0 view .LVU435
 1490 0890 4D8D6004 		lea	r12, 4[r8]	# copy_word,
 1491              	.LVL78:
 759:sieve_extend.c ****         bitarray[copy_word] = (bitarray[source_word] >> shift_flipped) | (bitarray[source_word+1] <
 1492              		.loc 1 759 12 is_stmt 1 view .LVU436
 1493              	.L67:
 759:sieve_extend.c ****         bitarray[copy_word] = (bitarray[source_word] >> shift_flipped) | (bitarray[source_word+1] <
 1494              		.loc 1 759 12 is_stmt 0 view .LVU437
 1495 0894 4901D2   		add	r10, rdx	# tmp531, prolog_loop_niters.173
 1496 0897 4929D1   		sub	r9, rdx	# niters.174, prolog_loop_niters.173
 1497 089a 4E8D04D7 		lea	r8, [rdi+r10*8]	# vectp.184,
 1498 089e 4D89CA   		mov	r10, r9	# bnd.175, niters.174
 1499 08a1 49C1EA02 		shr	r10, 2	# bnd.175,
 1500 08a5 4801D6   		add	rsi, rdx	# tmp528, prolog_loop_niters.173
 1501 08a8 49C1E205 		sal	r10, 5	# _469,
 1502 08ac 4801D1   		add	rcx, rdx	# tmp533, prolog_loop_niters.173
 1503 08af 4D8D5AE0 		lea	r11, -32[r10]	# tmp588,
 1504              	# sieve_extend.c:744:     copy_word++;
 744:sieve_extend.c **** 
 1505              		.loc 1 744 14 view .LVU438
 1506 08b3 31D2     		xor	edx, edx	# ivtmp.222
 1507 08b5 488D34F7 		lea	rsi, [rdi+rsi*8]	# vectp.180,
 1508 08b9 488D0CCF 		lea	rcx, [rdi+rcx*8]	# vectp.189,
 1509 08bd 49C1EB05 		shr	r11, 5	# tmp586,
 1510 08c1 C5F96E4C 		vmovd	xmm1, DWORD PTR -16[rsp]	# _184, %sfp
 1510      24F0
 1511 08c7 4983C301 		add	r11, 1	# tmp589,
 1512 08cb C5F96E44 		vmovd	xmm0, DWORD PTR -12[rsp]	# _182, %sfp
 1512      24F4
 1513 08d1 4183E307 		and	r11d, 7	# tmp590,
 1514 08d5 0F841A01 		je	.L69	#,
 1514      0000
 1515 08db 4983FB01 		cmp	r11, 1	# tmp590,
 1516 08df 0F84E700 		je	.L191	#,
GAS LISTING /tmp/ccH5HMHD.s 			page 47


 1516      0000
 1517 08e5 4983FB02 		cmp	r11, 2	# tmp590,
 1518 08e9 0F84BD00 		je	.L192	#,
 1518      0000
 1519 08ef 4983FB03 		cmp	r11, 3	# tmp590,
 1520 08f3 0F849200 		je	.L193	#,
 1520      0000
 1521 08f9 4983FB04 		cmp	r11, 4	# tmp590,
 1522 08fd 746C     		je	.L194	#,
 1523 08ff 4983FB05 		cmp	r11, 5	# tmp590,
 1524 0903 7445     		je	.L195	#,
 1525 0905 4983FB06 		cmp	r11, 6	# tmp590,
 1526 0909 741E     		je	.L196	#,
 1527              		.loc 1 760 9 is_stmt 1 view .LVU439
 1528              	# sieve_extend.c:760:         bitarray[copy_word] = (bitarray[source_word] >> shift_flipped) | (bit
 1529              		.loc 1 760 54 is_stmt 0 view .LVU440
 1530 090b C5FD6F36 		vmovdqa	ymm6, YMMWORD PTR [rsi]	# tmp1085, MEM[base: vectp.180_10, index: ivtmp.222_467, offset: 0
 1531 090f BA200000 		mov	edx, 32	# ivtmp.222,
 1531      00
 1532              	# sieve_extend.c:760:         bitarray[copy_word] = (bitarray[source_word] >> shift_flipped) | (bit
 1533              		.loc 1 760 99 view .LVU441
 1534 0914 C4C17E6F 		vmovdqu	ymm7, YMMWORD PTR [r8]	# tmp1086, MEM[base: vectp.184_17, index: ivtmp.222_467, offset: 0B
 1534      38
 1535              	# sieve_extend.c:760:         bitarray[copy_word] = (bitarray[source_word] >> shift_flipped) | (bit
 1536              		.loc 1 760 54 view .LVU442
 1537 0919 C5CDD3D1 		vpsrlq	ymm2, ymm6, xmm1	# vect__62.182, tmp1085, _184
 1538              	# sieve_extend.c:760:         bitarray[copy_word] = (bitarray[source_word] >> shift_flipped) | (bit
 1539              		.loc 1 760 99 view .LVU443
 1540 091d C5C5F3D8 		vpsllq	ymm3, ymm7, xmm0	# vect__67.186, tmp1086, _182
 1541              	# sieve_extend.c:760:         bitarray[copy_word] = (bitarray[source_word] >> shift_flipped) | (bit
 1542              		.loc 1 760 72 view .LVU444
 1543 0921 C5EDEBE3 		vpor	ymm4, ymm2, ymm3	# vect__70.187, vect__62.182, vect__67.186
 1544              	# sieve_extend.c:760:         bitarray[copy_word] = (bitarray[source_word] >> shift_flipped) | (bit
 1545              		.loc 1 760 29 view .LVU445
 1546 0925 C5FE7F21 		vmovdqu	YMMWORD PTR [rcx], ymm4	# MEM[base: vectp.189_212, index: ivtmp.222_467, offset: 0B], vect
 759:sieve_extend.c ****         bitarray[copy_word] = (bitarray[source_word] >> shift_flipped) | (bitarray[source_word+1] <
 1547              		.loc 1 759 48 is_stmt 1 view .LVU446
 759:sieve_extend.c ****         bitarray[copy_word] = (bitarray[source_word] >> shift_flipped) | (bitarray[source_word+1] <
 1548              		.loc 1 759 12 view .LVU447
 1549              	.L196:
 1550              		.loc 1 760 9 view .LVU448
 1551              	# sieve_extend.c:760:         bitarray[copy_word] = (bitarray[source_word] >> shift_flipped) | (bit
 1552              		.loc 1 760 54 is_stmt 0 view .LVU449
 1553 0929 C5FD6F2C 		vmovdqa	ymm5, YMMWORD PTR [rsi+rdx]	# tmp1087, MEM[base: vectp.180_10, index: ivtmp.222_467, offse
 1553      16
 1554              	# sieve_extend.c:760:         bitarray[copy_word] = (bitarray[source_word] >> shift_flipped) | (bit
 1555              		.loc 1 760 99 view .LVU450
 1556 092e C4417E6F 		vmovdqu	ymm9, YMMWORD PTR [r8+rdx]	# tmp1088, MEM[base: vectp.184_17, index: ivtmp.222_467, offset
 1556      0C10
 1557              	# sieve_extend.c:760:         bitarray[copy_word] = (bitarray[source_word] >> shift_flipped) | (bit
 1558              		.loc 1 760 54 view .LVU451
 1559 0934 C555D3C1 		vpsrlq	ymm8, ymm5, xmm1	# vect__62.182, tmp1087, _184
 1560              	# sieve_extend.c:760:         bitarray[copy_word] = (bitarray[source_word] >> shift_flipped) | (bit
 1561              		.loc 1 760 99 view .LVU452
 1562 0938 C535F3D0 		vpsllq	ymm10, ymm9, xmm0	# vect__67.186, tmp1088, _182
 1563              	# sieve_extend.c:760:         bitarray[copy_word] = (bitarray[source_word] >> shift_flipped) | (bit
 1564              		.loc 1 760 72 view .LVU453
GAS LISTING /tmp/ccH5HMHD.s 			page 48


 1565 093c C4413DEB 		vpor	ymm11, ymm8, ymm10	# vect__70.187, vect__62.182, vect__67.186
 1565      DA
 1566              	# sieve_extend.c:760:         bitarray[copy_word] = (bitarray[source_word] >> shift_flipped) | (bit
 1567              		.loc 1 760 29 view .LVU454
 1568 0941 C57E7F1C 		vmovdqu	YMMWORD PTR [rcx+rdx], ymm11	# MEM[base: vectp.189_212, index: ivtmp.222_467, offset: 0B],
 1568      11
 759:sieve_extend.c ****         bitarray[copy_word] = (bitarray[source_word] >> shift_flipped) | (bitarray[source_word+1] <
 1569              		.loc 1 759 48 is_stmt 1 view .LVU455
 759:sieve_extend.c ****         bitarray[copy_word] = (bitarray[source_word] >> shift_flipped) | (bitarray[source_word+1] <
 1570              		.loc 1 759 12 view .LVU456
 1571 0946 4883C220 		add	rdx, 32	# ivtmp.222,
 1572              	.L195:
 1573              		.loc 1 760 9 view .LVU457
 1574              	# sieve_extend.c:760:         bitarray[copy_word] = (bitarray[source_word] >> shift_flipped) | (bit
 1575              		.loc 1 760 54 is_stmt 0 view .LVU458
 1576 094a C57D6F24 		vmovdqa	ymm12, YMMWORD PTR [rsi+rdx]	# tmp1089, MEM[base: vectp.180_10, index: ivtmp.222_467, offs
 1576      16
 1577              	# sieve_extend.c:760:         bitarray[copy_word] = (bitarray[source_word] >> shift_flipped) | (bit
 1578              		.loc 1 760 99 view .LVU459
 1579 094f C4417E6F 		vmovdqu	ymm14, YMMWORD PTR [r8+rdx]	# tmp1090, MEM[base: vectp.184_17, index: ivtmp.222_467, offse
 1579      3410
 1580              	# sieve_extend.c:760:         bitarray[copy_word] = (bitarray[source_word] >> shift_flipped) | (bit
 1581              		.loc 1 760 54 view .LVU460
 1582 0955 C51DD3E9 		vpsrlq	ymm13, ymm12, xmm1	# vect__62.182, tmp1089, _184
 1583              	# sieve_extend.c:760:         bitarray[copy_word] = (bitarray[source_word] >> shift_flipped) | (bit
 1584              		.loc 1 760 99 view .LVU461
 1585 0959 C50DF3F8 		vpsllq	ymm15, ymm14, xmm0	# vect__67.186, tmp1090, _182
 1586              	# sieve_extend.c:760:         bitarray[copy_word] = (bitarray[source_word] >> shift_flipped) | (bit
 1587              		.loc 1 760 72 view .LVU462
 1588 095d C4C115EB 		vpor	ymm6, ymm13, ymm15	# vect__70.187, vect__62.182, vect__67.186
 1588      F7
 1589              	# sieve_extend.c:760:         bitarray[copy_word] = (bitarray[source_word] >> shift_flipped) | (bit
 1590              		.loc 1 760 29 view .LVU463
 1591 0962 C5FE7F34 		vmovdqu	YMMWORD PTR [rcx+rdx], ymm6	# MEM[base: vectp.189_212, index: ivtmp.222_467, offset: 0B], 
 1591      11
 759:sieve_extend.c ****         bitarray[copy_word] = (bitarray[source_word] >> shift_flipped) | (bitarray[source_word+1] <
 1592              		.loc 1 759 48 is_stmt 1 view .LVU464
 759:sieve_extend.c ****         bitarray[copy_word] = (bitarray[source_word] >> shift_flipped) | (bitarray[source_word+1] <
 1593              		.loc 1 759 12 view .LVU465
 1594 0967 4883C220 		add	rdx, 32	# ivtmp.222,
 1595              	.L194:
 1596              		.loc 1 760 9 view .LVU466
 1597              	# sieve_extend.c:760:         bitarray[copy_word] = (bitarray[source_word] >> shift_flipped) | (bit
 1598              		.loc 1 760 54 is_stmt 0 view .LVU467
 1599 096b C5FD6F14 		vmovdqa	ymm2, YMMWORD PTR [rsi+rdx]	# tmp1091, MEM[base: vectp.180_10, index: ivtmp.222_467, offse
 1599      16
 1600              	# sieve_extend.c:760:         bitarray[copy_word] = (bitarray[source_word] >> shift_flipped) | (bit
 1601              		.loc 1 760 99 view .LVU468
 1602 0970 C4C17E6F 		vmovdqu	ymm3, YMMWORD PTR [r8+rdx]	# tmp1092, MEM[base: vectp.184_17, index: ivtmp.222_467, offset
 1602      1C10
 1603              	# sieve_extend.c:760:         bitarray[copy_word] = (bitarray[source_word] >> shift_flipped) | (bit
 1604              		.loc 1 760 54 view .LVU469
 1605 0976 C5EDD3F9 		vpsrlq	ymm7, ymm2, xmm1	# vect__62.182, tmp1091, _184
 1606              	# sieve_extend.c:760:         bitarray[copy_word] = (bitarray[source_word] >> shift_flipped) | (bit
 1607              		.loc 1 760 99 view .LVU470
 1608 097a C5E5F3E0 		vpsllq	ymm4, ymm3, xmm0	# vect__67.186, tmp1092, _182
 1609              	# sieve_extend.c:760:         bitarray[copy_word] = (bitarray[source_word] >> shift_flipped) | (bit
GAS LISTING /tmp/ccH5HMHD.s 			page 49


 1610              		.loc 1 760 72 view .LVU471
 1611 097e C5C5EBEC 		vpor	ymm5, ymm7, ymm4	# vect__70.187, vect__62.182, vect__67.186
 1612              	# sieve_extend.c:760:         bitarray[copy_word] = (bitarray[source_word] >> shift_flipped) | (bit
 1613              		.loc 1 760 29 view .LVU472
 1614 0982 C5FE7F2C 		vmovdqu	YMMWORD PTR [rcx+rdx], ymm5	# MEM[base: vectp.189_212, index: ivtmp.222_467, offset: 0B], 
 1614      11
 759:sieve_extend.c ****         bitarray[copy_word] = (bitarray[source_word] >> shift_flipped) | (bitarray[source_word+1] <
 1615              		.loc 1 759 48 is_stmt 1 view .LVU473
 759:sieve_extend.c ****         bitarray[copy_word] = (bitarray[source_word] >> shift_flipped) | (bitarray[source_word+1] <
 1616              		.loc 1 759 12 view .LVU474
 1617 0987 4883C220 		add	rdx, 32	# ivtmp.222,
 1618              	.L193:
 1619              		.loc 1 760 9 view .LVU475
 1620              	# sieve_extend.c:760:         bitarray[copy_word] = (bitarray[source_word] >> shift_flipped) | (bit
 1621              		.loc 1 760 54 is_stmt 0 view .LVU476
 1622 098b C57D6F04 		vmovdqa	ymm8, YMMWORD PTR [rsi+rdx]	# tmp1093, MEM[base: vectp.180_10, index: ivtmp.222_467, offse
 1622      16
 1623              	# sieve_extend.c:760:         bitarray[copy_word] = (bitarray[source_word] >> shift_flipped) | (bit
 1624              		.loc 1 760 99 view .LVU477
 1625 0990 C4417E6F 		vmovdqu	ymm10, YMMWORD PTR [r8+rdx]	# tmp1094, MEM[base: vectp.184_17, index: ivtmp.222_467, offse
 1625      1410
 1626              	# sieve_extend.c:760:         bitarray[copy_word] = (bitarray[source_word] >> shift_flipped) | (bit
 1627              		.loc 1 760 54 view .LVU478
 1628 0996 C53DD3C9 		vpsrlq	ymm9, ymm8, xmm1	# vect__62.182, tmp1093, _184
 1629              	# sieve_extend.c:760:         bitarray[copy_word] = (bitarray[source_word] >> shift_flipped) | (bit
 1630              		.loc 1 760 99 view .LVU479
 1631 099a C52DF3D8 		vpsllq	ymm11, ymm10, xmm0	# vect__67.186, tmp1094, _182
 1632              	# sieve_extend.c:760:         bitarray[copy_word] = (bitarray[source_word] >> shift_flipped) | (bit
 1633              		.loc 1 760 72 view .LVU480
 1634 099e C44135EB 		vpor	ymm12, ymm9, ymm11	# vect__70.187, vect__62.182, vect__67.186
 1634      E3
 1635              	# sieve_extend.c:760:         bitarray[copy_word] = (bitarray[source_word] >> shift_flipped) | (bit
 1636              		.loc 1 760 29 view .LVU481
 1637 09a3 C57E7F24 		vmovdqu	YMMWORD PTR [rcx+rdx], ymm12	# MEM[base: vectp.189_212, index: ivtmp.222_467, offset: 0B],
 1637      11
 759:sieve_extend.c ****         bitarray[copy_word] = (bitarray[source_word] >> shift_flipped) | (bitarray[source_word+1] <
 1638              		.loc 1 759 48 is_stmt 1 view .LVU482
 759:sieve_extend.c ****         bitarray[copy_word] = (bitarray[source_word] >> shift_flipped) | (bitarray[source_word+1] <
 1639              		.loc 1 759 12 view .LVU483
 1640 09a8 4883C220 		add	rdx, 32	# ivtmp.222,
 1641              	.L192:
 1642              		.loc 1 760 9 view .LVU484
 1643              	# sieve_extend.c:760:         bitarray[copy_word] = (bitarray[source_word] >> shift_flipped) | (bit
 1644              		.loc 1 760 54 is_stmt 0 view .LVU485
 1645 09ac C57D6F2C 		vmovdqa	ymm13, YMMWORD PTR [rsi+rdx]	# tmp1095, MEM[base: vectp.180_10, index: ivtmp.222_467, offs
 1645      16
 1646              	# sieve_extend.c:760:         bitarray[copy_word] = (bitarray[source_word] >> shift_flipped) | (bit
 1647              		.loc 1 760 99 view .LVU486
 1648 09b1 C4417E6F 		vmovdqu	ymm15, YMMWORD PTR [r8+rdx]	# tmp1096, MEM[base: vectp.184_17, index: ivtmp.222_467, offse
 1648      3C10
 1649              	# sieve_extend.c:760:         bitarray[copy_word] = (bitarray[source_word] >> shift_flipped) | (bit
 1650              		.loc 1 760 54 view .LVU487
 1651 09b7 C515D3F1 		vpsrlq	ymm14, ymm13, xmm1	# vect__62.182, tmp1095, _184
 1652              	# sieve_extend.c:760:         bitarray[copy_word] = (bitarray[source_word] >> shift_flipped) | (bit
 1653              		.loc 1 760 99 view .LVU488
 1654 09bb C585F3F0 		vpsllq	ymm6, ymm15, xmm0	# vect__67.186, tmp1096, _182
 1655              	# sieve_extend.c:760:         bitarray[copy_word] = (bitarray[source_word] >> shift_flipped) | (bit
GAS LISTING /tmp/ccH5HMHD.s 			page 50


 1656              		.loc 1 760 72 view .LVU489
 1657 09bf C58DEBD6 		vpor	ymm2, ymm14, ymm6	# vect__70.187, vect__62.182, vect__67.186
 1658              	# sieve_extend.c:760:         bitarray[copy_word] = (bitarray[source_word] >> shift_flipped) | (bit
 1659              		.loc 1 760 29 view .LVU490
 1660 09c3 C5FE7F14 		vmovdqu	YMMWORD PTR [rcx+rdx], ymm2	# MEM[base: vectp.189_212, index: ivtmp.222_467, offset: 0B], 
 1660      11
 759:sieve_extend.c ****         bitarray[copy_word] = (bitarray[source_word] >> shift_flipped) | (bitarray[source_word+1] <
 1661              		.loc 1 759 48 is_stmt 1 view .LVU491
 759:sieve_extend.c ****         bitarray[copy_word] = (bitarray[source_word] >> shift_flipped) | (bitarray[source_word+1] <
 1662              		.loc 1 759 12 view .LVU492
 1663 09c8 4883C220 		add	rdx, 32	# ivtmp.222,
 1664              	.L191:
 1665              		.loc 1 760 9 view .LVU493
 1666              	# sieve_extend.c:760:         bitarray[copy_word] = (bitarray[source_word] >> shift_flipped) | (bit
 1667              		.loc 1 760 54 is_stmt 0 view .LVU494
 1668 09cc C5FD6F3C 		vmovdqa	ymm7, YMMWORD PTR [rsi+rdx]	# tmp1097, MEM[base: vectp.180_10, index: ivtmp.222_467, offse
 1668      16
 1669              	# sieve_extend.c:760:         bitarray[copy_word] = (bitarray[source_word] >> shift_flipped) | (bit
 1670              		.loc 1 760 99 view .LVU495
 1671 09d1 C4C17E6F 		vmovdqu	ymm3, YMMWORD PTR [r8+rdx]	# tmp1098, MEM[base: vectp.184_17, index: ivtmp.222_467, offset
 1671      1C10
 1672              	# sieve_extend.c:760:         bitarray[copy_word] = (bitarray[source_word] >> shift_flipped) | (bit
 1673              		.loc 1 760 54 view .LVU496
 1674 09d7 C5C5D3E1 		vpsrlq	ymm4, ymm7, xmm1	# vect__62.182, tmp1097, _184
 1675              	# sieve_extend.c:760:         bitarray[copy_word] = (bitarray[source_word] >> shift_flipped) | (bit
 1676              		.loc 1 760 99 view .LVU497
 1677 09db C5E5F3E8 		vpsllq	ymm5, ymm3, xmm0	# vect__67.186, tmp1098, _182
 1678              	# sieve_extend.c:760:         bitarray[copy_word] = (bitarray[source_word] >> shift_flipped) | (bit
 1679              		.loc 1 760 72 view .LVU498
 1680 09df C55DEBC5 		vpor	ymm8, ymm4, ymm5	# vect__70.187, vect__62.182, vect__67.186
 1681              	# sieve_extend.c:760:         bitarray[copy_word] = (bitarray[source_word] >> shift_flipped) | (bit
 1682              		.loc 1 760 29 view .LVU499
 1683 09e3 C57E7F04 		vmovdqu	YMMWORD PTR [rcx+rdx], ymm8	# MEM[base: vectp.189_212, index: ivtmp.222_467, offset: 0B], 
 1683      11
 759:sieve_extend.c ****         bitarray[copy_word] = (bitarray[source_word] >> shift_flipped) | (bitarray[source_word+1] <
 1684              		.loc 1 759 48 is_stmt 1 view .LVU500
 759:sieve_extend.c ****         bitarray[copy_word] = (bitarray[source_word] >> shift_flipped) | (bitarray[source_word+1] <
 1685              		.loc 1 759 12 view .LVU501
 1686 09e8 4883C220 		add	rdx, 32	# ivtmp.222,
 1687 09ec 4C39D2   		cmp	rdx, r10	# ivtmp.222, _469
 1688 09ef 0F842E01 		je	.L244	#,
 1688      0000
 1689              	.L69:
 1690              		.loc 1 760 9 discriminator 2 view .LVU502
 1691              	# sieve_extend.c:760:         bitarray[copy_word] = (bitarray[source_word] >> shift_flipped) | (bit
 1692              		.loc 1 760 54 is_stmt 0 discriminator 2 view .LVU503
 1693 09f5 C57D6F0C 		vmovdqa	ymm9, YMMWORD PTR [rsi+rdx]	# tmp1015, MEM[base: vectp.180_10, index: ivtmp.222_467, offse
 1693      16
 1694              	# sieve_extend.c:760:         bitarray[copy_word] = (bitarray[source_word] >> shift_flipped) | (bit
 1695              		.loc 1 760 99 discriminator 2 view .LVU504
 1696 09fa C4417E6F 		vmovdqu	ymm11, YMMWORD PTR [r8+rdx]	# tmp1016, MEM[base: vectp.184_17, index: ivtmp.222_467, offse
 1696      1C10
 1697              	# sieve_extend.c:760:         bitarray[copy_word] = (bitarray[source_word] >> shift_flipped) | (bit
 1698              		.loc 1 760 54 discriminator 2 view .LVU505
 1699 0a00 C535D3D1 		vpsrlq	ymm10, ymm9, xmm1	# vect__62.182, tmp1015, _184
 1700              	# sieve_extend.c:760:         bitarray[copy_word] = (bitarray[source_word] >> shift_flipped) | (bit
 1701              		.loc 1 760 99 discriminator 2 view .LVU506
GAS LISTING /tmp/ccH5HMHD.s 			page 51


 1702 0a04 C525F3E0 		vpsllq	ymm12, ymm11, xmm0	# vect__67.186, tmp1016, _182
 1703              	# sieve_extend.c:760:         bitarray[copy_word] = (bitarray[source_word] >> shift_flipped) | (bit
 1704              		.loc 1 760 72 discriminator 2 view .LVU507
 1705 0a08 C4412DEB 		vpor	ymm13, ymm10, ymm12	# vect__70.187, vect__62.182, vect__67.186
 1705      EC
 1706              	# sieve_extend.c:760:         bitarray[copy_word] = (bitarray[source_word] >> shift_flipped) | (bit
 1707              		.loc 1 760 29 discriminator 2 view .LVU508
 1708 0a0d C57E7F2C 		vmovdqu	YMMWORD PTR [rcx+rdx], ymm13	# MEM[base: vectp.189_212, index: ivtmp.222_467, offset: 0B],
 1708      11
 759:sieve_extend.c ****         bitarray[copy_word] = (bitarray[source_word] >> shift_flipped) | (bitarray[source_word+1] <
 1709              		.loc 1 759 48 is_stmt 1 discriminator 2 view .LVU509
 759:sieve_extend.c ****         bitarray[copy_word] = (bitarray[source_word] >> shift_flipped) | (bitarray[source_word+1] <
 1710              		.loc 1 759 12 discriminator 2 view .LVU510
 1711              		.loc 1 760 9 discriminator 2 view .LVU511
 1712              	# sieve_extend.c:760:         bitarray[copy_word] = (bitarray[source_word] >> shift_flipped) | (bit
 1713              		.loc 1 760 54 is_stmt 0 discriminator 2 view .LVU512
 1714 0a12 C57D6F74 		vmovdqa	ymm14, YMMWORD PTR 32[rsi+rdx]	# tmp1017, MEM[base: vectp.180_10, index: ivtmp.222_467, of
 1714      1620
 1715              	# sieve_extend.c:760:         bitarray[copy_word] = (bitarray[source_word] >> shift_flipped) | (bit
 1716              		.loc 1 760 99 discriminator 2 view .LVU513
 1717 0a18 C4C17E6F 		vmovdqu	ymm6, YMMWORD PTR 32[r8+rdx]	# tmp1018, MEM[base: vectp.184_17, index: ivtmp.222_467, offs
 1717      741020
 1718              	# sieve_extend.c:760:         bitarray[copy_word] = (bitarray[source_word] >> shift_flipped) | (bit
 1719              		.loc 1 760 54 discriminator 2 view .LVU514
 1720 0a1f C50DD3F9 		vpsrlq	ymm15, ymm14, xmm1	# vect__62.182, tmp1017, _184
 1721              	# sieve_extend.c:760:         bitarray[copy_word] = (bitarray[source_word] >> shift_flipped) | (bit
 1722              		.loc 1 760 99 discriminator 2 view .LVU515
 1723 0a23 C5CDF3D0 		vpsllq	ymm2, ymm6, xmm0	# vect__67.186, tmp1018, _182
 1724              	# sieve_extend.c:760:         bitarray[copy_word] = (bitarray[source_word] >> shift_flipped) | (bit
 1725              		.loc 1 760 72 discriminator 2 view .LVU516
 1726 0a27 C585EBFA 		vpor	ymm7, ymm15, ymm2	# vect__70.187, vect__62.182, vect__67.186
 1727              	# sieve_extend.c:760:         bitarray[copy_word] = (bitarray[source_word] >> shift_flipped) | (bit
 1728              		.loc 1 760 29 discriminator 2 view .LVU517
 1729 0a2b C5FE7F7C 		vmovdqu	YMMWORD PTR 32[rcx+rdx], ymm7	# MEM[base: vectp.189_212, index: ivtmp.222_467, offset: 0B]
 1729      1120
 759:sieve_extend.c ****         bitarray[copy_word] = (bitarray[source_word] >> shift_flipped) | (bitarray[source_word+1] <
 1730              		.loc 1 759 48 is_stmt 1 discriminator 2 view .LVU518
 759:sieve_extend.c ****         bitarray[copy_word] = (bitarray[source_word] >> shift_flipped) | (bitarray[source_word+1] <
 1731              		.loc 1 759 12 discriminator 2 view .LVU519
 1732              		.loc 1 760 9 discriminator 2 view .LVU520
 1733              	# sieve_extend.c:760:         bitarray[copy_word] = (bitarray[source_word] >> shift_flipped) | (bit
 1734              		.loc 1 760 54 is_stmt 0 discriminator 2 view .LVU521
 1735 0a31 C5FD6F64 		vmovdqa	ymm4, YMMWORD PTR 64[rsi+rdx]	# tmp1019, MEM[base: vectp.180_10, index: ivtmp.222_467, off
 1735      1640
 1736              	# sieve_extend.c:760:         bitarray[copy_word] = (bitarray[source_word] >> shift_flipped) | (bit
 1737              		.loc 1 760 99 discriminator 2 view .LVU522
 1738 0a37 C4C17E6F 		vmovdqu	ymm3, YMMWORD PTR 64[r8+rdx]	# tmp1020, MEM[base: vectp.184_17, index: ivtmp.222_467, offs
 1738      5C1040
 1739              	# sieve_extend.c:760:         bitarray[copy_word] = (bitarray[source_word] >> shift_flipped) | (bit
 1740              		.loc 1 760 54 discriminator 2 view .LVU523
 1741 0a3e C5DDD3E9 		vpsrlq	ymm5, ymm4, xmm1	# vect__62.182, tmp1019, _184
 1742              	# sieve_extend.c:760:         bitarray[copy_word] = (bitarray[source_word] >> shift_flipped) | (bit
 1743              		.loc 1 760 99 discriminator 2 view .LVU524
 1744 0a42 C565F3C0 		vpsllq	ymm8, ymm3, xmm0	# vect__67.186, tmp1020, _182
 1745              	# sieve_extend.c:760:         bitarray[copy_word] = (bitarray[source_word] >> shift_flipped) | (bit
 1746              		.loc 1 760 72 discriminator 2 view .LVU525
 1747 0a46 C44155EB 		vpor	ymm9, ymm5, ymm8	# vect__70.187, vect__62.182, vect__67.186
GAS LISTING /tmp/ccH5HMHD.s 			page 52


 1747      C8
 1748              	# sieve_extend.c:760:         bitarray[copy_word] = (bitarray[source_word] >> shift_flipped) | (bit
 1749              		.loc 1 760 29 discriminator 2 view .LVU526
 1750 0a4b C57E7F4C 		vmovdqu	YMMWORD PTR 64[rcx+rdx], ymm9	# MEM[base: vectp.189_212, index: ivtmp.222_467, offset: 0B]
 1750      1140
 759:sieve_extend.c ****         bitarray[copy_word] = (bitarray[source_word] >> shift_flipped) | (bitarray[source_word+1] <
 1751              		.loc 1 759 48 is_stmt 1 discriminator 2 view .LVU527
 759:sieve_extend.c ****         bitarray[copy_word] = (bitarray[source_word] >> shift_flipped) | (bitarray[source_word+1] <
 1752              		.loc 1 759 12 discriminator 2 view .LVU528
 1753              		.loc 1 760 9 discriminator 2 view .LVU529
 1754              	# sieve_extend.c:760:         bitarray[copy_word] = (bitarray[source_word] >> shift_flipped) | (bit
 1755              		.loc 1 760 54 is_stmt 0 discriminator 2 view .LVU530
 1756 0a51 C57D6F54 		vmovdqa	ymm10, YMMWORD PTR 96[rsi+rdx]	# tmp1021, MEM[base: vectp.180_10, index: ivtmp.222_467, of
 1756      1660
 1757              	# sieve_extend.c:760:         bitarray[copy_word] = (bitarray[source_word] >> shift_flipped) | (bit
 1758              		.loc 1 760 99 discriminator 2 view .LVU531
 1759 0a57 C4417E6F 		vmovdqu	ymm12, YMMWORD PTR 96[r8+rdx]	# tmp1022, MEM[base: vectp.184_17, index: ivtmp.222_467, off
 1759      641060
 1760              	# sieve_extend.c:760:         bitarray[copy_word] = (bitarray[source_word] >> shift_flipped) | (bit
 1761              		.loc 1 760 54 discriminator 2 view .LVU532
 1762 0a5e C52DD3D9 		vpsrlq	ymm11, ymm10, xmm1	# vect__62.182, tmp1021, _184
 1763              	# sieve_extend.c:760:         bitarray[copy_word] = (bitarray[source_word] >> shift_flipped) | (bit
 1764              		.loc 1 760 99 discriminator 2 view .LVU533
 1765 0a62 C51DF3E8 		vpsllq	ymm13, ymm12, xmm0	# vect__67.186, tmp1022, _182
 1766              	# sieve_extend.c:760:         bitarray[copy_word] = (bitarray[source_word] >> shift_flipped) | (bit
 1767              		.loc 1 760 72 discriminator 2 view .LVU534
 1768 0a66 C44125EB 		vpor	ymm14, ymm11, ymm13	# vect__70.187, vect__62.182, vect__67.186
 1768      F5
 1769              	# sieve_extend.c:760:         bitarray[copy_word] = (bitarray[source_word] >> shift_flipped) | (bit
 1770              		.loc 1 760 29 discriminator 2 view .LVU535
 1771 0a6b C57E7F74 		vmovdqu	YMMWORD PTR 96[rcx+rdx], ymm14	# MEM[base: vectp.189_212, index: ivtmp.222_467, offset: 0B
 1771      1160
 759:sieve_extend.c ****         bitarray[copy_word] = (bitarray[source_word] >> shift_flipped) | (bitarray[source_word+1] <
 1772              		.loc 1 759 48 is_stmt 1 discriminator 2 view .LVU536
 759:sieve_extend.c ****         bitarray[copy_word] = (bitarray[source_word] >> shift_flipped) | (bitarray[source_word+1] <
 1773              		.loc 1 759 12 discriminator 2 view .LVU537
 1774              		.loc 1 760 9 discriminator 2 view .LVU538
 1775              	# sieve_extend.c:760:         bitarray[copy_word] = (bitarray[source_word] >> shift_flipped) | (bit
 1776              		.loc 1 760 54 is_stmt 0 discriminator 2 view .LVU539
 1777 0a71 C57D6FBC 		vmovdqa	ymm15, YMMWORD PTR 128[rsi+rdx]	# tmp1023, MEM[base: vectp.180_10, index: ivtmp.222_467, o
 1777      16800000 
 1777      00
 1778              	# sieve_extend.c:760:         bitarray[copy_word] = (bitarray[source_word] >> shift_flipped) | (bit
 1779              		.loc 1 760 99 discriminator 2 view .LVU540
 1780 0a7a C4C17E6F 		vmovdqu	ymm2, YMMWORD PTR 128[r8+rdx]	# tmp1024, MEM[base: vectp.184_17, index: ivtmp.222_467, off
 1780      94108000 
 1780      0000
 1781              	# sieve_extend.c:760:         bitarray[copy_word] = (bitarray[source_word] >> shift_flipped) | (bit
 1782              		.loc 1 760 54 discriminator 2 view .LVU541
 1783 0a84 C585D3F1 		vpsrlq	ymm6, ymm15, xmm1	# vect__62.182, tmp1023, _184
 1784              	# sieve_extend.c:760:         bitarray[copy_word] = (bitarray[source_word] >> shift_flipped) | (bit
 1785              		.loc 1 760 99 discriminator 2 view .LVU542
 1786 0a88 C5EDF3F8 		vpsllq	ymm7, ymm2, xmm0	# vect__67.186, tmp1024, _182
 1787              	# sieve_extend.c:760:         bitarray[copy_word] = (bitarray[source_word] >> shift_flipped) | (bit
 1788              		.loc 1 760 72 discriminator 2 view .LVU543
 1789 0a8c C5CDEBE7 		vpor	ymm4, ymm6, ymm7	# vect__70.187, vect__62.182, vect__67.186
 1790              	# sieve_extend.c:760:         bitarray[copy_word] = (bitarray[source_word] >> shift_flipped) | (bit
GAS LISTING /tmp/ccH5HMHD.s 			page 53


 1791              		.loc 1 760 29 discriminator 2 view .LVU544
 1792 0a90 C5FE7FA4 		vmovdqu	YMMWORD PTR 128[rcx+rdx], ymm4	# MEM[base: vectp.189_212, index: ivtmp.222_467, offset: 0B
 1792      11800000 
 1792      00
 759:sieve_extend.c ****         bitarray[copy_word] = (bitarray[source_word] >> shift_flipped) | (bitarray[source_word+1] <
 1793              		.loc 1 759 48 is_stmt 1 discriminator 2 view .LVU545
 759:sieve_extend.c ****         bitarray[copy_word] = (bitarray[source_word] >> shift_flipped) | (bitarray[source_word+1] <
 1794              		.loc 1 759 12 discriminator 2 view .LVU546
 1795              		.loc 1 760 9 discriminator 2 view .LVU547
 1796              	# sieve_extend.c:760:         bitarray[copy_word] = (bitarray[source_word] >> shift_flipped) | (bit
 1797              		.loc 1 760 54 is_stmt 0 discriminator 2 view .LVU548
 1798 0a99 C5FD6FAC 		vmovdqa	ymm5, YMMWORD PTR 160[rsi+rdx]	# tmp1025, MEM[base: vectp.180_10, index: ivtmp.222_467, of
 1798      16A00000 
 1798      00
 1799              	# sieve_extend.c:760:         bitarray[copy_word] = (bitarray[source_word] >> shift_flipped) | (bit
 1800              		.loc 1 760 99 discriminator 2 view .LVU549
 1801 0aa2 C4C17E6F 		vmovdqu	ymm3, YMMWORD PTR 160[r8+rdx]	# tmp1026, MEM[base: vectp.184_17, index: ivtmp.222_467, off
 1801      9C10A000 
 1801      0000
 1802              	# sieve_extend.c:760:         bitarray[copy_word] = (bitarray[source_word] >> shift_flipped) | (bit
 1803              		.loc 1 760 54 discriminator 2 view .LVU550
 1804 0aac C555D3C1 		vpsrlq	ymm8, ymm5, xmm1	# vect__62.182, tmp1025, _184
 1805              	# sieve_extend.c:760:         bitarray[copy_word] = (bitarray[source_word] >> shift_flipped) | (bit
 1806              		.loc 1 760 99 discriminator 2 view .LVU551
 1807 0ab0 C565F3C8 		vpsllq	ymm9, ymm3, xmm0	# vect__67.186, tmp1026, _182
 1808              	# sieve_extend.c:760:         bitarray[copy_word] = (bitarray[source_word] >> shift_flipped) | (bit
 1809              		.loc 1 760 72 discriminator 2 view .LVU552
 1810 0ab4 C4413DEB 		vpor	ymm10, ymm8, ymm9	# vect__70.187, vect__62.182, vect__67.186
 1810      D1
 1811              	# sieve_extend.c:760:         bitarray[copy_word] = (bitarray[source_word] >> shift_flipped) | (bit
 1812              		.loc 1 760 29 discriminator 2 view .LVU553
 1813 0ab9 C57E7F94 		vmovdqu	YMMWORD PTR 160[rcx+rdx], ymm10	# MEM[base: vectp.189_212, index: ivtmp.222_467, offset: 0
 1813      11A00000 
 1813      00
 759:sieve_extend.c ****         bitarray[copy_word] = (bitarray[source_word] >> shift_flipped) | (bitarray[source_word+1] <
 1814              		.loc 1 759 48 is_stmt 1 discriminator 2 view .LVU554
 759:sieve_extend.c ****         bitarray[copy_word] = (bitarray[source_word] >> shift_flipped) | (bitarray[source_word+1] <
 1815              		.loc 1 759 12 discriminator 2 view .LVU555
 1816              		.loc 1 760 9 discriminator 2 view .LVU556
 1817              	# sieve_extend.c:760:         bitarray[copy_word] = (bitarray[source_word] >> shift_flipped) | (bit
 1818              		.loc 1 760 54 is_stmt 0 discriminator 2 view .LVU557
 1819 0ac2 C57D6F9C 		vmovdqa	ymm11, YMMWORD PTR 192[rsi+rdx]	# tmp1027, MEM[base: vectp.180_10, index: ivtmp.222_467, o
 1819      16C00000 
 1819      00
 1820              	# sieve_extend.c:760:         bitarray[copy_word] = (bitarray[source_word] >> shift_flipped) | (bit
 1821              		.loc 1 760 99 discriminator 2 view .LVU558
 1822 0acb C4417E6F 		vmovdqu	ymm13, YMMWORD PTR 192[r8+rdx]	# tmp1028, MEM[base: vectp.184_17, index: ivtmp.222_467, of
 1822      AC10C000 
 1822      0000
 1823              	# sieve_extend.c:760:         bitarray[copy_word] = (bitarray[source_word] >> shift_flipped) | (bit
 1824              		.loc 1 760 54 discriminator 2 view .LVU559
 1825 0ad5 C525D3E1 		vpsrlq	ymm12, ymm11, xmm1	# vect__62.182, tmp1027, _184
 1826              	# sieve_extend.c:760:         bitarray[copy_word] = (bitarray[source_word] >> shift_flipped) | (bit
 1827              		.loc 1 760 99 discriminator 2 view .LVU560
 1828 0ad9 C515F3F0 		vpsllq	ymm14, ymm13, xmm0	# vect__67.186, tmp1028, _182
 1829              	# sieve_extend.c:760:         bitarray[copy_word] = (bitarray[source_word] >> shift_flipped) | (bit
 1830              		.loc 1 760 72 discriminator 2 view .LVU561
GAS LISTING /tmp/ccH5HMHD.s 			page 54


 1831 0add C4411DEB 		vpor	ymm15, ymm12, ymm14	# vect__70.187, vect__62.182, vect__67.186
 1831      FE
 1832              	# sieve_extend.c:760:         bitarray[copy_word] = (bitarray[source_word] >> shift_flipped) | (bit
 1833              		.loc 1 760 29 discriminator 2 view .LVU562
 1834 0ae2 C57E7FBC 		vmovdqu	YMMWORD PTR 192[rcx+rdx], ymm15	# MEM[base: vectp.189_212, index: ivtmp.222_467, offset: 0
 1834      11C00000 
 1834      00
 759:sieve_extend.c ****         bitarray[copy_word] = (bitarray[source_word] >> shift_flipped) | (bitarray[source_word+1] <
 1835              		.loc 1 759 48 is_stmt 1 discriminator 2 view .LVU563
 759:sieve_extend.c ****         bitarray[copy_word] = (bitarray[source_word] >> shift_flipped) | (bitarray[source_word+1] <
 1836              		.loc 1 759 12 discriminator 2 view .LVU564
 1837              		.loc 1 760 9 discriminator 2 view .LVU565
 1838              	# sieve_extend.c:760:         bitarray[copy_word] = (bitarray[source_word] >> shift_flipped) | (bit
 1839              		.loc 1 760 54 is_stmt 0 discriminator 2 view .LVU566
 1840 0aeb C5FD6FB4 		vmovdqa	ymm6, YMMWORD PTR 224[rsi+rdx]	# tmp1029, MEM[base: vectp.180_10, index: ivtmp.222_467, of
 1840      16E00000 
 1840      00
 1841              	# sieve_extend.c:760:         bitarray[copy_word] = (bitarray[source_word] >> shift_flipped) | (bit
 1842              		.loc 1 760 99 discriminator 2 view .LVU567
 1843 0af4 C4C17E6F 		vmovdqu	ymm7, YMMWORD PTR 224[r8+rdx]	# tmp1030, MEM[base: vectp.184_17, index: ivtmp.222_467, off
 1843      BC10E000 
 1843      0000
 1844              	# sieve_extend.c:760:         bitarray[copy_word] = (bitarray[source_word] >> shift_flipped) | (bit
 1845              		.loc 1 760 54 discriminator 2 view .LVU568
 1846 0afe C5CDD3D1 		vpsrlq	ymm2, ymm6, xmm1	# vect__62.182, tmp1029, _184
 1847              	# sieve_extend.c:760:         bitarray[copy_word] = (bitarray[source_word] >> shift_flipped) | (bit
 1848              		.loc 1 760 99 discriminator 2 view .LVU569
 1849 0b02 C5C5F3E0 		vpsllq	ymm4, ymm7, xmm0	# vect__67.186, tmp1030, _182
 1850              	# sieve_extend.c:760:         bitarray[copy_word] = (bitarray[source_word] >> shift_flipped) | (bit
 1851              		.loc 1 760 72 discriminator 2 view .LVU570
 1852 0b06 C5EDEBEC 		vpor	ymm5, ymm2, ymm4	# vect__70.187, vect__62.182, vect__67.186
 1853              	# sieve_extend.c:760:         bitarray[copy_word] = (bitarray[source_word] >> shift_flipped) | (bit
 1854              		.loc 1 760 29 discriminator 2 view .LVU571
 1855 0b0a C5FE7FAC 		vmovdqu	YMMWORD PTR 224[rcx+rdx], ymm5	# MEM[base: vectp.189_212, index: ivtmp.222_467, offset: 0B
 1855      11E00000 
 1855      00
 759:sieve_extend.c ****         bitarray[copy_word] = (bitarray[source_word] >> shift_flipped) | (bitarray[source_word+1] <
 1856              		.loc 1 759 48 is_stmt 1 discriminator 2 view .LVU572
 759:sieve_extend.c ****         bitarray[copy_word] = (bitarray[source_word] >> shift_flipped) | (bitarray[source_word+1] <
 1857              		.loc 1 759 12 discriminator 2 view .LVU573
 1858 0b13 4881C200 		add	rdx, 256	# ivtmp.222,
 1858      010000
 1859 0b1a 4C39D2   		cmp	rdx, r10	# ivtmp.222, _469
 1860 0b1d 0F85D2FE 		jne	.L69	#,
 1860      FFFF
 1861              	.L244:
 1862 0b23 4C8B5424 		mov	r10, QWORD PTR -40[rsp]	# source_word, %sfp
 1862      D8
 1863 0b28 4C89CB   		mov	rbx, r9	# niters_vector_mult_vf.176, niters.174
 1864 0b2b 4883E3FC 		and	rbx, -4	# niters_vector_mult_vf.176,
 1865 0b2f 4901DC   		add	r12, rbx	# tmp.177, niters_vector_mult_vf.176
 1866 0b32 4901DA   		add	r10, rbx	# source_word, niters_vector_mult_vf.176
 1867 0b35 4C39CB   		cmp	rbx, r9	# niters_vector_mult_vf.176, niters.174
 1868 0b38 0F844207 		je	.L257	#,
 1868      0000
 1869              	.LVL79:
 1870              		.loc 1 760 9 view .LVU574
GAS LISTING /tmp/ccH5HMHD.s 			page 55


 1871              	# sieve_extend.c:759:     for (; copy_word <= destination_stop_word; copy_word++,source_word++ ) {
 759:sieve_extend.c ****         bitarray[copy_word] = (bitarray[source_word] >> shift_flipped) | (bitarray[source_word+1] <
 1872              		.loc 1 759 5 is_stmt 0 view .LVU575
 1873 0b3e 488B5424 		mov	rdx, QWORD PTR -8[rsp]	# destination_stop_word, %sfp
 1873      F8
 1874              	# sieve_extend.c:759:     for (; copy_word <= destination_stop_word; copy_word++,source_word++ ) {
 759:sieve_extend.c ****         bitarray[copy_word] = (bitarray[source_word] >> shift_flipped) | (bitarray[source_word+1] <
 1875              		.loc 1 759 57 view .LVU576
 1876 0b43 4D8D5C24 		lea	r11, 1[r12]	# copy_word,
 1876      01
 1877              	# sieve_extend.c:760:         bitarray[copy_word] = (bitarray[source_word] >> shift_flipped) | (bit
 1878              		.loc 1 760 99 view .LVU577
 1879 0b48 C42289F7 		shlx	r8, QWORD PTR 8[rdi+r10*8], r14	# tmp545, *_66, shift
 1879      44D708
 1880              	# sieve_extend.c:760:         bitarray[copy_word] = (bitarray[source_word] >> shift_flipped) | (bit
 1881              		.loc 1 760 54 view .LVU578
 1882 0b4f C4A2FBF7 		shrx	rsi, QWORD PTR [rdi+r10*8], rax	# tmp547, *_61, shift_flipped
 1882      34D7
 1883              	# sieve_extend.c:760:         bitarray[copy_word] = (bitarray[source_word] >> shift_flipped) | (bit
 1884              		.loc 1 760 72 view .LVU579
 1885 0b55 4909F0   		or	r8, rsi	# tmp549, tmp547
 1886              	# sieve_extend.c:760:         bitarray[copy_word] = (bitarray[source_word] >> shift_flipped) | (bit
 1887              		.loc 1 760 83 view .LVU580
 1888 0b58 4D8D4A01 		lea	r9, 1[r10]	# _64,
 1889              	# sieve_extend.c:760:         bitarray[copy_word] = (bitarray[source_word] >> shift_flipped) | (bit
 1890              		.loc 1 760 72 view .LVU581
 1891 0b5c 4E8904E7 		mov	QWORD PTR [rdi+r12*8], r8	# *_70, tmp549
 759:sieve_extend.c ****         bitarray[copy_word] = (bitarray[source_word] >> shift_flipped) | (bitarray[source_word+1] <
 1892              		.loc 1 759 48 is_stmt 1 view .LVU582
 1893              	.LVL80:
 759:sieve_extend.c ****         bitarray[copy_word] = (bitarray[source_word] >> shift_flipped) | (bitarray[source_word+1] <
 1894              		.loc 1 759 12 view .LVU583
 1895              	# sieve_extend.c:759:     for (; copy_word <= destination_stop_word; copy_word++,source_word++ ) {
 759:sieve_extend.c ****         bitarray[copy_word] = (bitarray[source_word] >> shift_flipped) | (bitarray[source_word+1] <
 1896              		.loc 1 759 5 is_stmt 0 view .LVU584
 1897 0b60 4939D3   		cmp	r11, rdx	# copy_word, destination_stop_word
 1898 0b63 0F871707 		ja	.L257	#,
 1898      0000
 1899              		.loc 1 760 9 is_stmt 1 view .LVU585
 1900              	# sieve_extend.c:759:     for (; copy_word <= destination_stop_word; copy_word++,source_word++ ) {
 759:sieve_extend.c ****         bitarray[copy_word] = (bitarray[source_word] >> shift_flipped) | (bitarray[source_word+1] <
 1901              		.loc 1 759 57 is_stmt 0 view .LVU586
 1902 0b69 4983C402 		add	r12, 2	# copy_word,
 1903              	# sieve_extend.c:760:         bitarray[copy_word] = (bitarray[source_word] >> shift_flipped) | (bit
 1904              		.loc 1 760 99 view .LVU587
 1905 0b6d C4A289F7 		shlx	rcx, QWORD PTR 8[rdi+r9*8], r14	# tmp550, *_53, shift
 1905      4CCF08
 1906              	# sieve_extend.c:760:         bitarray[copy_word] = (bitarray[source_word] >> shift_flipped) | (bit
 1907              		.loc 1 760 54 view .LVU588
 1908 0b74 4A8B1CCF 		mov	rbx, QWORD PTR [rdi+r9*8]	# *_48, *_48
 1909              	# sieve_extend.c:760:         bitarray[copy_word] = (bitarray[source_word] >> shift_flipped) | (bit
 1910              		.loc 1 760 83 view .LVU589
 1911 0b78 4983C202 		add	r10, 2	# _51,
 1912              	# sieve_extend.c:760:         bitarray[copy_word] = (bitarray[source_word] >> shift_flipped) | (bit
 1913              		.loc 1 760 54 view .LVU590
 1914 0b7c C462FBF7 		shrx	r9, rbx, rax	# tmp552, *_48, shift_flipped
 1914      CB
GAS LISTING /tmp/ccH5HMHD.s 			page 56


 1915              	.LVL81:
 1916              	# sieve_extend.c:760:         bitarray[copy_word] = (bitarray[source_word] >> shift_flipped) | (bit
 1917              		.loc 1 760 72 view .LVU591
 1918 0b81 4C09C9   		or	rcx, r9	# tmp554, tmp552
 1919 0b84 4A890CDF 		mov	QWORD PTR [rdi+r11*8], rcx	# *_57, tmp554
 759:sieve_extend.c ****         bitarray[copy_word] = (bitarray[source_word] >> shift_flipped) | (bitarray[source_word+1] <
 1920              		.loc 1 759 48 is_stmt 1 view .LVU592
 1921              	.LVL82:
 759:sieve_extend.c ****         bitarray[copy_word] = (bitarray[source_word] >> shift_flipped) | (bitarray[source_word+1] <
 1922              		.loc 1 759 12 view .LVU593
 1923              	# sieve_extend.c:759:     for (; copy_word <= destination_stop_word; copy_word++,source_word++ ) {
 759:sieve_extend.c ****         bitarray[copy_word] = (bitarray[source_word] >> shift_flipped) | (bitarray[source_word+1] <
 1924              		.loc 1 759 5 is_stmt 0 view .LVU594
 1925 0b88 4C39E2   		cmp	rdx, r12	# destination_stop_word, copy_word
 1926 0b8b 0F82EF06 		jb	.L257	#,
 1926      0000
 1927              		.loc 1 760 9 is_stmt 1 view .LVU595
 1928              	# sieve_extend.c:760:         bitarray[copy_word] = (bitarray[source_word] >> shift_flipped) | (bit
 1929              		.loc 1 760 99 is_stmt 0 view .LVU596
 1930 0b91 C42289F7 		shlx	r14, QWORD PTR 8[rdi+r10*8], r14	# tmp555, *_36, shift
 1930      74D708
 1931              	.LVL83:
 1932              	# sieve_extend.c:760:         bitarray[copy_word] = (bitarray[source_word] >> shift_flipped) | (bit
 1933              		.loc 1 760 54 view .LVU597
 1934 0b98 4E8B14D7 		mov	r10, QWORD PTR [rdi+r10*8]	# *_30, *_30
 1935              	.LVL84:
 1936              		.loc 1 760 54 view .LVU598
 1937 0b9c C4C2FBF7 		shrx	rax, r10, rax	# tmp557, *_30, shift_flipped
 1937      C2
 1938              	# sieve_extend.c:760:         bitarray[copy_word] = (bitarray[source_word] >> shift_flipped) | (bit
 1939              		.loc 1 760 72 view .LVU599
 1940 0ba1 4C09F0   		or	rax, r14	# tmp559, tmp555
 1941 0ba4 4A8904E7 		mov	QWORD PTR [rdi+r12*8], rax	# *_40, tmp559
 759:sieve_extend.c ****         bitarray[copy_word] = (bitarray[source_word] >> shift_flipped) | (bitarray[source_word+1] <
 1942              		.loc 1 759 48 is_stmt 1 view .LVU600
 1943              	.LVL85:
 759:sieve_extend.c ****         bitarray[copy_word] = (bitarray[source_word] >> shift_flipped) | (bitarray[source_word+1] <
 1944              		.loc 1 759 12 view .LVU601
 1945 0ba8 C5F877   		vzeroupper
 1946              	.LVL86:
 1947              	.L73:
 759:sieve_extend.c ****         bitarray[copy_word] = (bitarray[source_word] >> shift_flipped) | (bitarray[source_word+1] <
 1948              		.loc 1 759 12 is_stmt 0 view .LVU602
 1949 0bab 4C3B6C24 		cmp	r13, QWORD PTR -24[rsp]	# _175, %sfp
 1949      E8
 1950 0bb0 B9000000 		mov	ecx, 0	# tmp544,
 1950      00
 1951 0bb5 4C8B6424 		mov	r12, QWORD PTR -32[rsp]	#, %sfp
 1951      E0
 1952 0bba 490F46CC 		cmovbe	rcx, r12	#,, tmp543
 1953 0bbe 4C01E9   		add	rcx, r13	# copy_word, _175
 1954              	.L66:
 761:sieve_extend.c ****     }
 762:sieve_extend.c ****     bitarray[copy_word] &= chopmask(destination_stop);
 1955              		.loc 1 762 5 is_stmt 1 view .LVU603
 1956              	# sieve_extend.c:762:     bitarray[copy_word] &= chopmask(destination_stop);
 1957              		.loc 1 762 25 is_stmt 0 view .LVU604
GAS LISTING /tmp/ccH5HMHD.s 			page 57


 1958 0bc1 4C213CCF 		and	QWORD PTR [rdi+rcx*8], r15	# *_72, _193
 1959              	# sieve_extend.c:764: }
 763:sieve_extend.c **** 
 764:sieve_extend.c **** }
 1960              		.loc 1 764 1 view .LVU605
 1961 0bc5 488D65D8 		lea	rsp, -40[rbp]	#,
 1962 0bc9 5B       		pop	rbx	#
 1963 0bca 415C     		pop	r12	#
 1964 0bcc 415D     		pop	r13	#
 1965 0bce 415E     		pop	r14	#
 1966 0bd0 415F     		pop	r15	#
 1967 0bd2 5D       		pop	rbp	#
 1968              		.cfi_remember_state
 1969              		.cfi_def_cfa 7, 8
 1970 0bd3 C3       		ret	
 1971              	.LVL87:
 1972              		.p2align 4,,7
 1973 0bd4 0F1F4000 		.p2align 3
 1974              	.L261:
 1975              		.cfi_restore_state
 1976              	.LBB319:
 749:sieve_extend.c **** 
 1977              		.loc 1 749 9 is_stmt 1 view .LVU606
 753:sieve_extend.c ****             bitarray[copy_word+i] = (bitarray[source_word+i] >> shift_flipped) | (bitarray[source_w
 1978              		.loc 1 753 9 view .LVU607
 1979              	.LBB320:
 753:sieve_extend.c ****             bitarray[copy_word+i] = (bitarray[source_word+i] >> shift_flipped) | (bitarray[source_w
 1980              		.loc 1 753 14 view .LVU608
 753:sieve_extend.c ****             bitarray[copy_word+i] = (bitarray[source_word+i] >> shift_flipped) | (bitarray[source_w
 1981              		.loc 1 753 40 view .LVU609
 1982              	# sieve_extend.c:753:         for (register counter_t i = 0; i <loop_distance; i++) {
 753:sieve_extend.c ****             bitarray[copy_word+i] = (bitarray[source_word+i] >> shift_flipped) | (bitarray[source_w
 1983              		.loc 1 753 9 is_stmt 0 view .LVU610
 1984 0bd8 4C8B6C24 		mov	r13, QWORD PTR -8[rsp]	# loop_distance, %sfp
 1984      F8
 1985 0bdd 4889F2   		mov	rdx, rsi	# source_word, source_word
 1986              	.LVL88:
 753:sieve_extend.c ****             bitarray[copy_word+i] = (bitarray[source_word+i] >> shift_flipped) | (bitarray[source_w
 1987              		.loc 1 753 9 view .LVU611
 1988 0be0 4929CD   		sub	r13, rcx	# loop_distance, copy_word
 1989 0be3 4C896C24 		mov	QWORD PTR -24[rsp], r13	# %sfp, loop_distance
 1989      E8
 1990 0be8 0F84FB03 		je	.L62	#,
 1990      0000
 1991 0bee 4D8D5424 		lea	r10, 8[r12]	# tmp413,
 1991      08
 1992 0bf3 4C8D4B28 		lea	r9, 40[rbx]	# tmp412,
 1993 0bf7 4D39D1   		cmp	r9, r10	# tmp412, tmp413
 1994 0bfa 4C8D6B08 		lea	r13, 8[rbx]	# tmp417,
 1995 0bfe 410F9EC1 		setle	r9b	#, tmp415
 1996 0c02 4983C428 		add	r12, 40	# tmp416,
 1997 0c06 4D39EC   		cmp	r12, r13	# tmp416, tmp417
 1998 0c09 488D5601 		lea	rdx, 1[rsi]	# _232,
 1999 0c0d 410F9EC5 		setle	r13b	#, tmp419
 2000 0c11 4509E9   		or	r9d, r13d	# tmp420, tmp419
 2001 0c14 4C8D6B20 		lea	r13, 32[rbx]	# tmp421,
 2002 0c18 4D39D5   		cmp	r13, r10	# tmp421, tmp413
GAS LISTING /tmp/ccH5HMHD.s 			page 58


 2003 0c1b 410F9EC2 		setle	r10b	#, tmp424
 2004 0c1f 4939DC   		cmp	r12, rbx	# tmp416, _179
 2005 0c22 410F9EC4 		setle	r12b	#, tmp427
 2006 0c26 4509E2   		or	r10d, r12d	# tmp428, tmp427
 2007 0c29 4584D1   		test	r9b, r10b	# tmp420, tmp428
 2008 0c2c 0F846706 		je	.L57	#,
 2008      0000
 2009 0c32 4C8B4C24 		mov	r9, QWORD PTR -24[rsp]	# loop_distance, %sfp
 2009      E8
 2010 0c37 4D8D69FF 		lea	r13, -1[r9]	# tmp430,
 2011 0c3b 4983FD05 		cmp	r13, 5	# tmp430,
 2012 0c3f 0F865406 		jbe	.L57	#,
 2012      0000
 2013 0c45 4D89D9   		mov	r9, r11	# tmp433, _180
 2014              	# sieve_extend.c:753:         for (register counter_t i = 0; i <loop_distance; i++) {
 753:sieve_extend.c ****             bitarray[copy_word+i] = (bitarray[source_word+i] >> shift_flipped) | (bitarray[source_w
 2015              		.loc 1 753 33 view .LVU612
 2016 0c48 4531E4   		xor	r12d, r12d	# i
 2017 0c4b 49C1E903 		shr	r9, 3	# tmp433,
 2018 0c4f 49F7D9   		neg	r9	# tmp434
 2019 0c52 4183E103 		and	r9d, 3	# prolog_loop_niters.192,
 2020 0c56 7468     		je	.L58	#,
 754:sieve_extend.c ****         }
 2021              		.loc 1 754 13 is_stmt 1 view .LVU613
 2022              	# sieve_extend.c:754:             bitarray[copy_word+i] = (bitarray[source_word+i] >> shift_flipped
 754:sieve_extend.c ****         }
 2023              		.loc 1 754 109 is_stmt 0 view .LVU614
 2024 0c58 488B5C1F 		mov	rbx, QWORD PTR 8[rdi+rbx]	# *_428, *_428
 2024      08
 2025 0c5d C46289F7 		shlx	r10, rbx, r14	# tmp435, *_428, shift
 2025      D3
 2026              	# sieve_extend.c:754:             bitarray[copy_word+i] = (bitarray[source_word+i] >> shift_flipped
 754:sieve_extend.c ****         }
 2027              		.loc 1 754 62 view .LVU615
 2028 0c62 4D8B1B   		mov	r11, QWORD PTR [r11]	# *_180, *_180
 2029 0c65 C442FBF7 		shrx	r12, r11, rax	# tmp437, *_180, shift_flipped
 2029      E3
 2030              	# sieve_extend.c:754:             bitarray[copy_word+i] = (bitarray[source_word+i] >> shift_flipped
 754:sieve_extend.c ****         }
 2031              		.loc 1 754 80 view .LVU616
 2032 0c6a 4D09E2   		or	r10, r12	# tmp439, tmp437
 2033 0c6d 4983F901 		cmp	r9, 1	# prolog_loop_niters.192,
 2034 0c71 4C8914CF 		mov	QWORD PTR [rdi+rcx*8], r10	# *_433, tmp439
 753:sieve_extend.c ****             bitarray[copy_word+i] = (bitarray[source_word+i] >> shift_flipped) | (bitarray[source_w
 2035              		.loc 1 753 58 is_stmt 1 view .LVU617
 2036              	.LVL89:
 753:sieve_extend.c ****             bitarray[copy_word+i] = (bitarray[source_word+i] >> shift_flipped) | (bitarray[source_w
 2037              		.loc 1 753 40 view .LVU618
 2038              	# sieve_extend.c:753:         for (register counter_t i = 0; i <loop_distance; i++) {
 753:sieve_extend.c ****             bitarray[copy_word+i] = (bitarray[source_word+i] >> shift_flipped) | (bitarray[source_w
 2039              		.loc 1 753 59 is_stmt 0 view .LVU619
 2040 0c75 41BC0100 		mov	r12d, 1	# i,
 2040      0000
 2041 0c7b 7443     		je	.L58	#,
 754:sieve_extend.c ****         }
 2042              		.loc 1 754 13 is_stmt 1 view .LVU620
 2043              	# sieve_extend.c:754:             bitarray[copy_word+i] = (bitarray[source_word+i] >> shift_flipped
GAS LISTING /tmp/ccH5HMHD.s 			page 59


 754:sieve_extend.c ****         }
 2044              		.loc 1 754 109 is_stmt 0 view .LVU621
 2045 0c7d C46289F7 		shlx	r13, QWORD PTR 8[rdi+rdx*8], r14	# tmp441, *_448, shift
 2045      6CD708
 2046              	# sieve_extend.c:754:             bitarray[copy_word+i] = (bitarray[source_word+i] >> shift_flipped
 754:sieve_extend.c ****         }
 2047              		.loc 1 754 62 view .LVU622
 2048 0c84 C4E2FBF7 		shrx	rbx, QWORD PTR [rdi+rdx*8], rax	# tmp443, *_443, shift_flipped
 2048      1CD7
 2049              	# sieve_extend.c:754:             bitarray[copy_word+i] = (bitarray[source_word+i] >> shift_flipped
 754:sieve_extend.c ****         }
 2050              		.loc 1 754 80 view .LVU623
 2051 0c8a 4909DD   		or	r13, rbx	# tmp445, tmp443
 2052 0c8d 4983F903 		cmp	r9, 3	# prolog_loop_niters.192,
 2053 0c91 4E896CC7 		mov	QWORD PTR 16[rdi+r8*8], r13	# *_453, tmp445
 2053      10
 753:sieve_extend.c ****             bitarray[copy_word+i] = (bitarray[source_word+i] >> shift_flipped) | (bitarray[source_w
 2054              		.loc 1 753 58 is_stmt 1 view .LVU624
 2055              	.LVL90:
 753:sieve_extend.c ****             bitarray[copy_word+i] = (bitarray[source_word+i] >> shift_flipped) | (bitarray[source_w
 2056              		.loc 1 753 40 view .LVU625
 2057              	# sieve_extend.c:753:         for (register counter_t i = 0; i <loop_distance; i++) {
 753:sieve_extend.c ****             bitarray[copy_word+i] = (bitarray[source_word+i] >> shift_flipped) | (bitarray[source_w
 2058              		.loc 1 753 59 is_stmt 0 view .LVU626
 2059 0c96 41BC0200 		mov	r12d, 2	# i,
 2059      0000
 2060 0c9c 7522     		jne	.L58	#,
 754:sieve_extend.c ****         }
 2061              		.loc 1 754 13 is_stmt 1 view .LVU627
 2062              	# sieve_extend.c:754:             bitarray[copy_word+i] = (bitarray[source_word+i] >> shift_flipped
 754:sieve_extend.c ****         }
 2063              		.loc 1 754 58 is_stmt 0 view .LVU628
 2064 0c9e 4C8D5E02 		lea	r11, 2[rsi]	# tmp446,
 2065              	# sieve_extend.c:754:             bitarray[copy_word+i] = (bitarray[source_word+i] >> shift_flipped
 754:sieve_extend.c ****         }
 2066              		.loc 1 754 109 view .LVU629
 2067 0ca2 C42289F7 		shlx	r10, QWORD PTR 8[rdi+r11*8], r14	# tmp448, *_286, shift
 2067      54DF08
 2068              	# sieve_extend.c:754:             bitarray[copy_word+i] = (bitarray[source_word+i] >> shift_flipped
 754:sieve_extend.c ****         }
 2069              		.loc 1 754 62 view .LVU630
 2070 0ca9 4E8B24DF 		mov	r12, QWORD PTR [rdi+r11*8]	# *_281, *_281
 2071 0cad C442FBF7 		shrx	r13, r12, rax	# tmp450, *_281, shift_flipped
 2071      EC
 2072              	# sieve_extend.c:754:             bitarray[copy_word+i] = (bitarray[source_word+i] >> shift_flipped
 754:sieve_extend.c ****         }
 2073              		.loc 1 754 80 view .LVU631
 2074 0cb2 4D09EA   		or	r10, r13	# tmp452, tmp450
 2075              	# sieve_extend.c:753:         for (register counter_t i = 0; i <loop_distance; i++) {
 753:sieve_extend.c ****             bitarray[copy_word+i] = (bitarray[source_word+i] >> shift_flipped) | (bitarray[source_w
 2076              		.loc 1 753 59 view .LVU632
 2077 0cb5 41BC0300 		mov	r12d, 3	# i,
 2077      0000
 2078              	# sieve_extend.c:754:             bitarray[copy_word+i] = (bitarray[source_word+i] >> shift_flipped
 754:sieve_extend.c ****         }
 2079              		.loc 1 754 80 view .LVU633
 2080 0cbb 4E8954C7 		mov	QWORD PTR 24[rdi+r8*8], r10	# *_291, tmp452
GAS LISTING /tmp/ccH5HMHD.s 			page 60


 2080      18
 753:sieve_extend.c ****             bitarray[copy_word+i] = (bitarray[source_word+i] >> shift_flipped) | (bitarray[source_w
 2081              		.loc 1 753 58 is_stmt 1 view .LVU634
 2082              	.LVL91:
 753:sieve_extend.c ****             bitarray[copy_word+i] = (bitarray[source_word+i] >> shift_flipped) | (bitarray[source_w
 2083              		.loc 1 753 40 view .LVU635
 2084              	.L58:
 753:sieve_extend.c ****             bitarray[copy_word+i] = (bitarray[source_word+i] >> shift_flipped) | (bitarray[source_w
 2085              		.loc 1 753 40 is_stmt 0 view .LVU636
 2086 0cc0 488B5C24 		mov	rbx, QWORD PTR -24[rsp]	# niters.193, %sfp
 2086      E8
 2087 0cc5 4E8D040E 		lea	r8, [rsi+r9]	# tmp453,
 2088 0cc9 4E8D14C7 		lea	r10, [rdi+r8*8]	# vectp.198,
 2089 0ccd 4C01CA   		add	rdx, r9	# tmp455, prolog_loop_niters.192
 2090 0cd0 C5F96E4C 		vmovd	xmm1, DWORD PTR -16[rsp]	# _184, %sfp
 2090      24F0
 2091 0cd6 4C8D1CD7 		lea	r11, [rdi+rdx*8]	# vectp.202,
 2092 0cda 4C29CB   		sub	rbx, r9	# niters.193, prolog_loop_niters.192
 2093              	# sieve_extend.c:753:         for (register counter_t i = 0; i <loop_distance; i++) {
 753:sieve_extend.c ****             bitarray[copy_word+i] = (bitarray[source_word+i] >> shift_flipped) | (bitarray[source_w
 2094              		.loc 1 753 33 view .LVU637
 2095 0cdd 31D2     		xor	edx, edx	# ivtmp.241
 2096 0cdf 4989DD   		mov	r13, rbx	# bnd.194, niters.193
 2097 0ce2 4901C9   		add	r9, rcx	# tmp457, copy_word
 2098 0ce5 49C1ED02 		shr	r13, 2	# bnd.194,
 2099 0ce9 4E8D0CCF 		lea	r9, [rdi+r9*8]	# vectp.207,
 2100 0ced 49C1E505 		sal	r13, 5	# bnd.194,
 2101 0cf1 C5F96E44 		vmovd	xmm0, DWORD PTR -12[rsp]	# _182, %sfp
 2101      24F4
 2102 0cf7 4D8D45E0 		lea	r8, -32[r13]	# tmp582,
 2103 0cfb 49C1E805 		shr	r8, 5	# tmp580,
 2104 0cff 4983C001 		add	r8, 1	# tmp583,
 2105 0d03 4183E007 		and	r8d, 7	# tmp584,
 2106 0d07 0F840901 		je	.L60	#,
 2106      0000
 2107 0d0d 4983F801 		cmp	r8, 1	# tmp584,
 2108 0d11 0F84D300 		je	.L179	#,
 2108      0000
 2109 0d17 4983F802 		cmp	r8, 2	# tmp584,
 2110 0d1b 0F84A600 		je	.L180	#,
 2110      0000
 2111 0d21 4983F803 		cmp	r8, 3	# tmp584,
 2112 0d25 747E     		je	.L181	#,
 2113 0d27 4983F804 		cmp	r8, 4	# tmp584,
 2114 0d2b 7455     		je	.L182	#,
 2115 0d2d 4983F805 		cmp	r8, 5	# tmp584,
 2116 0d31 742D     		je	.L183	#,
 2117 0d33 4983F806 		cmp	r8, 6	# tmp584,
 2118 0d37 0F858007 		jne	.L262	#,
 2118      0000
 2119              	.L184:
 754:sieve_extend.c ****         }
 2120              		.loc 1 754 13 is_stmt 1 view .LVU638
 2121              	# sieve_extend.c:754:             bitarray[copy_word+i] = (bitarray[source_word+i] >> shift_flipped
 754:sieve_extend.c ****         }
 2122              		.loc 1 754 62 is_stmt 0 view .LVU639
 2123 0d3d C4417D6F 		vmovdqa	ymm12, YMMWORD PTR [r10+rdx]	# tmp1073, MEM[base: vectp.198_325, index: ivtmp.241_483, off
GAS LISTING /tmp/ccH5HMHD.s 			page 61


 2123      2412
 2124              	# sieve_extend.c:754:             bitarray[copy_word+i] = (bitarray[source_word+i] >> shift_flipped
 754:sieve_extend.c ****         }
 2125              		.loc 1 754 109 view .LVU640
 2126 0d43 C4417E6F 		vmovdqu	ymm14, YMMWORD PTR [r11+rdx]	# tmp1074, MEM[base: vectp.202_332, index: ivtmp.241_483, off
 2126      3413
 2127              	# sieve_extend.c:754:             bitarray[copy_word+i] = (bitarray[source_word+i] >> shift_flipped
 754:sieve_extend.c ****         }
 2128              		.loc 1 754 62 view .LVU641
 2129 0d49 C51DD3E9 		vpsrlq	ymm13, ymm12, xmm1	# vect__49.200, tmp1073, _184
 2130              	# sieve_extend.c:754:             bitarray[copy_word+i] = (bitarray[source_word+i] >> shift_flipped
 754:sieve_extend.c ****         }
 2131              		.loc 1 754 109 view .LVU642
 2132 0d4d C50DF3F8 		vpsllq	ymm15, ymm14, xmm0	# vect__54.204, tmp1074, _182
 2133              	# sieve_extend.c:754:             bitarray[copy_word+i] = (bitarray[source_word+i] >> shift_flipped
 754:sieve_extend.c ****         }
 2134              		.loc 1 754 80 view .LVU643
 2135 0d51 C4C115EB 		vpor	ymm6, ymm13, ymm15	# vect__58.205, vect__49.200, vect__54.204
 2135      F7
 2136              	# sieve_extend.c:754:             bitarray[copy_word+i] = (bitarray[source_word+i] >> shift_flipped
 754:sieve_extend.c ****         }
 2137              		.loc 1 754 35 view .LVU644
 2138 0d56 C4C17E7F 		vmovdqu	YMMWORD PTR [r9+rdx], ymm6	# MEM[base: vectp.207_341, index: ivtmp.241_483, offset: 0B], v
 2138      3411
 753:sieve_extend.c ****             bitarray[copy_word+i] = (bitarray[source_word+i] >> shift_flipped) | (bitarray[source_w
 2139              		.loc 1 753 58 is_stmt 1 view .LVU645
 753:sieve_extend.c ****             bitarray[copy_word+i] = (bitarray[source_word+i] >> shift_flipped) | (bitarray[source_w
 2140              		.loc 1 753 40 view .LVU646
 2141 0d5c 4883C220 		add	rdx, 32	# ivtmp.241,
 2142              	.L183:
 754:sieve_extend.c ****         }
 2143              		.loc 1 754 13 view .LVU647
 2144              	# sieve_extend.c:754:             bitarray[copy_word+i] = (bitarray[source_word+i] >> shift_flipped
 754:sieve_extend.c ****         }
 2145              		.loc 1 754 62 is_stmt 0 view .LVU648
 2146 0d60 C4C17D6F 		vmovdqa	ymm2, YMMWORD PTR [r10+rdx]	# tmp1075, MEM[base: vectp.198_325, index: ivtmp.241_483, offs
 2146      1412
 2147              	# sieve_extend.c:754:             bitarray[copy_word+i] = (bitarray[source_word+i] >> shift_flipped
 754:sieve_extend.c ****         }
 2148              		.loc 1 754 109 view .LVU649
 2149 0d66 C4C17E6F 		vmovdqu	ymm4, YMMWORD PTR [r11+rdx]	# tmp1076, MEM[base: vectp.202_332, index: ivtmp.241_483, offs
 2149      2413
 2150              	# sieve_extend.c:754:             bitarray[copy_word+i] = (bitarray[source_word+i] >> shift_flipped
 754:sieve_extend.c ****         }
 2151              		.loc 1 754 62 view .LVU650
 2152 0d6c C5EDD3F9 		vpsrlq	ymm7, ymm2, xmm1	# vect__49.200, tmp1075, _184
 2153              	# sieve_extend.c:754:             bitarray[copy_word+i] = (bitarray[source_word+i] >> shift_flipped
 754:sieve_extend.c ****         }
 2154              		.loc 1 754 109 view .LVU651
 2155 0d70 C5DDF3E8 		vpsllq	ymm5, ymm4, xmm0	# vect__54.204, tmp1076, _182
 2156              	# sieve_extend.c:754:             bitarray[copy_word+i] = (bitarray[source_word+i] >> shift_flipped
 754:sieve_extend.c ****         }
 2157              		.loc 1 754 80 view .LVU652
 2158 0d74 C545EBC5 		vpor	ymm8, ymm7, ymm5	# vect__58.205, vect__49.200, vect__54.204
 2159              	# sieve_extend.c:754:             bitarray[copy_word+i] = (bitarray[source_word+i] >> shift_flipped
 754:sieve_extend.c ****         }
 2160              		.loc 1 754 35 view .LVU653
GAS LISTING /tmp/ccH5HMHD.s 			page 62


 2161 0d78 C4417E7F 		vmovdqu	YMMWORD PTR [r9+rdx], ymm8	# MEM[base: vectp.207_341, index: ivtmp.241_483, offset: 0B], v
 2161      0411
 753:sieve_extend.c ****             bitarray[copy_word+i] = (bitarray[source_word+i] >> shift_flipped) | (bitarray[source_w
 2162              		.loc 1 753 58 is_stmt 1 view .LVU654
 753:sieve_extend.c ****             bitarray[copy_word+i] = (bitarray[source_word+i] >> shift_flipped) | (bitarray[source_w
 2163              		.loc 1 753 40 view .LVU655
 2164 0d7e 4883C220 		add	rdx, 32	# ivtmp.241,
 2165              	.L182:
 754:sieve_extend.c ****         }
 2166              		.loc 1 754 13 view .LVU656
 2167              	# sieve_extend.c:754:             bitarray[copy_word+i] = (bitarray[source_word+i] >> shift_flipped
 754:sieve_extend.c ****         }
 2168              		.loc 1 754 62 is_stmt 0 view .LVU657
 2169 0d82 C4417D6F 		vmovdqa	ymm9, YMMWORD PTR [r10+rdx]	# tmp1077, MEM[base: vectp.198_325, index: ivtmp.241_483, offs
 2169      0C12
 2170              	# sieve_extend.c:754:             bitarray[copy_word+i] = (bitarray[source_word+i] >> shift_flipped
 754:sieve_extend.c ****         }
 2171              		.loc 1 754 109 view .LVU658
 2172 0d88 C4C17E6F 		vmovdqu	ymm3, YMMWORD PTR [r11+rdx]	# tmp1078, MEM[base: vectp.202_332, index: ivtmp.241_483, offs
 2172      1C13
 2173              	# sieve_extend.c:754:             bitarray[copy_word+i] = (bitarray[source_word+i] >> shift_flipped
 754:sieve_extend.c ****         }
 2174              		.loc 1 754 62 view .LVU659
 2175 0d8e C535D3D1 		vpsrlq	ymm10, ymm9, xmm1	# vect__49.200, tmp1077, _184
 2176              	# sieve_extend.c:754:             bitarray[copy_word+i] = (bitarray[source_word+i] >> shift_flipped
 754:sieve_extend.c ****         }
 2177              		.loc 1 754 109 view .LVU660
 2178 0d92 C565F3D8 		vpsllq	ymm11, ymm3, xmm0	# vect__54.204, tmp1078, _182
 2179              	# sieve_extend.c:754:             bitarray[copy_word+i] = (bitarray[source_word+i] >> shift_flipped
 754:sieve_extend.c ****         }
 2180              		.loc 1 754 80 view .LVU661
 2181 0d96 C4412DEB 		vpor	ymm12, ymm10, ymm11	# vect__58.205, vect__49.200, vect__54.204
 2181      E3
 2182              	# sieve_extend.c:754:             bitarray[copy_word+i] = (bitarray[source_word+i] >> shift_flipped
 754:sieve_extend.c ****         }
 2183              		.loc 1 754 35 view .LVU662
 2184 0d9b C4417E7F 		vmovdqu	YMMWORD PTR [r9+rdx], ymm12	# MEM[base: vectp.207_341, index: ivtmp.241_483, offset: 0B], 
 2184      2411
 753:sieve_extend.c ****             bitarray[copy_word+i] = (bitarray[source_word+i] >> shift_flipped) | (bitarray[source_w
 2185              		.loc 1 753 58 is_stmt 1 view .LVU663
 753:sieve_extend.c ****             bitarray[copy_word+i] = (bitarray[source_word+i] >> shift_flipped) | (bitarray[source_w
 2186              		.loc 1 753 40 view .LVU664
 2187 0da1 4883C220 		add	rdx, 32	# ivtmp.241,
 2188              	.L181:
 754:sieve_extend.c ****         }
 2189              		.loc 1 754 13 view .LVU665
 2190              	# sieve_extend.c:754:             bitarray[copy_word+i] = (bitarray[source_word+i] >> shift_flipped
 754:sieve_extend.c ****         }
 2191              		.loc 1 754 62 is_stmt 0 view .LVU666
 2192 0da5 C4417D6F 		vmovdqa	ymm13, YMMWORD PTR [r10+rdx]	# tmp1079, MEM[base: vectp.198_325, index: ivtmp.241_483, off
 2192      2C12
 2193              	# sieve_extend.c:754:             bitarray[copy_word+i] = (bitarray[source_word+i] >> shift_flipped
 754:sieve_extend.c ****         }
 2194              		.loc 1 754 109 view .LVU667
 2195 0dab C4417E6F 		vmovdqu	ymm15, YMMWORD PTR [r11+rdx]	# tmp1080, MEM[base: vectp.202_332, index: ivtmp.241_483, off
 2195      3C13
 2196              	# sieve_extend.c:754:             bitarray[copy_word+i] = (bitarray[source_word+i] >> shift_flipped
GAS LISTING /tmp/ccH5HMHD.s 			page 63


 754:sieve_extend.c ****         }
 2197              		.loc 1 754 62 view .LVU668
 2198 0db1 C515D3F1 		vpsrlq	ymm14, ymm13, xmm1	# vect__49.200, tmp1079, _184
 2199              	# sieve_extend.c:754:             bitarray[copy_word+i] = (bitarray[source_word+i] >> shift_flipped
 754:sieve_extend.c ****         }
 2200              		.loc 1 754 109 view .LVU669
 2201 0db5 C585F3F0 		vpsllq	ymm6, ymm15, xmm0	# vect__54.204, tmp1080, _182
 2202              	# sieve_extend.c:754:             bitarray[copy_word+i] = (bitarray[source_word+i] >> shift_flipped
 754:sieve_extend.c ****         }
 2203              		.loc 1 754 80 view .LVU670
 2204 0db9 C58DEBD6 		vpor	ymm2, ymm14, ymm6	# vect__58.205, vect__49.200, vect__54.204
 2205              	# sieve_extend.c:754:             bitarray[copy_word+i] = (bitarray[source_word+i] >> shift_flipped
 754:sieve_extend.c ****         }
 2206              		.loc 1 754 35 view .LVU671
 2207 0dbd C4C17E7F 		vmovdqu	YMMWORD PTR [r9+rdx], ymm2	# MEM[base: vectp.207_341, index: ivtmp.241_483, offset: 0B], v
 2207      1411
 753:sieve_extend.c ****             bitarray[copy_word+i] = (bitarray[source_word+i] >> shift_flipped) | (bitarray[source_w
 2208              		.loc 1 753 58 is_stmt 1 view .LVU672
 753:sieve_extend.c ****             bitarray[copy_word+i] = (bitarray[source_word+i] >> shift_flipped) | (bitarray[source_w
 2209              		.loc 1 753 40 view .LVU673
 2210 0dc3 4883C220 		add	rdx, 32	# ivtmp.241,
 2211              	.L180:
 754:sieve_extend.c ****         }
 2212              		.loc 1 754 13 view .LVU674
 2213              	# sieve_extend.c:754:             bitarray[copy_word+i] = (bitarray[source_word+i] >> shift_flipped
 754:sieve_extend.c ****         }
 2214              		.loc 1 754 62 is_stmt 0 view .LVU675
 2215 0dc7 C4C17D6F 		vmovdqa	ymm7, YMMWORD PTR [r10+rdx]	# tmp1081, MEM[base: vectp.198_325, index: ivtmp.241_483, offs
 2215      3C12
 2216              	# sieve_extend.c:754:             bitarray[copy_word+i] = (bitarray[source_word+i] >> shift_flipped
 754:sieve_extend.c ****         }
 2217              		.loc 1 754 109 view .LVU676
 2218 0dcd C4C17E6F 		vmovdqu	ymm5, YMMWORD PTR [r11+rdx]	# tmp1082, MEM[base: vectp.202_332, index: ivtmp.241_483, offs
 2218      2C13
 2219              	# sieve_extend.c:754:             bitarray[copy_word+i] = (bitarray[source_word+i] >> shift_flipped
 754:sieve_extend.c ****         }
 2220              		.loc 1 754 62 view .LVU677
 2221 0dd3 C5C5D3E1 		vpsrlq	ymm4, ymm7, xmm1	# vect__49.200, tmp1081, _184
 2222              	# sieve_extend.c:754:             bitarray[copy_word+i] = (bitarray[source_word+i] >> shift_flipped
 754:sieve_extend.c ****         }
 2223              		.loc 1 754 109 view .LVU678
 2224 0dd7 C555F3C0 		vpsllq	ymm8, ymm5, xmm0	# vect__54.204, tmp1082, _182
 2225              	# sieve_extend.c:754:             bitarray[copy_word+i] = (bitarray[source_word+i] >> shift_flipped
 754:sieve_extend.c ****         }
 2226              		.loc 1 754 80 view .LVU679
 2227 0ddb C4415DEB 		vpor	ymm9, ymm4, ymm8	# vect__58.205, vect__49.200, vect__54.204
 2227      C8
 2228              	# sieve_extend.c:754:             bitarray[copy_word+i] = (bitarray[source_word+i] >> shift_flipped
 754:sieve_extend.c ****         }
 2229              		.loc 1 754 35 view .LVU680
 2230 0de0 C4417E7F 		vmovdqu	YMMWORD PTR [r9+rdx], ymm9	# MEM[base: vectp.207_341, index: ivtmp.241_483, offset: 0B], v
 2230      0C11
 753:sieve_extend.c ****             bitarray[copy_word+i] = (bitarray[source_word+i] >> shift_flipped) | (bitarray[source_w
 2231              		.loc 1 753 58 is_stmt 1 view .LVU681
 753:sieve_extend.c ****             bitarray[copy_word+i] = (bitarray[source_word+i] >> shift_flipped) | (bitarray[source_w
 2232              		.loc 1 753 40 view .LVU682
 2233 0de6 4883C220 		add	rdx, 32	# ivtmp.241,
GAS LISTING /tmp/ccH5HMHD.s 			page 64


 2234              	.L179:
 754:sieve_extend.c ****         }
 2235              		.loc 1 754 13 view .LVU683
 2236              	# sieve_extend.c:754:             bitarray[copy_word+i] = (bitarray[source_word+i] >> shift_flipped
 754:sieve_extend.c ****         }
 2237              		.loc 1 754 62 is_stmt 0 view .LVU684
 2238 0dea C4417D6F 		vmovdqa	ymm10, YMMWORD PTR [r10+rdx]	# tmp1083, MEM[base: vectp.198_325, index: ivtmp.241_483, off
 2238      1412
 2239              	# sieve_extend.c:754:             bitarray[copy_word+i] = (bitarray[source_word+i] >> shift_flipped
 754:sieve_extend.c ****         }
 2240              		.loc 1 754 109 view .LVU685
 2241 0df0 C4C17E6F 		vmovdqu	ymm3, YMMWORD PTR [r11+rdx]	# tmp1084, MEM[base: vectp.202_332, index: ivtmp.241_483, offs
 2241      1C13
 2242              	# sieve_extend.c:754:             bitarray[copy_word+i] = (bitarray[source_word+i] >> shift_flipped
 754:sieve_extend.c ****         }
 2243              		.loc 1 754 62 view .LVU686
 2244 0df6 C52DD3D9 		vpsrlq	ymm11, ymm10, xmm1	# vect__49.200, tmp1083, _184
 2245              	# sieve_extend.c:754:             bitarray[copy_word+i] = (bitarray[source_word+i] >> shift_flipped
 754:sieve_extend.c ****         }
 2246              		.loc 1 754 109 view .LVU687
 2247 0dfa C565F3E0 		vpsllq	ymm12, ymm3, xmm0	# vect__54.204, tmp1084, _182
 2248              	# sieve_extend.c:754:             bitarray[copy_word+i] = (bitarray[source_word+i] >> shift_flipped
 754:sieve_extend.c ****         }
 2249              		.loc 1 754 80 view .LVU688
 2250 0dfe C44125EB 		vpor	ymm13, ymm11, ymm12	# vect__58.205, vect__49.200, vect__54.204
 2250      EC
 2251              	# sieve_extend.c:754:             bitarray[copy_word+i] = (bitarray[source_word+i] >> shift_flipped
 754:sieve_extend.c ****         }
 2252              		.loc 1 754 35 view .LVU689
 2253 0e03 C4417E7F 		vmovdqu	YMMWORD PTR [r9+rdx], ymm13	# MEM[base: vectp.207_341, index: ivtmp.241_483, offset: 0B], 
 2253      2C11
 753:sieve_extend.c ****             bitarray[copy_word+i] = (bitarray[source_word+i] >> shift_flipped) | (bitarray[source_w
 2254              		.loc 1 753 58 is_stmt 1 view .LVU690
 753:sieve_extend.c ****             bitarray[copy_word+i] = (bitarray[source_word+i] >> shift_flipped) | (bitarray[source_w
 2255              		.loc 1 753 40 view .LVU691
 2256 0e09 4883C220 		add	rdx, 32	# ivtmp.241,
 2257 0e0d 4C39EA   		cmp	rdx, r13	# ivtmp.241, _485
 2258 0e10 0F843E01 		je	.L243	#,
 2258      0000
 2259              	.L60:
 754:sieve_extend.c ****         }
 2260              		.loc 1 754 13 discriminator 3 view .LVU692
 2261              	# sieve_extend.c:754:             bitarray[copy_word+i] = (bitarray[source_word+i] >> shift_flipped
 754:sieve_extend.c ****         }
 2262              		.loc 1 754 62 is_stmt 0 discriminator 3 view .LVU693
 2263 0e16 C4417D6F 		vmovdqa	ymm14, YMMWORD PTR [r10+rdx]	# tmp980, MEM[base: vectp.198_325, index: ivtmp.241_483, offs
 2263      3412
 2264              	# sieve_extend.c:754:             bitarray[copy_word+i] = (bitarray[source_word+i] >> shift_flipped
 754:sieve_extend.c ****         }
 2265              		.loc 1 754 109 discriminator 3 view .LVU694
 2266 0e1c C4C17E6F 		vmovdqu	ymm6, YMMWORD PTR [r11+rdx]	# tmp981, MEM[base: vectp.202_332, index: ivtmp.241_483, offse
 2266      3413
 2267              	# sieve_extend.c:754:             bitarray[copy_word+i] = (bitarray[source_word+i] >> shift_flipped
 754:sieve_extend.c ****         }
 2268              		.loc 1 754 62 discriminator 3 view .LVU695
 2269 0e22 C50DD3F9 		vpsrlq	ymm15, ymm14, xmm1	# vect__49.200, tmp980, _184
 2270              	# sieve_extend.c:754:             bitarray[copy_word+i] = (bitarray[source_word+i] >> shift_flipped
GAS LISTING /tmp/ccH5HMHD.s 			page 65


 754:sieve_extend.c ****         }
 2271              		.loc 1 754 109 discriminator 3 view .LVU696
 2272 0e26 C5CDF3D0 		vpsllq	ymm2, ymm6, xmm0	# vect__54.204, tmp981, _182
 2273              	# sieve_extend.c:754:             bitarray[copy_word+i] = (bitarray[source_word+i] >> shift_flipped
 754:sieve_extend.c ****         }
 2274              		.loc 1 754 80 discriminator 3 view .LVU697
 2275 0e2a C585EBFA 		vpor	ymm7, ymm15, ymm2	# vect__58.205, vect__49.200, vect__54.204
 2276              	# sieve_extend.c:754:             bitarray[copy_word+i] = (bitarray[source_word+i] >> shift_flipped
 754:sieve_extend.c ****         }
 2277              		.loc 1 754 35 discriminator 3 view .LVU698
 2278 0e2e C4C17E7F 		vmovdqu	YMMWORD PTR [r9+rdx], ymm7	# MEM[base: vectp.207_341, index: ivtmp.241_483, offset: 0B], v
 2278      3C11
 753:sieve_extend.c ****             bitarray[copy_word+i] = (bitarray[source_word+i] >> shift_flipped) | (bitarray[source_w
 2279              		.loc 1 753 58 is_stmt 1 discriminator 3 view .LVU699
 753:sieve_extend.c ****             bitarray[copy_word+i] = (bitarray[source_word+i] >> shift_flipped) | (bitarray[source_w
 2280              		.loc 1 753 40 discriminator 3 view .LVU700
 754:sieve_extend.c ****         }
 2281              		.loc 1 754 13 discriminator 3 view .LVU701
 2282              	# sieve_extend.c:754:             bitarray[copy_word+i] = (bitarray[source_word+i] >> shift_flipped
 754:sieve_extend.c ****         }
 2283              		.loc 1 754 62 is_stmt 0 discriminator 3 view .LVU702
 2284 0e34 C4C17D6F 		vmovdqa	ymm4, YMMWORD PTR 32[r10+rdx]	# tmp982, MEM[base: vectp.198_325, index: ivtmp.241_483, off
 2284      641220
 2285              	# sieve_extend.c:754:             bitarray[copy_word+i] = (bitarray[source_word+i] >> shift_flipped
 754:sieve_extend.c ****         }
 2286              		.loc 1 754 109 discriminator 3 view .LVU703
 2287 0e3b C4C17E6F 		vmovdqu	ymm5, YMMWORD PTR 32[r11+rdx]	# tmp983, MEM[base: vectp.202_332, index: ivtmp.241_483, off
 2287      6C1320
 2288              	# sieve_extend.c:754:             bitarray[copy_word+i] = (bitarray[source_word+i] >> shift_flipped
 754:sieve_extend.c ****         }
 2289              		.loc 1 754 62 discriminator 3 view .LVU704
 2290 0e42 C55DD3C1 		vpsrlq	ymm8, ymm4, xmm1	# vect__49.200, tmp982, _184
 2291              	# sieve_extend.c:754:             bitarray[copy_word+i] = (bitarray[source_word+i] >> shift_flipped
 754:sieve_extend.c ****         }
 2292              		.loc 1 754 109 discriminator 3 view .LVU705
 2293 0e46 C555F3C8 		vpsllq	ymm9, ymm5, xmm0	# vect__54.204, tmp983, _182
 2294              	# sieve_extend.c:754:             bitarray[copy_word+i] = (bitarray[source_word+i] >> shift_flipped
 754:sieve_extend.c ****         }
 2295              		.loc 1 754 80 discriminator 3 view .LVU706
 2296 0e4a C4413DEB 		vpor	ymm10, ymm8, ymm9	# vect__58.205, vect__49.200, vect__54.204
 2296      D1
 2297              	# sieve_extend.c:754:             bitarray[copy_word+i] = (bitarray[source_word+i] >> shift_flipped
 754:sieve_extend.c ****         }
 2298              		.loc 1 754 35 discriminator 3 view .LVU707
 2299 0e4f C4417E7F 		vmovdqu	YMMWORD PTR 32[r9+rdx], ymm10	# MEM[base: vectp.207_341, index: ivtmp.241_483, offset: 0B]
 2299      541120
 753:sieve_extend.c ****             bitarray[copy_word+i] = (bitarray[source_word+i] >> shift_flipped) | (bitarray[source_w
 2300              		.loc 1 753 58 is_stmt 1 discriminator 3 view .LVU708
 753:sieve_extend.c ****             bitarray[copy_word+i] = (bitarray[source_word+i] >> shift_flipped) | (bitarray[source_w
 2301              		.loc 1 753 40 discriminator 3 view .LVU709
 754:sieve_extend.c ****         }
 2302              		.loc 1 754 13 discriminator 3 view .LVU710
 2303              	# sieve_extend.c:754:             bitarray[copy_word+i] = (bitarray[source_word+i] >> shift_flipped
 754:sieve_extend.c ****         }
 2304              		.loc 1 754 62 is_stmt 0 discriminator 3 view .LVU711
 2305 0e56 C4417D6F 		vmovdqa	ymm11, YMMWORD PTR 64[r10+rdx]	# tmp984, MEM[base: vectp.198_325, index: ivtmp.241_483, of
 2305      5C1240
GAS LISTING /tmp/ccH5HMHD.s 			page 66


 2306              	# sieve_extend.c:754:             bitarray[copy_word+i] = (bitarray[source_word+i] >> shift_flipped
 754:sieve_extend.c ****         }
 2307              		.loc 1 754 109 discriminator 3 view .LVU712
 2308 0e5d C4C17E6F 		vmovdqu	ymm3, YMMWORD PTR 64[r11+rdx]	# tmp985, MEM[base: vectp.202_332, index: ivtmp.241_483, off
 2308      5C1340
 2309              	# sieve_extend.c:754:             bitarray[copy_word+i] = (bitarray[source_word+i] >> shift_flipped
 754:sieve_extend.c ****         }
 2310              		.loc 1 754 62 discriminator 3 view .LVU713
 2311 0e64 C525D3E1 		vpsrlq	ymm12, ymm11, xmm1	# vect__49.200, tmp984, _184
 2312              	# sieve_extend.c:754:             bitarray[copy_word+i] = (bitarray[source_word+i] >> shift_flipped
 754:sieve_extend.c ****         }
 2313              		.loc 1 754 109 discriminator 3 view .LVU714
 2314 0e68 C565F3E8 		vpsllq	ymm13, ymm3, xmm0	# vect__54.204, tmp985, _182
 2315              	# sieve_extend.c:754:             bitarray[copy_word+i] = (bitarray[source_word+i] >> shift_flipped
 754:sieve_extend.c ****         }
 2316              		.loc 1 754 80 discriminator 3 view .LVU715
 2317 0e6c C4411DEB 		vpor	ymm14, ymm12, ymm13	# vect__58.205, vect__49.200, vect__54.204
 2317      F5
 2318              	# sieve_extend.c:754:             bitarray[copy_word+i] = (bitarray[source_word+i] >> shift_flipped
 754:sieve_extend.c ****         }
 2319              		.loc 1 754 35 discriminator 3 view .LVU716
 2320 0e71 C4417E7F 		vmovdqu	YMMWORD PTR 64[r9+rdx], ymm14	# MEM[base: vectp.207_341, index: ivtmp.241_483, offset: 0B]
 2320      741140
 753:sieve_extend.c ****             bitarray[copy_word+i] = (bitarray[source_word+i] >> shift_flipped) | (bitarray[source_w
 2321              		.loc 1 753 58 is_stmt 1 discriminator 3 view .LVU717
 753:sieve_extend.c ****             bitarray[copy_word+i] = (bitarray[source_word+i] >> shift_flipped) | (bitarray[source_w
 2322              		.loc 1 753 40 discriminator 3 view .LVU718
 754:sieve_extend.c ****         }
 2323              		.loc 1 754 13 discriminator 3 view .LVU719
 2324              	# sieve_extend.c:754:             bitarray[copy_word+i] = (bitarray[source_word+i] >> shift_flipped
 754:sieve_extend.c ****         }
 2325              		.loc 1 754 62 is_stmt 0 discriminator 3 view .LVU720
 2326 0e78 C4417D6F 		vmovdqa	ymm15, YMMWORD PTR 96[r10+rdx]	# tmp986, MEM[base: vectp.198_325, index: ivtmp.241_483, of
 2326      7C1260
 2327              	# sieve_extend.c:754:             bitarray[copy_word+i] = (bitarray[source_word+i] >> shift_flipped
 754:sieve_extend.c ****         }
 2328              		.loc 1 754 109 discriminator 3 view .LVU721
 2329 0e7f C4C17E6F 		vmovdqu	ymm2, YMMWORD PTR 96[r11+rdx]	# tmp987, MEM[base: vectp.202_332, index: ivtmp.241_483, off
 2329      541360
 2330              	# sieve_extend.c:754:             bitarray[copy_word+i] = (bitarray[source_word+i] >> shift_flipped
 754:sieve_extend.c ****         }
