GAS LISTING /tmp/ccG38KJh.s 			page 1


   1              		.file	"sieve_extend.c"
   2              		.intel_syntax noprefix
   3              	# GNU C17 (Ubuntu 9.4.0-1ubuntu1~20.04.1) version 9.4.0 (x86_64-linux-gnu)
   4              	#	compiled by GNU C version 9.4.0, GMP version 6.2.0, MPFR version 4.0.2, MPC version 1.1.0, isl ve
   5              	
   6              	# GGC heuristics: --param ggc-min-expand=100 --param ggc-min-heapsize=131072
   7              	# options passed:  -imultiarch x86_64-linux-gnu -D_REENTRANT sieve_extend.c
   8              	# -march=skylake -mmmx -mno-3dnow -msse -msse2 -msse3 -mssse3 -mno-sse4a
   9              	# -mcx16 -msahf -mmovbe -maes -mno-sha -mpclmul -mpopcnt -mabm -mno-lwp
  10              	# -mfma -mno-fma4 -mno-xop -mbmi -mno-sgx -mbmi2 -mno-pconfig -mno-wbnoinvd
  11              	# -mno-tbm -mavx2 -msse4.2 -msse4.1 -mlzcnt -mrtm -mhle -mrdrnd -mf16c
  12              	# -mfsgsbase -mrdseed -mprfchw -madx -mfxsr -mxsave -mxsaveopt -mno-avx512f
  13              	# -mno-avx512er -mno-avx512cd -mno-avx512pf -mno-prefetchwt1 -mclflushopt
  14              	# -mxsavec -mxsaves -mno-avx512dq -mno-avx512bw -mno-avx512vl
  15              	# -mno-avx512ifma -mno-avx512vbmi -mno-avx5124fmaps -mno-avx5124vnniw
  16              	# -mno-clwb -mno-mwaitx -mno-clzero -mno-pku -mno-rdpid -mno-gfni
  17              	# -mno-shstk -mno-avx512vbmi2 -mno-avx512vnni -mno-vaes -mno-vpclmulqdq
  18              	# -mno-avx512bitalg -mno-avx512vpopcntdq -mno-movdiri -mno-movdir64b
  19              	# -mno-waitpkg -mno-cldemote -mno-ptwrite --param l1-cache-size=32
  20              	# --param l1-cache-line-size=64 --param l2-cache-size=12288 -mtune=skylake
  21              	# -malign-data=cacheline -masm=intel -mavx -g -Ofast -Wextra -Wall
  22              	# -Wno-unused-function -funroll-all-loops -fno-asynchronous-unwind-tables
  23              	# -fno-exceptions -fverbose-asm -fopenmp -fstack-protector-strong
  24              	# -Wformat-security -fstack-clash-protection -fcf-protection
  25              	# options enabled:  -fPIC -fPIE -faggressive-loop-optimizations
  26              	# -falign-functions -falign-jumps -falign-labels -falign-loops
  27              	# -fassociative-math -fassume-phsa -fauto-inc-dec -fbranch-count-reg
  28              	# -fcaller-saves -fcode-hoisting -fcombine-stack-adjustments -fcommon
  29              	# -fcompare-elim -fcprop-registers -fcrossjumping -fcse-follow-jumps
  30              	# -fcx-limited-range -fdefer-pop -fdelete-null-pointer-checks
  31              	# -fdevirtualize -fdevirtualize-speculatively -fdwarf2-cfi-asm
  32              	# -fearly-inlining -feliminate-unused-debug-types -fexpensive-optimizations
  33              	# -ffinite-math-only -fforward-propagate -ffp-int-builtin-inexact
  34              	# -ffunction-cse -fgcse -fgcse-after-reload -fgcse-lm -fgnu-runtime
  35              	# -fgnu-unique -fguess-branch-probability -fhoist-adjacent-loads -fident
  36              	# -fif-conversion -fif-conversion2 -findirect-inlining -finline
  37              	# -finline-atomics -finline-functions -finline-functions-called-once
  38              	# -finline-small-functions -fipa-bit-cp -fipa-cp -fipa-cp-clone -fipa-icf
  39              	# -fipa-icf-functions -fipa-icf-variables -fipa-profile -fipa-pure-const
  40              	# -fipa-ra -fipa-reference -fipa-reference-addressable -fipa-sra
  41              	# -fipa-stack-alignment -fipa-vrp -fira-hoist-pressure
  42              	# -fira-share-save-slots -fira-share-spill-slots
  43              	# -fisolate-erroneous-paths-dereference -fivopts -fkeep-static-consts
  44              	# -fleading-underscore -flifetime-dse -floop-interchange
  45              	# -floop-unroll-and-jam -flra-remat -flto-odr-type-merging
  46              	# -fmerge-constants -fmerge-debug-strings -fmove-loop-invariants
  47              	# -fomit-frame-pointer -foptimize-sibling-calls -foptimize-strlen
  48              	# -fpartial-inlining -fpeel-loops -fpeephole -fpeephole2 -fplt
  49              	# -fpredictive-commoning -fprefetch-loop-arrays -freciprocal-math -free
  50              	# -freg-struct-return -frename-registers -freorder-blocks
  51              	# -freorder-blocks-and-partition -freorder-functions -frerun-cse-after-loop
  52              	# -fsched-critical-path-heuristic -fsched-dep-count-heuristic
  53              	# -fsched-group-heuristic -fsched-interblock -fsched-last-insn-heuristic
  54              	# -fsched-rank-heuristic -fsched-spec -fsched-spec-insn-heuristic
  55              	# -fsched-stalled-insns-dep -fschedule-fusion -fschedule-insns2
  56              	# -fsemantic-interposition -fshow-column -fshrink-wrap
  57              	# -fshrink-wrap-separate -fsplit-ivs-in-unroller -fsplit-loops
GAS LISTING /tmp/ccG38KJh.s 			page 2


  58              	# -fsplit-paths -fsplit-wide-types -fssa-backprop -fssa-phiopt
  59              	# -fstack-clash-protection -fstack-protector-strong -fstdarg-opt
  60              	# -fstore-merging -fstrict-aliasing -fstrict-volatile-bitfields
  61              	# -fsync-libcalls -fthread-jumps -ftoplevel-reorder -ftree-bit-ccp
  62              	# -ftree-builtin-call-dce -ftree-ccp -ftree-ch -ftree-coalesce-vars
  63              	# -ftree-copy-prop -ftree-cselim -ftree-dce -ftree-dominator-opts
  64              	# -ftree-dse -ftree-forwprop -ftree-fre -ftree-loop-distribute-patterns
  65              	# -ftree-loop-distribution -ftree-loop-if-convert -ftree-loop-im
  66              	# -ftree-loop-ivcanon -ftree-loop-optimize -ftree-loop-vectorize
  67              	# -ftree-parallelize-loops= -ftree-partial-pre -ftree-phiprop -ftree-pre
  68              	# -ftree-pta -ftree-reassoc -ftree-scev-cprop -ftree-sink
  69              	# -ftree-slp-vectorize -ftree-slsr -ftree-sra -ftree-switch-conversion
  70              	# -ftree-tail-merge -ftree-ter -ftree-vrp -funit-at-a-time
  71              	# -funroll-all-loops -funroll-loops -funsafe-math-optimizations
  72              	# -funswitch-loops -fvar-tracking -fvar-tracking-assignments -fverbose-asm
  73              	# -fversion-loops-for-strides -fweb -fzero-initialized-in-bss
  74              	# -m128bit-long-double -m64 -m80387 -mabm -madx -maes -malign-stringops
  75              	# -mavx -mavx2 -mbmi -mbmi2 -mclflushopt -mcx16 -mf16c -mfancy-math-387
  76              	# -mfma -mfp-ret-in-387 -mfsgsbase -mfxsr -mglibc -mhle -mlong-double-80
  77              	# -mlzcnt -mmmx -mmovbe -mpclmul -mpopcnt -mprfchw -mpush-args -mrdrnd
  78              	# -mrdseed -mred-zone -mrtm -msahf -msse -msse2 -msse3 -msse4 -msse4.1
  79              	# -msse4.2 -mssse3 -mstv -mtls-direct-seg-refs -mvzeroupper -mxsave
  80              	# -mxsavec -mxsaveopt -mxsaves
  81              	
  82              		.text
  83              	.Ltext0:
  84              		.cfi_sections	.debug_frame
  85              		.p2align 4
  87              	continuePattern_smallSize:
  88              	.LVL0:
  89              	.LFB59:
  90              		.file 1 "sieve_extend.c"
   1:sieve_extend.c **** // Sieve algorithm by Rogier van Dam - 2022
   2:sieve_extend.c **** // Find all primes up to <max int> using the Sieve of Eratosthenes (https://en.wikipedia.org/wiki/S
   3:sieve_extend.c **** 
   4:sieve_extend.c **** #include <stdio.h>
   5:sieve_extend.c **** #include <stdlib.h>
   6:sieve_extend.c **** #include <stdint.h>
   7:sieve_extend.c **** #include <time.h>
   8:sieve_extend.c **** #include <math.h>
   9:sieve_extend.c **** #include <string.h>
  10:sieve_extend.c **** #ifdef _OPENMP
  11:sieve_extend.c **** #include <omp.h>
  12:sieve_extend.c **** #endif
  13:sieve_extend.c **** 
  14:sieve_extend.c **** //add debug in front of a line to only compile it if the value below is set to 1 (or !=0)
  15:sieve_extend.c **** #define option_runonce 0
  16:sieve_extend.c **** #define debug if (option_runonce)
  17:sieve_extend.c **** #define verbose(level) if (option_verboselevel >= level)
  18:sieve_extend.c **** #define verbose_at(level) if (option_verboselevel == level)
  19:sieve_extend.c **** 
  20:sieve_extend.c **** // defaults
  21:sieve_extend.c **** #define default_sieve_limit 1000000
  22:sieve_extend.c **** #define default_blocksize (32*1024*8)
  23:sieve_extend.c **** #define default_max_time 5
  24:sieve_extend.c **** #define default_sample_duration 0.1
  25:sieve_extend.c **** #define default_sample_max 5
GAS LISTING /tmp/ccG38KJh.s 			page 3


  26:sieve_extend.c **** #define default_verbose_level 0
  27:sieve_extend.c **** #define default_tune_level 1
  28:sieve_extend.c **** #define default_check_level 1
  29:sieve_extend.c **** #define default_show_primes_on_error 100
  30:sieve_extend.c **** #define default_showMaxFactor (0 || option_runonce?100:0)
  31:sieve_extend.c **** #define anticiped_cache_line_bytesize 128
  32:sieve_extend.c **** 
  33:sieve_extend.c **** // helper functions
  34:sieve_extend.c **** #define pow(base,pow) (pow*((base>>pow)&1U))
  35:sieve_extend.c **** #define min(a,b) ((a<b) ? a : b)
  36:sieve_extend.c **** #define uintsafeminus(a,b) ((a>b)?(a-b):0)
  37:sieve_extend.c **** #define likely(x)       (__builtin_expect((x),1))
  38:sieve_extend.c **** #define unlikely(x)     (__builtin_expect((x),0))
  39:sieve_extend.c **** 
  40:sieve_extend.c **** // types
  41:sieve_extend.c **** #define bitword_t uint64_t
  42:sieve_extend.c **** #define TYPE uint64_t
  43:sieve_extend.c **** #define counter_t TYPE
  44:sieve_extend.c **** #define bitshift_t TYPE
  45:sieve_extend.c **** 
  46:sieve_extend.c **** // masks and mask helpers
  47:sieve_extend.c **** #define WORD_SIZE (sizeof(bitword_t)*8)
  48:sieve_extend.c **** #define WORD_SIZE_counter ((counter_t)WORD_SIZE)
  49:sieve_extend.c **** #define WORD_SIZE_bitshift ((bitshift_t)WORD_SIZE)
  50:sieve_extend.c **** #define SHIFT_WORD ((bitshift_t)(pow(WORD_SIZE,1)+pow(WORD_SIZE,2)+pow(WORD_SIZE,3)+pow(WORD_SIZE,4
  51:sieve_extend.c **** #define VECTOR_ELEMENTS 4
  52:sieve_extend.c **** #define VECTOR_SIZE_bytes (sizeof(bitword_t)*VECTOR_ELEMENTS)
  53:sieve_extend.c **** #define VECTOR_SIZE_counter ((counter_t)VECTOR_SIZE_bytes*8)
  54:sieve_extend.c **** #define VECTOR_SIZE (VECTOR_SIZE_bytes*8)
  55:sieve_extend.c **** #define SHIFT_VECTOR ((bitshift_t)(pow(VECTOR_SIZE,1)+pow(VECTOR_SIZE,2)+pow(VECTOR_SIZE,3)+pow(VEC
  56:sieve_extend.c **** 
  57:sieve_extend.c **** // types (II) - calculated
  58:sieve_extend.c **** typedef bitword_t bitvector_t __attribute__ ((vector_size(VECTOR_SIZE_bytes)));
  59:sieve_extend.c **** 
  60:sieve_extend.c **** // globals for tuning
  61:sieve_extend.c **** // #define SMALLSTEP_FASTER ((counter_t)0)
  62:sieve_extend.c **** // #define MEDIUMSTEP_FASTER ((counter_t)16)
  63:sieve_extend.c **** // #define VECTORSTEP_FASTER ((counter_t)128)
  64:sieve_extend.c **** counter_t global_SMALLSTEP_FASTER = 0;
  65:sieve_extend.c **** counter_t global_MEDIUMSTEP_FASTER = 32;
  66:sieve_extend.c **** counter_t global_VECTORSTEP_FASTER = 96;
  67:sieve_extend.c **** #define SMALLSTEP_FASTER ((counter_t)global_SMALLSTEP_FASTER)
  68:sieve_extend.c **** #define MEDIUMSTEP_FASTER ((counter_t)global_MEDIUMSTEP_FASTER)
  69:sieve_extend.c **** #define VECTORSTEP_FASTER ((counter_t)global_VECTORSTEP_FASTER)
  70:sieve_extend.c **** 
  71:sieve_extend.c **** // Patterns based on types
  72:sieve_extend.c **** #define SAFE_SHIFTBIT (bitshift_t)1U
  73:sieve_extend.c **** #define SAFE_ZERO  (bitword_t)0U
  74:sieve_extend.c **** #define BITWORD_SHIFTBIT (bitword_t)1U
  75:sieve_extend.c **** #define WORDMASK ((~SAFE_ZERO)>>(WORD_SIZE_bitshift-SHIFT_WORD))
  76:sieve_extend.c **** #define VECTORMASK ((~SAFE_ZERO)>>(WORD_SIZE_bitshift-SHIFT_VECTOR))
  77:sieve_extend.c **** 
  78:sieve_extend.c **** // helpder functions for word/vector indexing
  79:sieve_extend.c **** #define wordindex(index) (((counter_t)index) >> (bitshift_t)SHIFT_WORD)
  80:sieve_extend.c **** #define wordend(index) ((counter_t)index|WORDMASK)
  81:sieve_extend.c **** #define wordstart(index) ((counter_t)(index)&(counter_t)(~WORDMASK))
  82:sieve_extend.c **** #define vectorindex(index) (((counter_t)index) >> (bitshift_t)SHIFT_VECTOR)
GAS LISTING /tmp/ccG38KJh.s 			page 4


  83:sieve_extend.c **** #define vectorstart(index) (((counter_t)index) & (counter_t)~VECTORMASK)
  84:sieve_extend.c **** #define vectorfromword(word) ((counter_t)(word)>>(SHIFT_VECTOR-SHIFT_WORD))
  85:sieve_extend.c **** #define wordinvector(index) ((counter_t)(index) & (counter_t)VECTORMASK)
  86:sieve_extend.c **** 
  87:sieve_extend.c **** // modern processors do a & over the shiftssize, so we only have to do that ourselve when using the
  88:sieve_extend.c **** #define bitindex(index) ((bitshift_t)(index))
  89:sieve_extend.c **** #define bitindex_calc(index) ((bitshift_t)(index)&((bitshift_t)(WORDMASK)))
  90:sieve_extend.c **** #define markmask(index) (BITWORD_SHIFTBIT << bitindex(index))
  91:sieve_extend.c **** #define markmask_calc(index) (BITWORD_SHIFTBIT << bitindex_calc(index))
  92:sieve_extend.c **** // #define chopmask(index) ((SAFE_SHIFTBIT << bitindex(index))-SAFE_SHIFTBIT)
  93:sieve_extend.c **** #define chopmask(index) (~SAFE_ZERO >> (WORD_SIZE-1-bitindex_calc(index)))
  94:sieve_extend.c **** #define keepmask(index) (~SAFE_ZERO << (bitindex_calc(index)))
  95:sieve_extend.c **** 
  96:sieve_extend.c **** struct sieve_t {
  97:sieve_extend.c ****     bitword_t* bitstorage;
  98:sieve_extend.c ****     counter_t  bits;
  99:sieve_extend.c ****     counter_t  size;
 100:sieve_extend.c **** };
 101:sieve_extend.c **** 
 102:sieve_extend.c **** //#include "debugtools.h"
 103:sieve_extend.c **** 
 104:sieve_extend.c **** // use cache lines as much as possible - alignment might be key
 105:sieve_extend.c **** // moved clearing the sieve with 0 to the sieve_block_extend - it gave weird malloc problems at thi
 106:sieve_extend.c **** #define ceiling(x,y) (((x) + (y) - 1) / (y)) // Return the smallest multiple N of y such that:  x <
 107:sieve_extend.c **** static struct sieve_t *sieve_create(counter_t size) {
 108:sieve_extend.c ****     struct sieve_t *sieve = aligned_alloc(8, sizeof(struct sieve_t));
 109:sieve_extend.c ****     sieve->bitstorage = aligned_alloc((size_t)anticiped_cache_line_bytesize, (size_t)ceiling(1+((si
 110:sieve_extend.c ****     sieve->bits     = size >> 1;
 111:sieve_extend.c ****     sieve->size     = size;
 112:sieve_extend.c ****     return sieve;
 113:sieve_extend.c **** }
 114:sieve_extend.c **** 
 115:sieve_extend.c **** static void sieve_delete(struct sieve_t *sieve) {
 116:sieve_extend.c ****     free(sieve->bitstorage);
 117:sieve_extend.c ****     free(sieve);
 118:sieve_extend.c **** }
 119:sieve_extend.c **** 
 120:sieve_extend.c **** // search the next bit not set - for small expected distances
 121:sieve_extend.c **** static inline counter_t searchBitFalse(bitword_t* bitstorage, register counter_t index) {
 122:sieve_extend.c ****     while (bitstorage[wordindex(index)] & markmask(index)) index++;
 123:sieve_extend.c ****     return index;
 124:sieve_extend.c **** }
 125:sieve_extend.c **** 
 126:sieve_extend.c **** // not much performance gain at smaller sieves, but its's nice to have an implementation
 127:sieve_extend.c **** static inline counter_t searchBitFalse_longRange(bitword_t* bitstorage, register counter_t index) {
 128:sieve_extend.c ****    const bitshift_t index_bit  = bitindex_calc(index);
 129:sieve_extend.c ****    register counter_t index_word = wordindex(index);
 130:sieve_extend.c ****    register bitshift_t distance = (bitshift_t) __builtin_ctzll( ~(bitstorage[index_word] >> index_b
 131:sieve_extend.c ****    index += distance;
 132:sieve_extend.c ****    distance += index_bit;
 133:sieve_extend.c **** 
 134:sieve_extend.c ****    while unlikely(distance == WORD_SIZE_bitshift) { // to prevent a bug from optimzer
 135:sieve_extend.c ****        index_word++;
 136:sieve_extend.c ****        distance = (bitshift_t) __builtin_ctzll(~(bitstorage[index_word]));
 137:sieve_extend.c ****        index += distance;
 138:sieve_extend.c ****    }
 139:sieve_extend.c **** 
GAS LISTING /tmp/ccG38KJh.s 			page 5


 140:sieve_extend.c ****    return index;
 141:sieve_extend.c **** }
 142:sieve_extend.c **** 
 143:sieve_extend.c **** // apply the same word mask at large ranges
 144:sieve_extend.c **** // manually unlooped - this here is where the main speed increase comes from
 145:sieve_extend.c **** // idea from PrimeRust/solution_1 by Michael Barber 
 146:sieve_extend.c **** static inline void applyMask_word(bitword_t* __restrict bitstorage, const counter_t step, const cou
 147:sieve_extend.c ****    const counter_t range_stop_word = wordindex(range_stop);
 148:sieve_extend.c ****    register bitword_t* __restrict index_ptr      =  __builtin_assume_aligned(&bitstorage[index_word
 149:sieve_extend.c ****    register bitword_t* __restrict fast_loop_ptr  =  __builtin_assume_aligned(&bitstorage[((range_st
 150:sieve_extend.c **** 
 151:sieve_extend.c ****    //#pragma GCC unroll 10
 152:sieve_extend.c ****    #pragma GCC ivdep
 153:sieve_extend.c ****    while likely(index_ptr < fast_loop_ptr) {
 154:sieve_extend.c ****        *index_ptr |= mask;  index_ptr+=step;
 155:sieve_extend.c ****        *index_ptr |= mask;  index_ptr+=step;
 156:sieve_extend.c ****        *index_ptr |= mask;  index_ptr+=step;
 157:sieve_extend.c ****        *index_ptr |= mask;  index_ptr+=step;
 158:sieve_extend.c ****        *index_ptr |= mask;  index_ptr+=step;
 159:sieve_extend.c ****    }
 160:sieve_extend.c **** 
 161:sieve_extend.c ****    register const bitword_t* __restrict range_stop_ptr = __builtin_assume_aligned(&bitstorage[(rang
 162:sieve_extend.c ****    while likely(index_ptr < range_stop_ptr) {
 163:sieve_extend.c ****        *index_ptr |= mask;  index_ptr+=step;
 164:sieve_extend.c ****    }
 165:sieve_extend.c **** 
 166:sieve_extend.c ****    if (index_ptr == range_stop_ptr) { // index_ptr could also end above range_stop_ptr, depending o
 167:sieve_extend.c ****       *index_ptr |= (mask & chopmask(range_stop));
 168:sieve_extend.c ****    }
 169:sieve_extend.c **** }
 170:sieve_extend.c **** 
 171:sieve_extend.c **** // same as word mask, but at a vector level - uses the sse/avx extensions, hopefully
 172:sieve_extend.c **** static inline void applyMask_vector(bitvector_t* __restrict bitstorage, const counter_t step, const
 173:sieve_extend.c ****     const counter_t range_stop_vector = vectorindex(range_stop);
 174:sieve_extend.c ****     register bitvector_t* __restrict index_ptr      =  __builtin_assume_aligned(&bitstorage[index_v
 175:sieve_extend.c ****     register bitvector_t* __restrict fast_loop_ptr  =  __builtin_assume_aligned(&bitstorage[((range
 176:sieve_extend.c ****     
 177:sieve_extend.c ****     #pragma GCC ivdep
 178:sieve_extend.c ****     while likely(index_ptr < fast_loop_ptr) {
 179:sieve_extend.c ****         *index_ptr |= mask; index_ptr+=step;
 180:sieve_extend.c ****         *index_ptr |= mask; index_ptr+=step;
 181:sieve_extend.c ****         *index_ptr |= mask; index_ptr+=step;
 182:sieve_extend.c ****         *index_ptr |= mask; index_ptr+=step;
 183:sieve_extend.c ****     }
 184:sieve_extend.c ****     
 185:sieve_extend.c ****     register const bitvector_t* __restrict range_stop_ptr = __builtin_assume_aligned(&bitstorage[(r
 186:sieve_extend.c ****     while likely(index_ptr <= range_stop_ptr) {
 187:sieve_extend.c ****         *index_ptr |= mask; index_ptr+=step;
 188:sieve_extend.c ****     }
 189:sieve_extend.c **** }
 190:sieve_extend.c **** 
 191:sieve_extend.c **** // Medium steps could be within the same word (e.g. less than 64 bits apart).
 192:sieve_extend.c **** // By joining the masks and then writing to memory, we might save some time.
 193:sieve_extend.c **** // This is especially true for small steps over long ranges
 194:sieve_extend.c **** // but it needs tuning, because there is some overhead of checking if the next step is in the same 
 195:sieve_extend.c **** static void  setBitsTrue_mediumStep(bitword_t* __restrict bitstorage, const counter_t range_start, 
 196:sieve_extend.c ****     const counter_t range_stop_unique =  range_start + WORD_SIZE_counter * step;
GAS LISTING /tmp/ccG38KJh.s 			page 6


 197:sieve_extend.c **** 
 198:sieve_extend.c ****     if (range_stop_unique > range_stop) { // the range will not repeat itself; no need to try to re
 199:sieve_extend.c ****         debug printf("Setting bits step %ju in %ju bit range (%ju-%ju) using mediumstep-unique (%ju
 200:sieve_extend.c **** 
 201:sieve_extend.c ****         for (register counter_t index = range_start; index <= range_stop;) {
 202:sieve_extend.c ****             register counter_t index_word = wordindex(index);
 203:sieve_extend.c ****             register bitword_t mask = SAFE_ZERO;
 204:sieve_extend.c ****             for(; index_word == wordindex(index); index += step) mask |= markmask(index);
 205:sieve_extend.c ****             bitstorage[index_word] |= mask;
 206:sieve_extend.c ****         }
 207:sieve_extend.c ****     }
 208:sieve_extend.c ****     else { // this mask will reoccur at a interval of step words -> fill mask and reapply as a inte
 209:sieve_extend.c ****         debug printf("Setting bits step %ju in %ju bit range (%ju-%ju) using mediumstep-repeat (%ju
 210:sieve_extend.c ****         
 211:sieve_extend.c ****         for (register counter_t index = range_start; index <= range_stop_unique;) {
 212:sieve_extend.c ****             register counter_t index_word = wordindex(index);
 213:sieve_extend.c ****             register bitword_t mask = SAFE_ZERO;
 214:sieve_extend.c ****             for(; index_word == wordindex(index); index += step) mask |= markmask(index);
 215:sieve_extend.c ****             applyMask_word(bitstorage, step, range_stop, mask, index_word);
 216:sieve_extend.c ****         }
 217:sieve_extend.c ****     }
 218:sieve_extend.c **** }
 219:sieve_extend.c **** 
 220:sieve_extend.c **** // Large ranges (> WORD_SIZE * step) mean the same mask can be reused
 221:sieve_extend.c **** static inline void setBitsTrue_largeRange(bitword_t* __restrict bitstorage, const counter_t range_s
 222:sieve_extend.c ****     debug printf("Setting bits step %ju in %ju bit range (%ju-%ju) using largerange (%ju occurances
 223:sieve_extend.c ****     const counter_t range_stop_unique =  range_start + WORD_SIZE_counter * step;
 224:sieve_extend.c **** 
 225:sieve_extend.c ****     #pragma GCC ivdep
 226:sieve_extend.c ****     for (register counter_t index = range_start; index < range_stop_unique; index += step) {
 227:sieve_extend.c ****         applyMask_word(bitstorage, step, range_stop, markmask(index), wordindex(index));
 228:sieve_extend.c ****     }
 229:sieve_extend.c **** }
 230:sieve_extend.c **** 
 231:sieve_extend.c **** static inline void setBitsTrue_largeRange_vector(bitword_t* __restrict bitstorage_word, counter_t r
 232:sieve_extend.c ****     debug printf("Setting bits step %ju in %ju bit range (%ju-%ju) using largerange vector (%ju occ
 233:sieve_extend.c **** 
 234:sieve_extend.c ****     counter_t range_start_atvector = vectorstart(range_start);
 235:sieve_extend.c ****     if likely(( range_start_atvector + step) < range_start) { // not the first step possible in thi
 236:sieve_extend.c ****         debug printf("..Range start+step %ju not at start of vector %ju\n",(uintmax_t)range_start+(
 237:sieve_extend.c **** 
 238:sieve_extend.c ****         range_start_atvector += VECTOR_SIZE; // find next vector
 239:sieve_extend.c ****         if (unlikely(range_start_atvector > range_stop)) { // we should not be here; just handle wi
 240:sieve_extend.c ****             for (counter_t index = range_start; index <= range_stop; index += step) 
 241:sieve_extend.c ****                 bitstorage_word[wordindex(index)] |= markmask(index);
 242:sieve_extend.c ****             return;
 243:sieve_extend.c ****         }
 244:sieve_extend.c **** 
 245:sieve_extend.c ****         for (; range_start <= range_start_atvector; range_start += step) 
 246:sieve_extend.c ****             bitstorage_word[wordindex(range_start)] |= markmask(range_start);
 247:sieve_extend.c ****     }
 248:sieve_extend.c ****     
 249:sieve_extend.c ****     const counter_t range_stop_unique =  range_start + VECTOR_SIZE_counter * step;
 250:sieve_extend.c ****     if (range_stop_unique >= range_stop) {
 251:sieve_extend.c ****         setBitsTrue_largeRange(bitstorage_word, range_start, step, range_stop);
 252:sieve_extend.c ****         return;
 253:sieve_extend.c ****     }
GAS LISTING /tmp/ccG38KJh.s 			page 7


 254:sieve_extend.c **** 
 255:sieve_extend.c ****     debug printf("..building masks in range %ju-%ju\n", (uintmax_t)range_start, (uintmax_t)range_st
 256:sieve_extend.c ****     for (counter_t index = range_start; index < range_stop_unique;) {
 257:sieve_extend.c ****         const counter_t current_vector =  vectorindex(index);
 258:sieve_extend.c ****         const counter_t current_vector_start_word =  current_vector << (SHIFT_VECTOR - SHIFT_WORD);
 259:sieve_extend.c ****         register counter_t word = wordindex(index) - current_vector_start_word;
 260:sieve_extend.c ****         register bitvector_t quadmask = { };
 261:sieve_extend.c **** 
 262:sieve_extend.c ****         // build a quadmask
 263:sieve_extend.c ****         #pragma GCC ivdep 
 264:sieve_extend.c ****         do {
 265:sieve_extend.c ****             quadmask[word] |= markmask(index);
 266:sieve_extend.c ****             index += step;
 267:sieve_extend.c ****             word = wordindex(index) - current_vector_start_word;
 268:sieve_extend.c ****         } while (word < (VECTOR_ELEMENTS));// && index <= range_stop_unique);
 269:sieve_extend.c **** 
 270:sieve_extend.c ****         // use mask on all n*step multiples
 271:sieve_extend.c ****         // register counter_t current_vector = current_vector_start_word >> (SHIFT_VECTOR - SHIFT_W
 272:sieve_extend.c ****         bitvector_t* __restrict bitstorage_vector = __builtin_assume_aligned( (bitvector_t*) bitsto
 273:sieve_extend.c ****         applyMask_vector(bitstorage_vector, step, range_stop, quadmask, current_vector);
 274:sieve_extend.c ****     }
 275:sieve_extend.c **** }
 276:sieve_extend.c **** 
 277:sieve_extend.c **** static void continuePattern_smallSize(bitword_t* __restrict bitstorage, const counter_t source_star
  91              		.loc 1 277 159 view -0
  92              		.cfi_startproc
 278:sieve_extend.c ****     debug printf("Extending sieve size %ju in %ju bit range (%ju-%ju) using smallsize (%ju copies)\
  93              		.loc 1 278 5 view .LVU1
 279:sieve_extend.c ****     // debug { printf("...At start. "); dump_bitstorage(bitstorage, 4); }
 280:sieve_extend.c **** 
 281:sieve_extend.c ****     const counter_t source_word = wordindex(source_start);
  94              		.loc 1 281 5 view .LVU2
 282:sieve_extend.c ****     register bitword_t pattern = ((bitstorage[source_word] >> bitindex(source_start)) | (bitstorage
  95              		.loc 1 282 5 view .LVU3
  96              	# sieve_extend.c:277: static void continuePattern_smallSize(bitword_t* __restrict bitstorage, const
 277:sieve_extend.c ****     debug printf("Extending sieve size %ju in %ju bit range (%ju-%ju) using smallsize (%ju copies)\
  97              		.loc 1 277 159 is_stmt 0 view .LVU4
  98 0000 55       		push	rbp	#
  99              		.cfi_def_cfa_offset 16
 100              		.cfi_offset 6, -16
 101              	# sieve_extend.c:281:     const counter_t source_word = wordindex(source_start);
 281:sieve_extend.c ****     register bitword_t pattern = ((bitstorage[source_word] >> bitindex(source_start)) | (bitstorage
 102              		.loc 1 281 21 view .LVU5
 103 0001 4889F0   		mov	rax, rsi	# source_word, source_start
 104              	# sieve_extend.c:277: static void continuePattern_smallSize(bitword_t* __restrict bitstorage, const
 277:sieve_extend.c ****     debug printf("Extending sieve size %ju in %ju bit range (%ju-%ju) using smallsize (%ju copies)\
 105              		.loc 1 277 159 view .LVU6
 106 0004 4989D1   		mov	r9, rdx	# size, tmp438
 107 0007 4889E5   		mov	rbp, rsp	#,
 108              		.cfi_def_cfa_register 6
 109 000a 4157     		push	r15	#
 110              	# sieve_extend.c:281:     const counter_t source_word = wordindex(source_start);
 281:sieve_extend.c ****     register bitword_t pattern = ((bitstorage[source_word] >> bitindex(source_start)) | (bitstorage
 111              		.loc 1 281 21 view .LVU7
 112 000c 48C1E806 		shr	rax, 6	# source_word,
 113              	.LVL1:
 114              	# sieve_extend.c:282:     register bitword_t pattern = ((bitstorage[source_word] >> bitindex(source
GAS LISTING /tmp/ccG38KJh.s 			page 8


 115              		.loc 1 282 138 view .LVU8
 116 0010 89F2     		mov	edx, esi	# tmp250, source_start
 117              	.LVL2:
 118              	# sieve_extend.c:277: static void continuePattern_smallSize(bitword_t* __restrict bitstorage, const
 277:sieve_extend.c ****     debug printf("Extending sieve size %ju in %ju bit range (%ju-%ju) using smallsize (%ju copies)\
 119              		.loc 1 277 159 view .LVU9
 120 0012 4156     		push	r14	#
 121              	# sieve_extend.c:282:     register bitword_t pattern = ((bitstorage[source_word] >> bitindex(source
 122              		.loc 1 282 138 view .LVU10
 123 0014 83E23F   		and	edx, 63	# tmp250,
 124              	# sieve_extend.c:282:     register bitword_t pattern = ((bitstorage[source_word] >> bitindex(source
 125              		.loc 1 282 137 view .LVU11
 126 0017 41B84000 		mov	r8d, 64	# tmp252,
 126      0000
 127              	# sieve_extend.c:277: static void continuePattern_smallSize(bitword_t* __restrict bitstorage, const
 277:sieve_extend.c ****     debug printf("Extending sieve size %ju in %ju bit range (%ju-%ju) using smallsize (%ju copies)\
 128              		.loc 1 277 159 view .LVU12
 129 001d 4155     		push	r13	#
 130              	# sieve_extend.c:282:     register bitword_t pattern = ((bitstorage[source_word] >> bitindex(source
 131              		.loc 1 282 137 view .LVU13
 132 001f 4129D0   		sub	r8d, edx	# tmp251, tmp250
 133              	# sieve_extend.c:282:     register bitword_t pattern = ((bitstorage[source_word] >> bitindex(source
 134              		.loc 1 282 171 view .LVU14
 135 0022 4589CB   		mov	r11d, r9d	# tmp258, size
 136              	# sieve_extend.c:277: static void continuePattern_smallSize(bitword_t* __restrict bitstorage, const
 277:sieve_extend.c ****     debug printf("Extending sieve size %ju in %ju bit range (%ju-%ju) using smallsize (%ju copies)\
 137              		.loc 1 277 159 view .LVU15
 138 0025 4154     		push	r12	#
 139              	# sieve_extend.c:282:     register bitword_t pattern = ((bitstorage[source_word] >> bitindex(source
 140              		.loc 1 282 171 view .LVU16
 141 0027 41F7D3   		not	r11d	# tmp258
 142              		.cfi_offset 15, -24
 143              		.cfi_offset 14, -32
 144              		.cfi_offset 13, -40
 145              		.cfi_offset 12, -48
 146 002a 49C7C4FF 		mov	r12, -1	# tmp261,
 146      FFFFFF
 147              	# sieve_extend.c:277: static void continuePattern_smallSize(bitword_t* __restrict bitstorage, const
 277:sieve_extend.c ****     debug printf("Extending sieve size %ju in %ju bit range (%ju-%ju) using smallsize (%ju copies)\
 148              		.loc 1 277 159 view .LVU17
 149 0031 53       		push	rbx	#
 150              		.cfi_offset 3, -56
 151              	# sieve_extend.c:282:     register bitword_t pattern = ((bitstorage[source_word] >> bitindex(source
 152              		.loc 1 282 60 view .LVU18
 153 0032 488B1CC7 		mov	rbx, QWORD PTR [rdi+rax*8]	# *_5, *_5
 154              	# sieve_extend.c:282:     register bitword_t pattern = ((bitstorage[source_word] >> bitindex(source
 155              		.loc 1 282 171 view .LVU19
 156 0036 C442A3F7 		shrx	r13, r12, r11	# tmp260, tmp261, tmp258
 156      EC
 157              	# sieve_extend.c:282:     register bitword_t pattern = ((bitstorage[source_word] >> bitindex(source
 158              		.loc 1 282 116 view .LVU20
 159 003b C462B9F7 		shlx	r8, QWORD PTR 8[rdi+rax*8], r8	# tmp253, *_11, tmp251
 159      44C708
 160              	# sieve_extend.c:282:     register bitword_t pattern = ((bitstorage[source_word] >> bitindex(source
 161              		.loc 1 282 60 view .LVU21
 162 0042 C462CBF7 		shrx	r10, rbx, rsi	# tmp255, *_5, source_start
 162      D3
GAS LISTING /tmp/ccG38KJh.s 			page 9


 163              	# sieve_extend.c:282:     register bitword_t pattern = ((bitstorage[source_word] >> bitindex(source
 164              		.loc 1 282 87 view .LVU22
 165 0047 4D09D0   		or	r8, r10	# tmp257, tmp255
 166              	# sieve_extend.c:282:     register bitword_t pattern = ((bitstorage[source_word] >> bitindex(source
 167              		.loc 1 282 24 view .LVU23
 168 004a 4D21E8   		and	r8, r13	# pattern, tmp260
 169              	.LVL3:
 283:sieve_extend.c ****     for (bitshift_t pattern_size = (bitshift_t)size; pattern_size <= WORD_SIZE_bitshift; pattern_si
 170              		.loc 1 283 5 is_stmt 1 view .LVU24
 171              	.LBB372:
 172              		.loc 1 283 10 view .LVU25
 173              		.loc 1 283 54 view .LVU26
 174              	# sieve_extend.c:283:     for (bitshift_t pattern_size = (bitshift_t)size; pattern_size <= WORD_SIZ
 175              		.loc 1 283 5 is_stmt 0 view .LVU27
 176 004d 4983F940 		cmp	r9, 64	# size,
 177 0051 0F87B900 		ja	.L2	#,
 177      0000
 178 0057 4D89CE   		mov	r14, r9	# pattern_size, size
 179              	.LVL4:
 180              	.L3:
 284:sieve_extend.c ****         pattern |= (pattern << pattern_size);
 181              		.loc 1 284 9 is_stmt 1 discriminator 3 view .LVU28
 182              	# sieve_extend.c:283:     for (bitshift_t pattern_size = (bitshift_t)size; pattern_size <= WORD_SIZ
 283:sieve_extend.c ****     for (bitshift_t pattern_size = (bitshift_t)size; pattern_size <= WORD_SIZE_bitshift; pattern_si
 183              		.loc 1 283 103 is_stmt 0 discriminator 3 view .LVU29
 184 005a 4B8D0436 		lea	rax, [r14+r14]	# pattern_size,
 185              	# sieve_extend.c:284:         pattern |= (pattern << pattern_size);
 186              		.loc 1 284 29 discriminator 3 view .LVU30
 187 005e C44289F7 		shlx	r15, r8, r14	# _23, pattern, pattern_size
 187      F8
 188              	# sieve_extend.c:284:         pattern |= (pattern << pattern_size);
 189              		.loc 1 284 17 discriminator 3 view .LVU31
 190 0063 4D09F8   		or	r8, r15	# pattern, _23
 191              	.LVL5:
 283:sieve_extend.c ****     for (bitshift_t pattern_size = (bitshift_t)size; pattern_size <= WORD_SIZE_bitshift; pattern_si
 192              		.loc 1 283 90 is_stmt 1 discriminator 3 view .LVU32
 283:sieve_extend.c ****     for (bitshift_t pattern_size = (bitshift_t)size; pattern_size <= WORD_SIZE_bitshift; pattern_si
 193              		.loc 1 283 54 discriminator 3 view .LVU33
 194              	# sieve_extend.c:283:     for (bitshift_t pattern_size = (bitshift_t)size; pattern_size <= WORD_SIZ
 283:sieve_extend.c ****     for (bitshift_t pattern_size = (bitshift_t)size; pattern_size <= WORD_SIZE_bitshift; pattern_si
 195              		.loc 1 283 5 is_stmt 0 discriminator 3 view .LVU34
 196 0066 4883F840 		cmp	rax, 64	# pattern_size,
 197 006a 0F87A000 		ja	.L2	#,
 197      0000
 198              		.loc 1 284 9 is_stmt 1 view .LVU35
 199              	# sieve_extend.c:283:     for (bitshift_t pattern_size = (bitshift_t)size; pattern_size <= WORD_SIZ
 283:sieve_extend.c ****     for (bitshift_t pattern_size = (bitshift_t)size; pattern_size <= WORD_SIZE_bitshift; pattern_si
 200              		.loc 1 283 103 is_stmt 0 view .LVU36
 201 0070 4A8D1CB5 		lea	rbx, 0[0+r14*4]	# pattern_size,
 201      00000000 
 202              	# sieve_extend.c:284:         pattern |= (pattern << pattern_size);
 203              		.loc 1 284 29 view .LVU37
 204 0078 C4C2F9F7 		shlx	rdx, r8, rax	# _23, pattern, pattern_size
 204      D0
 205              	# sieve_extend.c:284:         pattern |= (pattern << pattern_size);
 206              		.loc 1 284 17 view .LVU38
 207 007d 4909D0   		or	r8, rdx	# pattern, _23
GAS LISTING /tmp/ccG38KJh.s 			page 10


 208              	.LVL6:
 283:sieve_extend.c ****     for (bitshift_t pattern_size = (bitshift_t)size; pattern_size <= WORD_SIZE_bitshift; pattern_si
 209              		.loc 1 283 90 is_stmt 1 view .LVU39
 283:sieve_extend.c ****     for (bitshift_t pattern_size = (bitshift_t)size; pattern_size <= WORD_SIZE_bitshift; pattern_si
 210              		.loc 1 283 54 view .LVU40
 211              	# sieve_extend.c:283:     for (bitshift_t pattern_size = (bitshift_t)size; pattern_size <= WORD_SIZ
 283:sieve_extend.c ****     for (bitshift_t pattern_size = (bitshift_t)size; pattern_size <= WORD_SIZE_bitshift; pattern_si
 212              		.loc 1 283 5 is_stmt 0 view .LVU41
 213 0080 4883FB40 		cmp	rbx, 64	# pattern_size,
 214 0084 0F878600 		ja	.L2	#,
 214      0000
 215              		.loc 1 284 9 is_stmt 1 view .LVU42
 216              	# sieve_extend.c:283:     for (bitshift_t pattern_size = (bitshift_t)size; pattern_size <= WORD_SIZ
 283:sieve_extend.c ****     for (bitshift_t pattern_size = (bitshift_t)size; pattern_size <= WORD_SIZE_bitshift; pattern_si
 217              		.loc 1 283 103 is_stmt 0 view .LVU43
 218 008a 4E8D1CF5 		lea	r11, 0[0+r14*8]	# pattern_size,
 218      00000000 
 219              	# sieve_extend.c:284:         pattern |= (pattern << pattern_size);
 220              		.loc 1 284 29 view .LVU44
 221 0092 C442E1F7 		shlx	r10, r8, rbx	# _23, pattern, pattern_size
 221      D0
 222              	# sieve_extend.c:284:         pattern |= (pattern << pattern_size);
 223              		.loc 1 284 17 view .LVU45
 224 0097 4D09D0   		or	r8, r10	# pattern, _23
 225              	.LVL7:
 283:sieve_extend.c ****     for (bitshift_t pattern_size = (bitshift_t)size; pattern_size <= WORD_SIZE_bitshift; pattern_si
 226              		.loc 1 283 90 is_stmt 1 view .LVU46
 283:sieve_extend.c ****     for (bitshift_t pattern_size = (bitshift_t)size; pattern_size <= WORD_SIZE_bitshift; pattern_si
 227              		.loc 1 283 54 view .LVU47
 228              	# sieve_extend.c:283:     for (bitshift_t pattern_size = (bitshift_t)size; pattern_size <= WORD_SIZ
 283:sieve_extend.c ****     for (bitshift_t pattern_size = (bitshift_t)size; pattern_size <= WORD_SIZE_bitshift; pattern_si
 229              		.loc 1 283 5 is_stmt 0 view .LVU48
 230 009a 4983FB40 		cmp	r11, 64	# pattern_size,
 231 009e 7770     		ja	.L2	#,
 232              		.loc 1 284 9 is_stmt 1 view .LVU49
 233              	# sieve_extend.c:283:     for (bitshift_t pattern_size = (bitshift_t)size; pattern_size <= WORD_SIZ
 283:sieve_extend.c ****     for (bitshift_t pattern_size = (bitshift_t)size; pattern_size <= WORD_SIZE_bitshift; pattern_si
 234              		.loc 1 283 103 is_stmt 0 view .LVU50
 235 00a0 4D89F5   		mov	r13, r14	# pattern_size, pattern_size
 236 00a3 49C1E504 		sal	r13, 4	# pattern_size,
 237              	# sieve_extend.c:284:         pattern |= (pattern << pattern_size);
 238              		.loc 1 284 29 view .LVU51
 239 00a7 C442A1F7 		shlx	r12, r8, r11	# _23, pattern, pattern_size
 239      E0
 240              	# sieve_extend.c:284:         pattern |= (pattern << pattern_size);
 241              		.loc 1 284 17 view .LVU52
 242 00ac 4D09E0   		or	r8, r12	# pattern, _23
 243              	.LVL8:
 283:sieve_extend.c ****     for (bitshift_t pattern_size = (bitshift_t)size; pattern_size <= WORD_SIZE_bitshift; pattern_si
 244              		.loc 1 283 90 is_stmt 1 view .LVU53
 283:sieve_extend.c ****     for (bitshift_t pattern_size = (bitshift_t)size; pattern_size <= WORD_SIZE_bitshift; pattern_si
 245              		.loc 1 283 54 view .LVU54
 246              	# sieve_extend.c:283:     for (bitshift_t pattern_size = (bitshift_t)size; pattern_size <= WORD_SIZ
 283:sieve_extend.c ****     for (bitshift_t pattern_size = (bitshift_t)size; pattern_size <= WORD_SIZE_bitshift; pattern_si
 247              		.loc 1 283 5 is_stmt 0 view .LVU55
 248 00af 4983FD40 		cmp	r13, 64	# pattern_size,
 249 00b3 775B     		ja	.L2	#,
GAS LISTING /tmp/ccG38KJh.s 			page 11


 250              		.loc 1 284 9 is_stmt 1 view .LVU56
 251              	# sieve_extend.c:283:     for (bitshift_t pattern_size = (bitshift_t)size; pattern_size <= WORD_SIZ
 283:sieve_extend.c ****     for (bitshift_t pattern_size = (bitshift_t)size; pattern_size <= WORD_SIZE_bitshift; pattern_si
 252              		.loc 1 283 103 is_stmt 0 view .LVU57
 253 00b5 4C89F0   		mov	rax, r14	# pattern_size, pattern_size
 254 00b8 48C1E005 		sal	rax, 5	# pattern_size,
 255              	# sieve_extend.c:284:         pattern |= (pattern << pattern_size);
 256              		.loc 1 284 29 view .LVU58
 257 00bc C44291F7 		shlx	r15, r8, r13	# _23, pattern, pattern_size
 257      F8
 258              	# sieve_extend.c:284:         pattern |= (pattern << pattern_size);
 259              		.loc 1 284 17 view .LVU59
 260 00c1 4D09F8   		or	r8, r15	# pattern, _23
 261              	.LVL9:
 283:sieve_extend.c ****     for (bitshift_t pattern_size = (bitshift_t)size; pattern_size <= WORD_SIZE_bitshift; pattern_si
 262              		.loc 1 283 90 is_stmt 1 view .LVU60
 283:sieve_extend.c ****     for (bitshift_t pattern_size = (bitshift_t)size; pattern_size <= WORD_SIZE_bitshift; pattern_si
 263              		.loc 1 283 54 view .LVU61
 264              	# sieve_extend.c:283:     for (bitshift_t pattern_size = (bitshift_t)size; pattern_size <= WORD_SIZ
 283:sieve_extend.c ****     for (bitshift_t pattern_size = (bitshift_t)size; pattern_size <= WORD_SIZE_bitshift; pattern_si
 265              		.loc 1 283 5 is_stmt 0 view .LVU62
 266 00c4 4883F840 		cmp	rax, 64	# pattern_size,
 267 00c8 7746     		ja	.L2	#,
 268              		.loc 1 284 9 is_stmt 1 view .LVU63
 269              	# sieve_extend.c:283:     for (bitshift_t pattern_size = (bitshift_t)size; pattern_size <= WORD_SIZ
 283:sieve_extend.c ****     for (bitshift_t pattern_size = (bitshift_t)size; pattern_size <= WORD_SIZE_bitshift; pattern_si
 270              		.loc 1 283 103 is_stmt 0 view .LVU64
 271 00ca 4C89F3   		mov	rbx, r14	# pattern_size, pattern_size
 272 00cd 48C1E306 		sal	rbx, 6	# pattern_size,
 273              	# sieve_extend.c:284:         pattern |= (pattern << pattern_size);
 274              		.loc 1 284 29 view .LVU65
 275 00d1 C4C2F9F7 		shlx	rdx, r8, rax	# _23, pattern, pattern_size
 275      D0
 276              	# sieve_extend.c:284:         pattern |= (pattern << pattern_size);
 277              		.loc 1 284 17 view .LVU66
 278 00d6 4909D0   		or	r8, rdx	# pattern, _23
 279              	.LVL10:
 283:sieve_extend.c ****     for (bitshift_t pattern_size = (bitshift_t)size; pattern_size <= WORD_SIZE_bitshift; pattern_si
 280              		.loc 1 283 90 is_stmt 1 view .LVU67
 283:sieve_extend.c ****     for (bitshift_t pattern_size = (bitshift_t)size; pattern_size <= WORD_SIZE_bitshift; pattern_si
 281              		.loc 1 283 54 view .LVU68
 282              	# sieve_extend.c:283:     for (bitshift_t pattern_size = (bitshift_t)size; pattern_size <= WORD_SIZ
 283:sieve_extend.c ****     for (bitshift_t pattern_size = (bitshift_t)size; pattern_size <= WORD_SIZE_bitshift; pattern_si
 283              		.loc 1 283 5 is_stmt 0 view .LVU69
 284 00d9 4883FB40 		cmp	rbx, 64	# pattern_size,
 285 00dd 7731     		ja	.L2	#,
 286              		.loc 1 284 9 is_stmt 1 view .LVU70
 287              	# sieve_extend.c:283:     for (bitshift_t pattern_size = (bitshift_t)size; pattern_size <= WORD_SIZ
 283:sieve_extend.c ****     for (bitshift_t pattern_size = (bitshift_t)size; pattern_size <= WORD_SIZE_bitshift; pattern_si
 288              		.loc 1 283 103 is_stmt 0 view .LVU71
 289 00df 4D89F3   		mov	r11, r14	# pattern_size, pattern_size
 290 00e2 49C1E307 		sal	r11, 7	# pattern_size,
 291              	# sieve_extend.c:284:         pattern |= (pattern << pattern_size);
 292              		.loc 1 284 29 view .LVU72
 293 00e6 C442E1F7 		shlx	r10, r8, rbx	# _23, pattern, pattern_size
 293      D0
 294              	# sieve_extend.c:284:         pattern |= (pattern << pattern_size);
GAS LISTING /tmp/ccG38KJh.s 			page 12


 295              		.loc 1 284 17 view .LVU73
 296 00eb 4D09D0   		or	r8, r10	# pattern, _23
 297              	.LVL11:
 283:sieve_extend.c ****     for (bitshift_t pattern_size = (bitshift_t)size; pattern_size <= WORD_SIZE_bitshift; pattern_si
 298              		.loc 1 283 90 is_stmt 1 view .LVU74
 283:sieve_extend.c ****     for (bitshift_t pattern_size = (bitshift_t)size; pattern_size <= WORD_SIZE_bitshift; pattern_si
 299              		.loc 1 283 54 view .LVU75
 300              	# sieve_extend.c:283:     for (bitshift_t pattern_size = (bitshift_t)size; pattern_size <= WORD_SIZ
 283:sieve_extend.c ****     for (bitshift_t pattern_size = (bitshift_t)size; pattern_size <= WORD_SIZE_bitshift; pattern_si
 301              		.loc 1 283 5 is_stmt 0 view .LVU76
 302 00ee 4983FB40 		cmp	r11, 64	# pattern_size,
 303 00f2 771C     		ja	.L2	#,
 304              		.loc 1 284 9 is_stmt 1 view .LVU77
 305              	# sieve_extend.c:283:     for (bitshift_t pattern_size = (bitshift_t)size; pattern_size <= WORD_SIZ
 283:sieve_extend.c ****     for (bitshift_t pattern_size = (bitshift_t)size; pattern_size <= WORD_SIZE_bitshift; pattern_si
 306              		.loc 1 283 103 is_stmt 0 view .LVU78
 307 00f4 49C1E608 		sal	r14, 8	# pattern_size,
 308              	# sieve_extend.c:284:         pattern |= (pattern << pattern_size);
 309              		.loc 1 284 29 view .LVU79
 310 00f8 C442A1F7 		shlx	r12, r8, r11	# _23, pattern, pattern_size
 310      E0
 311              	# sieve_extend.c:284:         pattern |= (pattern << pattern_size);
 312              		.loc 1 284 17 view .LVU80
 313 00fd 4D09E0   		or	r8, r12	# pattern, _23
 314              	.LVL12:
 283:sieve_extend.c ****     for (bitshift_t pattern_size = (bitshift_t)size; pattern_size <= WORD_SIZE_bitshift; pattern_si
 315              		.loc 1 283 90 is_stmt 1 view .LVU81
 283:sieve_extend.c ****     for (bitshift_t pattern_size = (bitshift_t)size; pattern_size <= WORD_SIZE_bitshift; pattern_si
 316              		.loc 1 283 54 view .LVU82
 317              	# sieve_extend.c:283:     for (bitshift_t pattern_size = (bitshift_t)size; pattern_size <= WORD_SIZ
 283:sieve_extend.c ****     for (bitshift_t pattern_size = (bitshift_t)size; pattern_size <= WORD_SIZE_bitshift; pattern_si
 318              		.loc 1 283 5 is_stmt 0 view .LVU83
 319 0100 4983FE40 		cmp	r14, 64	# pattern_size,
 320 0104 0F8650FF 		jbe	.L3	#,
 320      FFFF
 321              	.LVL13:
 322 010a 660F1F44 		.p2align 4,,10
 322      0000
 323              		.p2align 3
 324              	.L2:
 283:sieve_extend.c ****     for (bitshift_t pattern_size = (bitshift_t)size; pattern_size <= WORD_SIZE_bitshift; pattern_si
 325              		.loc 1 283 5 view .LVU84
 326              	.LBE372:
 285:sieve_extend.c **** 
 286:sieve_extend.c ****     const counter_t destination_start = source_start + size;
 327              		.loc 1 286 5 is_stmt 1 view .LVU85
 328              	# sieve_extend.c:286:     const counter_t destination_start = source_start + size;
 329              		.loc 1 286 21 is_stmt 0 view .LVU86
 330 0110 4C01CE   		add	rsi, r9	# destination_start, size
 331              	.LVL14:
 287:sieve_extend.c ****     counter_t destination_start_word = wordindex(destination_start);
 332              		.loc 1 287 5 is_stmt 1 view .LVU87
 333              	# sieve_extend.c:287:     counter_t destination_start_word = wordindex(destination_start);
 334              		.loc 1 287 15 is_stmt 0 view .LVU88
 335 0113 4989F6   		mov	r14, rsi	# destination_start_word, destination_start
 336 0116 49C1EE06 		shr	r14, 6	# destination_start_word,
 337              	.LVL15:
GAS LISTING /tmp/ccG38KJh.s 			page 13


 288:sieve_extend.c ****     counter_t destination_stop_word = wordindex(destination_stop);
 338              		.loc 1 288 5 is_stmt 1 view .LVU89
 339              	# sieve_extend.c:288:     counter_t destination_stop_word = wordindex(destination_stop);
 340              		.loc 1 288 15 is_stmt 0 view .LVU90
 341 011a 4989CB   		mov	r11, rcx	# destination_stop_word, destination_stop
 342 011d 4E8D14F5 		lea	r10, 0[0+r14*8]	# _116,
 342      00000000 
 343 0125 4E8D2C17 		lea	r13, [rdi+r10]	# _117,
 344 0129 F7D1     		not	ecx	# tmp264
 345              	.LVL16:
 346              		.loc 1 288 15 view .LVU91
 347 012b 48C7C2FF 		mov	rdx, -1	# tmp266,
 347      FFFFFF
 348 0132 49C1EB06 		shr	r11, 6	# destination_stop_word,
 349              	.LVL17:
 289:sieve_extend.c ****     if (destination_start_word >= destination_stop_word) {
 350              		.loc 1 289 5 is_stmt 1 view .LVU92
 351 0136 4D8B7D00 		mov	r15, QWORD PTR 0[r13]	# pretmp_118, *_117
 352 013a C4C2C9F7 		shlx	rax, r8, rsi	# _120, pattern, destination_start
 352      C0
 353 013f C4E2F3F7 		shrx	rbx, rdx, rcx	# _124, tmp266, tmp264
 353      DA
 354              	# sieve_extend.c:289:     if (destination_start_word >= destination_stop_word) {
 355              		.loc 1 289 8 is_stmt 0 view .LVU93
 356 0144 4D39DE   		cmp	r14, r11	# destination_start_word, destination_stop_word
 357 0147 0F83B303 		jnb	.L36	#,
 357      0000
 290:sieve_extend.c ****         bitstorage[destination_start_word] |= (pattern << bitindex(destination_start)) & chopmask(d
 291:sieve_extend.c ****         return;
 292:sieve_extend.c ****     }
 293:sieve_extend.c **** 
 294:sieve_extend.c ****     bitstorage[destination_start_word] |= (pattern << bitindex(destination_start));
 358              		.loc 1 294 5 is_stmt 1 view .LVU94
 359              	# sieve_extend.c:294:     bitstorage[destination_start_word] |= (pattern << bitindex(destination_st
 360              		.loc 1 294 40 is_stmt 0 view .LVU95
 361 014d 4C09F8   		or	rax, r15	# tmp269, pretmp_118
 362              	# sieve_extend.c:296:     register const bitshift_t pattern_shift = WORD_SIZE_counter % size;
 295:sieve_extend.c **** 
 296:sieve_extend.c ****     register const bitshift_t pattern_shift = WORD_SIZE_counter % size;
 363              		.loc 1 296 31 view .LVU96
 364 0150 B9400000 		mov	ecx, 64	# tmp270,
 364      00
 365              	# sieve_extend.c:294:     bitstorage[destination_start_word] |= (pattern << bitindex(destination_st
 294:sieve_extend.c **** 
 366              		.loc 1 294 40 view .LVU97
 367 0155 49894500 		mov	QWORD PTR 0[r13], rax	# *_117, tmp269
 368              		.loc 1 296 5 is_stmt 1 view .LVU98
 369              	# sieve_extend.c:296:     register const bitshift_t pattern_shift = WORD_SIZE_counter % size;
 370              		.loc 1 296 31 is_stmt 0 view .LVU99
 371 0159 31D2     		xor	edx, edx	# tmp271
 372 015b 4889C8   		mov	rax, rcx	# tmp272, tmp270
 373 015e 49F7F1   		div	r9	# size
 374              	.LVL18:
 297:sieve_extend.c ****     register const bitshift_t pattern_size = WORD_SIZE_bitshift - pattern_shift;
 375              		.loc 1 297 5 is_stmt 1 view .LVU100
 298:sieve_extend.c ****     register bitshift_t shift = (WORD_SIZE_bitshift - bitindex_calc(destination_start)) & WORDMASK;
 376              		.loc 1 298 5 view .LVU101
GAS LISTING /tmp/ccG38KJh.s 			page 14


 299:sieve_extend.c ****     register counter_t loop_range = destination_stop_word - destination_start_word;
 377              		.loc 1 299 5 view .LVU102
 378              	# sieve_extend.c:299:     register counter_t loop_range = destination_stop_word - destination_start
 379              		.loc 1 299 24 is_stmt 0 view .LVU103
 380 0161 4D89DC   		mov	r12, r11	# loop_range, destination_stop_word
 381 0164 4D29F4   		sub	r12, r14	# loop_range, destination_start_word
 382              	.LVL19:
 300:sieve_extend.c ****     destination_start_word++;
 383              		.loc 1 300 5 is_stmt 1 view .LVU104
 384              	# sieve_extend.c:297:     register const bitshift_t pattern_size = WORD_SIZE_bitshift - pattern_shi
 297:sieve_extend.c ****     register bitshift_t shift = (WORD_SIZE_bitshift - bitindex_calc(destination_start)) & WORDMASK;
 385              		.loc 1 297 31 is_stmt 0 view .LVU105
 386 0167 4889C8   		mov	rax, rcx	# tmp270, tmp270
 387              	# sieve_extend.c:298:     register bitshift_t shift = (WORD_SIZE_bitshift - bitindex_calc(destinati
 298:sieve_extend.c ****     register counter_t loop_range = destination_stop_word - destination_start_word;
 388              		.loc 1 298 89 view .LVU106
 389 016a 48F7DE   		neg	rsi	# tmp275
 390              	.LVL20:
 391              	# sieve_extend.c:300:     destination_start_word++;
 392              		.loc 1 300 27 view .LVU107
 393 016d 4D8D4E01 		lea	r9, 1[r14]	# destination_start_word,
 394              	.LVL21:
 395              	.LBB373:
 301:sieve_extend.c ****     
 302:sieve_extend.c ****     #pragma GCC ivdep
 303:sieve_extend.c ****     for (counter_t i=0; i<=loop_range; ++i ) {
 396              		.loc 1 303 10 is_stmt 1 view .LVU108
 397              		.loc 1 303 25 view .LVU109
 398              	.LBE373:
 399              	# sieve_extend.c:298:     register bitshift_t shift = (WORD_SIZE_bitshift - bitindex_calc(destinati
 298:sieve_extend.c ****     register counter_t loop_range = destination_stop_word - destination_start_word;
 400              		.loc 1 298 25 is_stmt 0 view .LVU110
 401 0171 83E63F   		and	esi, 63	# shift,
 402              	.LVL22:
 298:sieve_extend.c ****     register counter_t loop_range = destination_stop_word - destination_start_word;
 403              		.loc 1 298 25 view .LVU111
 404 0174 4D8D6C24 		lea	r13, 1[r12]	# niters.172,
 404      01
 405              	# sieve_extend.c:297:     register const bitshift_t pattern_size = WORD_SIZE_bitshift - pattern_shi
 297:sieve_extend.c ****     register bitshift_t shift = (WORD_SIZE_bitshift - bitindex_calc(destination_start)) & WORDMASK;
 406              		.loc 1 297 31 view .LVU112
 407 0179 4829D0   		sub	rax, rdx	# tmp270, tmp271
 408              	.LVL23:
 297:sieve_extend.c ****     register bitshift_t shift = (WORD_SIZE_bitshift - bitindex_calc(destination_start)) & WORDMASK;
 409              		.loc 1 297 31 view .LVU113
 410 017c 4983FC06 		cmp	r12, 6	# loop_range,
 411 0180 0F869403 		jbe	.L9	#,
 411      0000
 412 0186 4A8D4C17 		lea	rcx, 8[rdi+r10]	# ivtmp.191,
 412      08
 413 018b 4D89EA   		mov	r10, r13	# bnd.173, niters.172
 414 018e 49C1EA03 		shr	r10, 3	# bnd.173,
 415 0192 49C1E206 		sal	r10, 6	# tmp283,
 416 0196 C5F96EEA 		vmovd	xmm5, edx	# vect_cst__1, _127
 417 019a C5F96EE6 		vmovd	xmm4, esi	# vect_cst__131, _129
 418 019e C5F96ED8 		vmovd	xmm3, eax	# vect_cst__108, _125
 419 01a2 C4C1F96E 		vmovq	xmm6, r8	# pattern, pattern
GAS LISTING /tmp/ccG38KJh.s 			page 15


 419      F0
 420 01a7 4D8D340A 		lea	r14, [r10+rcx]	# _216,
 421 01ab 4183E240 		and	r10d, 64	# tmp283,
 422              	# sieve_extend.c:300:     destination_start_word++;
 300:sieve_extend.c ****     
 423              		.loc 1 300 27 view .LVU114
 424 01af C57D6F0D 		vmovdqa	ymm9, YMMWORD PTR .LC0[rip]	# vect_vec_iv_.176,
 424      00000000 
 425 01b7 C57D6F05 		vmovdqa	ymm8, YMMWORD PTR .LC1[rip]	# tmp360,
 425      00000000 
 426 01bf C5FD6F3D 		vmovdqa	ymm7, YMMWORD PTR .LC2[rip]	# tmp361,
 426      00000000 
 427 01c7 C57D6F3D 		vmovdqa	ymm15, YMMWORD PTR .LC3[rip]	# tmp362,
 427      00000000 
 428 01cf C4627D58 		vpbroadcastd	ymm12, xmm5	# vect_cst__1, vect_cst__1
 428      E5
 429 01d4 C4627D58 		vpbroadcastd	ymm13, xmm4	# vect_cst__131, vect_cst__131
 429      EC
 430 01d9 C4627D58 		vpbroadcastd	ymm14, xmm3	# vect_cst__108, vect_cst__108
 430      F3
 431 01de C4E27D59 		vpbroadcastq	ymm2, xmm6	# vect_cst__38, pattern
 431      D6
 432 01e3 0F849700 		je	.L7	#,
 432      0000
 433 01e9 C57D7FC9 		vmovdqa	ymm1, ymm9	# vect_vec_iv_.176, vect_vec_iv_.176
 434              	.LBB374:
 435              	# sieve_extend.c:304:         bitstorage[destination_start_word+i] = (pattern << (pattern_size - ((
 304:sieve_extend.c ****         bitstorage[destination_start_word+i] = (pattern << (pattern_size - ((shift+i*pattern_shift)
 436              		.loc 1 304 83 view .LVU115
 437 01ed C575D4D7 		vpaddq	ymm10, ymm1, ymm7	# vect_vec_iv_.176, vect_vec_iv_.176, tmp361
 438 01f1 C4C37546 		vperm2i128	ymm0, ymm1, ymm10, 32	# tmp400, vect_vec_iv_.176, vect_vec_iv_.176,
 438      C220
 439 01f7 C4437546 		vperm2i128	ymm11, ymm1, ymm10, 49	# tmp401, vect_vec_iv_.176, vect_vec_iv_.176,
 439      DA31
 440 01fd C5FD70E8 		vpshufd	ymm5, ymm0, 216	# tmp402, tmp400,
 440      D8
 441 0202 C4C17D70 		vpshufd	ymm4, ymm11, 216	# tmp403, tmp401,
 441      E3D8
 442 0208 C5D56CDC 		vpunpcklqdq	ymm3, ymm5, ymm4	# tmp404, tmp402, tmp403
 443 020c C4E21D40 		vpmulld	ymm6, ymm12, ymm3	# vect__45.178, vect_cst__1, tmp404
 443      F3
 444 0211 4883C140 		add	rcx, 64	# ivtmp.191,
 445 0215 C44135D4 		vpaddq	ymm9, ymm9, ymm8	# vect_vec_iv_.176, vect_vec_iv_.176, tmp360
 445      C8
 446              	.LVL24:
 447              		.loc 1 304 9 is_stmt 1 view .LVU116
 448              	# sieve_extend.c:304:         bitstorage[destination_start_word+i] = (pattern << (pattern_size - ((
 449              		.loc 1 304 83 is_stmt 0 view .LVU117
 450 021a C4C14DFE 		vpaddd	ymm1, ymm6, ymm13	# vect__47.179, vect__45.178, vect_cst__131
 450      CD
 451              	# sieve_extend.c:304:         bitstorage[destination_start_word+i] = (pattern << (pattern_size - ((
 452              		.loc 1 304 101 view .LVU118
 453 021f C4C175DB 		vpand	ymm0, ymm1, ymm15	# vect__48.180, vect__47.179, tmp362
 453      C7
 454              	# sieve_extend.c:304:         bitstorage[destination_start_word+i] = (pattern << (pattern_size - ((
 455              		.loc 1 304 74 view .LVU119
 456 0224 C58DFAE8 		vpsubd	ymm5, ymm14, ymm0	# vect__49.181, vect_cst__108, vect__48.180
GAS LISTING /tmp/ccG38KJh.s 			page 16


 457              	# sieve_extend.c:304:         bitstorage[destination_start_word+i] = (pattern << (pattern_size - ((
 458              		.loc 1 304 118 view .LVU120
 459 0228 C4627D35 		vpmovzxdq	ymm10, xmm5	#, vect__49.181
 459      D5
 460 022d C4627D35 		vpmovzxdq	ymm11, xmm0	#, vect__48.180
 460      D8
 461 0232 C4C2ED47 		vpsllvq	ymm4, ymm2, ymm10	# vect_patt_138.183, vect_cst__38, vect_patt_139.182
 461      E2
 462 0237 C4C2ED45 		vpsrlvq	ymm3, ymm2, ymm11	# vect_patt_136.185, vect_cst__38, vect_patt_137.184
 462      DB
 463 023c C4E37D39 		vextracti128	xmm1, ymm5, 0x1	# tmp416, vect__49.181
 463      E901
 464 0242 C4E37D39 		vextracti128	xmm0, ymm0, 0x1	# tmp419, vect__48.180
 464      C001
 465 0248 C5DDEBF3 		vpor	ymm6, ymm4, ymm3	# vect__55.186, vect_patt_138.183, vect_patt_136.185
 466 024c C4E27D35 		vpmovzxdq	ymm5, xmm1	# vect_patt_139.182, tmp416
 466      E9
 467 0251 C4E27D35 		vpmovzxdq	ymm4, xmm0	# vect_patt_137.184, tmp419
 467      E0
 468 0256 C462ED47 		vpsllvq	ymm10, ymm2, ymm5	# vect_patt_138.183, vect_cst__38, vect_patt_139.182
 468      D5
 469 025b C462ED45 		vpsrlvq	ymm11, ymm2, ymm4	# vect_patt_136.185, vect_cst__38, vect_patt_137.184
 469      DC
 470              	# sieve_extend.c:304:         bitstorage[destination_start_word+i] = (pattern << (pattern_size - ((
 471              		.loc 1 304 46 view .LVU121
 472 0260 C5FE7F71 		vmovdqu	YMMWORD PTR -64[rcx], ymm6	# MEM[base: _213, offset: 0B], vect__55.186
 472      C0
 473              	# sieve_extend.c:304:         bitstorage[destination_start_word+i] = (pattern << (pattern_size - ((
 474              		.loc 1 304 118 view .LVU122
 475 0265 C4C12DEB 		vpor	ymm3, ymm10, ymm11	# vect__55.186, vect_patt_138.183, vect_patt_136.185
 475      DB
 476              	# sieve_extend.c:304:         bitstorage[destination_start_word+i] = (pattern << (pattern_size - ((
 477              		.loc 1 304 46 view .LVU123
 478 026a C5FE7F59 		vmovdqu	YMMWORD PTR -32[rcx], ymm3	# MEM[base: _213, offset: 32B], vect__55.186
 478      E0
 303:sieve_extend.c ****         bitstorage[destination_start_word+i] = (pattern << (pattern_size - ((shift+i*pattern_shift)
 479              		.loc 1 303 40 is_stmt 1 view .LVU124
 303:sieve_extend.c ****         bitstorage[destination_start_word+i] = (pattern << (pattern_size - ((shift+i*pattern_shift)
 480              		.loc 1 303 25 view .LVU125
 481 026f 4C39F1   		cmp	rcx, r14	# ivtmp.191, _216
 482 0272 0F840F01 		je	.L31	#,
 482      0000
 483 0278 0F1F8400 		.p2align 4,,10
 483      00000000 
 484              		.p2align 3
 485              	.L7:
 486              	# sieve_extend.c:304:         bitstorage[destination_start_word+i] = (pattern << (pattern_size - ((
 487              		.loc 1 304 83 is_stmt 0 discriminator 3 view .LVU126
 488 0280 C5B5D4CF 		vpaddq	ymm1, ymm9, ymm7	# vect_vec_iv_.176, vect_vec_iv_.176, tmp361
 489 0284 C4C135D4 		vpaddq	ymm6, ymm9, ymm8	# vect_vec_iv_.176, vect_vec_iv_.176, tmp360
 489      F0
 490              		.loc 1 304 9 is_stmt 1 discriminator 3 view .LVU127
 491              	# sieve_extend.c:304:         bitstorage[destination_start_word+i] = (pattern << (pattern_size - ((
 492              		.loc 1 304 83 is_stmt 0 discriminator 3 view .LVU128
 493 0289 C4E33546 		vperm2i128	ymm5, ymm9, ymm1, 32	# tmp290, vect_vec_iv_.176, vect_vec_iv_.176,
 493      E920
 494 028f C4633546 		vperm2i128	ymm9, ymm9, ymm1, 49	# tmp291, vect_vec_iv_.176, vect_vec_iv_.176,
GAS LISTING /tmp/ccG38KJh.s 			page 17


 494      C931
 495 0295 C57D70D5 		vpshufd	ymm10, ymm5, 216	# tmp288, tmp290,
 495      D8
 496 029a C4C17D70 		vpshufd	ymm0, ymm9, 216	# tmp289, tmp291,
 496      C1D8
 497 02a0 C5AD6CE0 		vpunpcklqdq	ymm4, ymm10, ymm0	# tmp292, tmp288, tmp289
 498 02a4 C4621D40 		vpmulld	ymm11, ymm12, ymm4	# vect__45.178, vect_cst__1, tmp292
 498      DC
 499 02a9 4883E980 		sub	rcx, -128	# ivtmp.191,
 500 02ad C4C125FE 		vpaddd	ymm3, ymm11, ymm13	# vect__47.179, vect__45.178, vect_cst__131
 500      DD
 501              	# sieve_extend.c:304:         bitstorage[destination_start_word+i] = (pattern << (pattern_size - ((
 502              		.loc 1 304 101 discriminator 3 view .LVU129
 503 02b2 C4C165DB 		vpand	ymm5, ymm3, ymm15	# vect__48.180, vect__47.179, tmp362
 503      EF
 504              	# sieve_extend.c:304:         bitstorage[destination_start_word+i] = (pattern << (pattern_size - ((
 505              		.loc 1 304 74 discriminator 3 view .LVU130
 506 02b7 C58DFACD 		vpsubd	ymm1, ymm14, ymm5	# vect__49.181, vect_cst__108, vect__48.180
 507              	# sieve_extend.c:304:         bitstorage[destination_start_word+i] = (pattern << (pattern_size - ((
 508              		.loc 1 304 118 discriminator 3 view .LVU131
 509 02bb C4627D35 		vpmovzxdq	ymm9, xmm1	#, vect__49.181
 509      C9
 510 02c0 C4E27D35 		vpmovzxdq	ymm0, xmm5	#, vect__48.180
 510      C5
 511 02c5 C442ED47 		vpsllvq	ymm10, ymm2, ymm9	# vect_patt_138.183, vect_cst__38, vect_patt_139.182
 511      D1
 512 02ca C4E2ED45 		vpsrlvq	ymm4, ymm2, ymm0	# vect_patt_136.185, vect_cst__38, vect_patt_137.184
 512      E0
 513 02cf C4E37D39 		vextracti128	xmm3, ymm1, 0x1	# tmp304, vect__49.181
 513      CB01
 514 02d5 C4E37D39 		vextracti128	xmm5, ymm5, 0x1	# tmp307, vect__48.180
 514      ED01
 515 02db C52DEBDC 		vpor	ymm11, ymm10, ymm4	# vect__55.186, vect_patt_138.183, vect_patt_136.185
 516 02df C4E27D35 		vpmovzxdq	ymm1, xmm3	# vect_patt_139.182, tmp304
 516      CB
 517 02e4 C4627D35 		vpmovzxdq	ymm10, xmm5	# vect_patt_137.184, tmp307
 517      D5
 518 02e9 C462ED47 		vpsllvq	ymm9, ymm2, ymm1	# vect_patt_138.183, vect_cst__38, vect_patt_139.182
 518      C9
 519 02ee C4C2ED45 		vpsrlvq	ymm0, ymm2, ymm10	# vect_patt_136.185, vect_cst__38, vect_patt_137.184
 519      C2
 520              	# sieve_extend.c:304:         bitstorage[destination_start_word+i] = (pattern << (pattern_size - ((
 521              		.loc 1 304 46 discriminator 3 view .LVU132
 522 02f3 C57E7F59 		vmovdqu	YMMWORD PTR -128[rcx], ymm11	# MEM[base: _213, offset: 0B], vect__55.186
 522      80
 523              	# sieve_extend.c:304:         bitstorage[destination_start_word+i] = (pattern << (pattern_size - ((
 524              		.loc 1 304 83 discriminator 3 view .LVU133
 525 02f8 C54DD4DF 		vpaddq	ymm11, ymm6, ymm7	# vect_vec_iv_.176, vect_vec_iv_.176, tmp361
 526              	# sieve_extend.c:304:         bitstorage[destination_start_word+i] = (pattern << (pattern_size - ((
 527              		.loc 1 304 118 discriminator 3 view .LVU134
 528 02fc C5B5EBE0 		vpor	ymm4, ymm9, ymm0	# vect__55.186, vect_patt_138.183, vect_patt_136.185
 529              	# sieve_extend.c:304:         bitstorage[destination_start_word+i] = (pattern << (pattern_size - ((
 530              		.loc 1 304 83 discriminator 3 view .LVU135
 531 0300 C4C34D46 		vperm2i128	ymm3, ymm6, ymm11, 32	# tmp375, vect_vec_iv_.176, vect_vec_iv_.176,
 531      DB20
 532 0306 C4414DD4 		vpaddq	ymm9, ymm6, ymm8	# vect_vec_iv_.176, vect_vec_iv_.176, tmp360
 532      C8
GAS LISTING /tmp/ccG38KJh.s 			page 18


 533 030b C4C34D46 		vperm2i128	ymm6, ymm6, ymm11, 49	# tmp376, vect_vec_iv_.176, vect_vec_iv_.176,
 533      F331
 534 0311 C5FD70CB 		vpshufd	ymm1, ymm3, 216	# tmp377, tmp375,
 534      D8
 535 0316 C5FD70EE 		vpshufd	ymm5, ymm6, 216	# tmp378, tmp376,
 535      D8
 536 031b C5756CD5 		vpunpcklqdq	ymm10, ymm1, ymm5	# tmp379, tmp377, tmp378
 537 031f C4C21D40 		vpmulld	ymm0, ymm12, ymm10	# vect__45.178, vect_cst__1, tmp379
 537      C2
 538              	# sieve_extend.c:304:         bitstorage[destination_start_word+i] = (pattern << (pattern_size - ((
 539              		.loc 1 304 46 discriminator 3 view .LVU136
 540 0324 C5FE7F61 		vmovdqu	YMMWORD PTR -96[rcx], ymm4	# MEM[base: _213, offset: 32B], vect__55.186
 540      A0
 303:sieve_extend.c ****         bitstorage[destination_start_word+i] = (pattern << (pattern_size - ((shift+i*pattern_shift)
 541              		.loc 1 303 40 is_stmt 1 discriminator 3 view .LVU137
 303:sieve_extend.c ****         bitstorage[destination_start_word+i] = (pattern << (pattern_size - ((shift+i*pattern_shift)
 542              		.loc 1 303 25 discriminator 3 view .LVU138
 543              		.loc 1 304 9 discriminator 3 view .LVU139
 544              	# sieve_extend.c:304:         bitstorage[destination_start_word+i] = (pattern << (pattern_size - ((
 545              		.loc 1 304 83 is_stmt 0 discriminator 3 view .LVU140
 546 0329 C4C17DFE 		vpaddd	ymm4, ymm0, ymm13	# vect__47.179, vect__45.178, vect_cst__131
 546      E5
 547              	# sieve_extend.c:304:         bitstorage[destination_start_word+i] = (pattern << (pattern_size - ((
 548              		.loc 1 304 101 discriminator 3 view .LVU141
 549 032e C4C15DDB 		vpand	ymm3, ymm4, ymm15	# vect__48.180, vect__47.179, tmp362
 549      DF
 550              	# sieve_extend.c:304:         bitstorage[destination_start_word+i] = (pattern << (pattern_size - ((
 551              		.loc 1 304 74 discriminator 3 view .LVU142
 552 0333 C58DFAF3 		vpsubd	ymm6, ymm14, ymm3	# vect__49.181, vect_cst__108, vect__48.180
 553              	# sieve_extend.c:304:         bitstorage[destination_start_word+i] = (pattern << (pattern_size - ((
 554              		.loc 1 304 118 discriminator 3 view .LVU143
 555 0337 C4627D35 		vpmovzxdq	ymm11, xmm6	#, vect__49.181
 555      DE
 556 033c C4E27D35 		vpmovzxdq	ymm5, xmm3	#, vect__48.180
 556      EB
 557 0341 C4C2ED47 		vpsllvq	ymm1, ymm2, ymm11	# vect_patt_138.183, vect_cst__38, vect_patt_139.182
 557      CB
 558 0346 C462ED45 		vpsrlvq	ymm10, ymm2, ymm5	# vect_patt_136.185, vect_cst__38, vect_patt_137.184
 558      D5
 559 034b C4E37D39 		vextracti128	xmm4, ymm6, 0x1	# tmp391, vect__49.181
 559      F401
 560 0351 C4E37D39 		vextracti128	xmm3, ymm3, 0x1	# tmp394, vect__48.180
 560      DB01
 561 0357 C4C175EB 		vpor	ymm0, ymm1, ymm10	# vect__55.186, vect_patt_138.183, vect_patt_136.185
 561      C2
 562 035c C4E27D35 		vpmovzxdq	ymm6, xmm4	# vect_patt_139.182, tmp391
 562      F4
 563 0361 C4E27D35 		vpmovzxdq	ymm1, xmm3	# vect_patt_137.184, tmp394
 563      CB
 564 0366 C462ED47 		vpsllvq	ymm11, ymm2, ymm6	# vect_patt_138.183, vect_cst__38, vect_patt_139.182
 564      DE
 565 036b C4E2ED45 		vpsrlvq	ymm5, ymm2, ymm1	# vect_patt_136.185, vect_cst__38, vect_patt_137.184
 565      E9
 566              	# sieve_extend.c:304:         bitstorage[destination_start_word+i] = (pattern << (pattern_size - ((
 567              		.loc 1 304 46 discriminator 3 view .LVU144
 568 0370 C5FE7F41 		vmovdqu	YMMWORD PTR -64[rcx], ymm0	# MEM[base: _213, offset: 0B], vect__55.186
 568      C0
GAS LISTING /tmp/ccG38KJh.s 			page 19


 569              	# sieve_extend.c:304:         bitstorage[destination_start_word+i] = (pattern << (pattern_size - ((
 570              		.loc 1 304 118 discriminator 3 view .LVU145
 571 0375 C525EBD5 		vpor	ymm10, ymm11, ymm5	# vect__55.186, vect_patt_138.183, vect_patt_136.185
 572              	# sieve_extend.c:304:         bitstorage[destination_start_word+i] = (pattern << (pattern_size - ((
 573              		.loc 1 304 46 discriminator 3 view .LVU146
 574 0379 C57E7F51 		vmovdqu	YMMWORD PTR -32[rcx], ymm10	# MEM[base: _213, offset: 32B], vect__55.186
 574      E0
 303:sieve_extend.c ****         bitstorage[destination_start_word+i] = (pattern << (pattern_size - ((shift+i*pattern_shift)
 575              		.loc 1 303 40 is_stmt 1 discriminator 3 view .LVU147
 303:sieve_extend.c ****         bitstorage[destination_start_word+i] = (pattern << (pattern_size - ((shift+i*pattern_shift)
 576              		.loc 1 303 25 discriminator 3 view .LVU148
 577 037e 4C39F1   		cmp	rcx, r14	# ivtmp.191, _216
 578 0381 0F85F9FE 		jne	.L7	#,
 578      FFFF
 579              	.L31:
 580 0387 4D89EF   		mov	r15, r13	# niters_vector_mult_vf.174, niters.172
 581 038a 4983E7F8 		and	r15, -8	# niters_vector_mult_vf.174,
 582 038e 4183E507 		and	r13d, 7	# niters.172,
 583 0392 0F847D01 		je	.L37	#,
 583      0000
 584 0398 C5F877   		vzeroupper
 585              	.L6:
 586              	.LVL25:
 587              		.loc 1 304 9 view .LVU149
 588              	# sieve_extend.c:304:         bitstorage[destination_start_word+i] = (pattern << (pattern_size - ((
 589              		.loc 1 304 83 is_stmt 0 view .LVU150
 590 039b 89D1     		mov	ecx, edx	# tmp310, tmp271
 591 039d 410FAFCF 		imul	ecx, r15d	# tmp310, niters_vector_mult_vf.174
 592              	# sieve_extend.c:304:         bitstorage[destination_start_word+i] = (pattern << (pattern_size - ((
 593              		.loc 1 304 74 view .LVU151
 594 03a1 4189C2   		mov	r10d, eax	# tmp313, pattern_size
 595              	# sieve_extend.c:304:         bitstorage[destination_start_word+i] = (pattern << (pattern_size - ((
 596              		.loc 1 304 19 view .LVU152
 597 03a4 4F8D2C39 		lea	r13, [r9+r15]	# tmp312,
 598              	# sieve_extend.c:304:         bitstorage[destination_start_word+i] = (pattern << (pattern_size - ((
 599              		.loc 1 304 83 view .LVU153
 600 03a8 01F1     		add	ecx, esi	# tmp311, shift
 601              	# sieve_extend.c:304:         bitstorage[destination_start_word+i] = (pattern << (pattern_size - ((
 602              		.loc 1 304 101 view .LVU154
 603 03aa 83E13F   		and	ecx, 63	# _49,
 604              	# sieve_extend.c:304:         bitstorage[destination_start_word+i] = (pattern << (pattern_size - ((
 605              		.loc 1 304 74 view .LVU155
 606 03ad 4129CA   		sub	r10d, ecx	# tmp313, _49
 607              	# sieve_extend.c:304:         bitstorage[destination_start_word+i] = (pattern << (pattern_size - ((
 608              		.loc 1 304 57 view .LVU156
 609 03b0 C442A9F7 		shlx	r14, r8, r10	# tmp314, pattern, tmp313
 609      F0
 610              	# sieve_extend.c:304:         bitstorage[destination_start_word+i] = (pattern << (pattern_size - ((
 611              		.loc 1 304 129 view .LVU157
 612 03b5 C4C2F3F7 		shrx	rcx, r8, rcx	# tmp315, pattern, _49
 612      C8
 613              	# sieve_extend.c:304:         bitstorage[destination_start_word+i] = (pattern << (pattern_size - ((
 614              		.loc 1 304 118 view .LVU158
 615 03ba 4C09F1   		or	rcx, r14	# tmp316, tmp314
 616 03bd 4A890CEF 		mov	QWORD PTR [rdi+r13*8], rcx	# *_55, tmp316
 303:sieve_extend.c ****         bitstorage[destination_start_word+i] = (pattern << (pattern_size - ((shift+i*pattern_shift)
 617              		.loc 1 303 40 is_stmt 1 view .LVU159
GAS LISTING /tmp/ccG38KJh.s 			page 20


 618 03c1 4D8D6F01 		lea	r13, 1[r15]	# i,
 619              	.LVL26:
 303:sieve_extend.c ****         bitstorage[destination_start_word+i] = (pattern << (pattern_size - ((shift+i*pattern_shift)
 620              		.loc 1 303 25 view .LVU160
 621              	# sieve_extend.c:303:     for (counter_t i=0; i<=loop_range; ++i ) {
 303:sieve_extend.c ****         bitstorage[destination_start_word+i] = (pattern << (pattern_size - ((shift+i*pattern_shift)
 622              		.loc 1 303 5 is_stmt 0 view .LVU161
 623 03c5 4D39EC   		cmp	r12, r13	# loop_range, i
 624 03c8 0F821D01 		jb	.L8	#,
 624      0000
 625              		.loc 1 304 9 is_stmt 1 view .LVU162
 626              	# sieve_extend.c:304:         bitstorage[destination_start_word+i] = (pattern << (pattern_size - ((
 627              		.loc 1 304 83 is_stmt 0 view .LVU163
 628 03ce 4189D2   		mov	r10d, edx	# tmp317, tmp271
 629 03d1 450FAFD5 		imul	r10d, r13d	# tmp317, i
 630              	# sieve_extend.c:304:         bitstorage[destination_start_word+i] = (pattern << (pattern_size - ((
 631              		.loc 1 304 74 view .LVU164
 632 03d5 4189C6   		mov	r14d, eax	# tmp320, pattern_size
 633              	# sieve_extend.c:304:         bitstorage[destination_start_word+i] = (pattern << (pattern_size - ((
 634              		.loc 1 304 19 view .LVU165
 635 03d8 4D01CD   		add	r13, r9	# tmp319, destination_start_word
 636              	.LVL27:
 637              	# sieve_extend.c:304:         bitstorage[destination_start_word+i] = (pattern << (pattern_size - ((
 638              		.loc 1 304 83 view .LVU166
 639 03db 4101F2   		add	r10d, esi	# tmp318, shift
 640              	# sieve_extend.c:304:         bitstorage[destination_start_word+i] = (pattern << (pattern_size - ((
 641              		.loc 1 304 101 view .LVU167
 642 03de 4183E23F 		and	r10d, 63	# _142,
 643              	# sieve_extend.c:304:         bitstorage[destination_start_word+i] = (pattern << (pattern_size - ((
 644              		.loc 1 304 74 view .LVU168
 645 03e2 4529D6   		sub	r14d, r10d	# tmp320, _142
 646              	# sieve_extend.c:304:         bitstorage[destination_start_word+i] = (pattern << (pattern_size - ((
 647              		.loc 1 304 57 view .LVU169
 648 03e5 C4C289F7 		shlx	rcx, r8, r14	# tmp321, pattern, tmp320
 648      C8
 649              	# sieve_extend.c:304:         bitstorage[destination_start_word+i] = (pattern << (pattern_size - ((
 650              		.loc 1 304 129 view .LVU170
 651 03ea C442ABF7 		shrx	r10, r8, r10	# tmp322, pattern, _142
 651      D0
 652              	# sieve_extend.c:304:         bitstorage[destination_start_word+i] = (pattern << (pattern_size - ((
 653              		.loc 1 304 118 view .LVU171
 654 03ef 4C09D1   		or	rcx, r10	# tmp323, tmp322
 655 03f2 4A890CEF 		mov	QWORD PTR [rdi+r13*8], rcx	# *_148, tmp323
 303:sieve_extend.c ****         bitstorage[destination_start_word+i] = (pattern << (pattern_size - ((shift+i*pattern_shift)
 656              		.loc 1 303 40 is_stmt 1 view .LVU172
 657 03f6 4D8D6F02 		lea	r13, 2[r15]	# i,
 658              	.LVL28:
 303:sieve_extend.c ****         bitstorage[destination_start_word+i] = (pattern << (pattern_size - ((shift+i*pattern_shift)
 659              		.loc 1 303 25 view .LVU173
 660              	# sieve_extend.c:303:     for (counter_t i=0; i<=loop_range; ++i ) {
 303:sieve_extend.c ****         bitstorage[destination_start_word+i] = (pattern << (pattern_size - ((shift+i*pattern_shift)
 661              		.loc 1 303 5 is_stmt 0 view .LVU174
 662 03fa 4D39EC   		cmp	r12, r13	# loop_range, i
 663 03fd 0F82E800 		jb	.L8	#,
 663      0000
 664              		.loc 1 304 9 is_stmt 1 view .LVU175
 665              	# sieve_extend.c:304:         bitstorage[destination_start_word+i] = (pattern << (pattern_size - ((
GAS LISTING /tmp/ccG38KJh.s 			page 21


 666              		.loc 1 304 83 is_stmt 0 view .LVU176
 667 0403 89D1     		mov	ecx, edx	# tmp324, tmp271
 668 0405 410FAFCD 		imul	ecx, r13d	# tmp324, i
 669              	# sieve_extend.c:304:         bitstorage[destination_start_word+i] = (pattern << (pattern_size - ((
 670              		.loc 1 304 74 view .LVU177
 671 0409 4189C6   		mov	r14d, eax	# tmp327, pattern_size
 672              	# sieve_extend.c:304:         bitstorage[destination_start_word+i] = (pattern << (pattern_size - ((
 673              		.loc 1 304 19 view .LVU178
 674 040c 4D01CD   		add	r13, r9	# tmp326, destination_start_word
 675              	.LVL29:
 676              	# sieve_extend.c:304:         bitstorage[destination_start_word+i] = (pattern << (pattern_size - ((
 677              		.loc 1 304 83 view .LVU179
 678 040f 01F1     		add	ecx, esi	# tmp325, shift
 679              	# sieve_extend.c:304:         bitstorage[destination_start_word+i] = (pattern << (pattern_size - ((
 680              		.loc 1 304 101 view .LVU180
 681 0411 83E13F   		and	ecx, 63	# _157,
 682              	# sieve_extend.c:304:         bitstorage[destination_start_word+i] = (pattern << (pattern_size - ((
 683              		.loc 1 304 74 view .LVU181
 684 0414 4129CE   		sub	r14d, ecx	# tmp327, _157
 685              	# sieve_extend.c:304:         bitstorage[destination_start_word+i] = (pattern << (pattern_size - ((
 686              		.loc 1 304 57 view .LVU182
 687 0417 C44289F7 		shlx	r10, r8, r14	# tmp328, pattern, tmp327
 687      D0
 688              	# sieve_extend.c:304:         bitstorage[destination_start_word+i] = (pattern << (pattern_size - ((
 689              		.loc 1 304 129 view .LVU183
 690 041c C4C2F3F7 		shrx	rcx, r8, rcx	# tmp329, pattern, _157
 690      C8
 691              	# sieve_extend.c:304:         bitstorage[destination_start_word+i] = (pattern << (pattern_size - ((
 692              		.loc 1 304 118 view .LVU184
 693 0421 4C09D1   		or	rcx, r10	# tmp330, tmp328
 694 0424 4A890CEF 		mov	QWORD PTR [rdi+r13*8], rcx	# *_163, tmp330
 303:sieve_extend.c ****         bitstorage[destination_start_word+i] = (pattern << (pattern_size - ((shift+i*pattern_shift)
 695              		.loc 1 303 40 is_stmt 1 view .LVU185
 696 0428 4D8D6F03 		lea	r13, 3[r15]	# i,
 697              	.LVL30:
 303:sieve_extend.c ****         bitstorage[destination_start_word+i] = (pattern << (pattern_size - ((shift+i*pattern_shift)
 698              		.loc 1 303 25 view .LVU186
 699              	# sieve_extend.c:303:     for (counter_t i=0; i<=loop_range; ++i ) {
 303:sieve_extend.c ****         bitstorage[destination_start_word+i] = (pattern << (pattern_size - ((shift+i*pattern_shift)
 700              		.loc 1 303 5 is_stmt 0 view .LVU187
 701 042c 4D39EC   		cmp	r12, r13	# loop_range, i
 702 042f 0F82B600 		jb	.L8	#,
 702      0000
 703              		.loc 1 304 9 is_stmt 1 view .LVU188
 704              	# sieve_extend.c:304:         bitstorage[destination_start_word+i] = (pattern << (pattern_size - ((
 705              		.loc 1 304 83 is_stmt 0 view .LVU189
 706 0435 4189D2   		mov	r10d, edx	# tmp331, tmp271
 707 0438 450FAFD5 		imul	r10d, r13d	# tmp331, i
 708              	# sieve_extend.c:304:         bitstorage[destination_start_word+i] = (pattern << (pattern_size - ((
 709              		.loc 1 304 74 view .LVU190
 710 043c 4189C6   		mov	r14d, eax	# tmp334, pattern_size
 711              	# sieve_extend.c:304:         bitstorage[destination_start_word+i] = (pattern << (pattern_size - ((
 712              		.loc 1 304 19 view .LVU191
 713 043f 4D01CD   		add	r13, r9	# tmp333, destination_start_word
 714              	.LVL31:
 715              	# sieve_extend.c:304:         bitstorage[destination_start_word+i] = (pattern << (pattern_size - ((
 716              		.loc 1 304 83 view .LVU192
GAS LISTING /tmp/ccG38KJh.s 			page 22


 717 0442 4101F2   		add	r10d, esi	# tmp332, shift
 718              	# sieve_extend.c:304:         bitstorage[destination_start_word+i] = (pattern << (pattern_size - ((
 719              		.loc 1 304 101 view .LVU193
 720 0445 4183E23F 		and	r10d, 63	# _172,
 721              	# sieve_extend.c:304:         bitstorage[destination_start_word+i] = (pattern << (pattern_size - ((
 722              		.loc 1 304 74 view .LVU194
 723 0449 4529D6   		sub	r14d, r10d	# tmp334, _172
 724              	# sieve_extend.c:304:         bitstorage[destination_start_word+i] = (pattern << (pattern_size - ((
 725              		.loc 1 304 57 view .LVU195
 726 044c C44289F7 		shlx	r14, r8, r14	# tmp335, pattern, tmp334
 726      F0
 727              	# sieve_extend.c:304:         bitstorage[destination_start_word+i] = (pattern << (pattern_size - ((
 728              		.loc 1 304 129 view .LVU196
 729 0451 C4C2ABF7 		shrx	rcx, r8, r10	# tmp336, pattern, _172
 729      C8
 730              	# sieve_extend.c:304:         bitstorage[destination_start_word+i] = (pattern << (pattern_size - ((
 731              		.loc 1 304 118 view .LVU197
 732 0456 4C09F1   		or	rcx, r14	# tmp337, tmp335
 733 0459 4A890CEF 		mov	QWORD PTR [rdi+r13*8], rcx	# *_178, tmp337
 303:sieve_extend.c ****         bitstorage[destination_start_word+i] = (pattern << (pattern_size - ((shift+i*pattern_shift)
 734              		.loc 1 303 40 is_stmt 1 view .LVU198
 735 045d 4D8D6F04 		lea	r13, 4[r15]	# i,
 736              	.LVL32:
 303:sieve_extend.c ****         bitstorage[destination_start_word+i] = (pattern << (pattern_size - ((shift+i*pattern_shift)
 737              		.loc 1 303 25 view .LVU199
 738              	# sieve_extend.c:303:     for (counter_t i=0; i<=loop_range; ++i ) {
 303:sieve_extend.c ****         bitstorage[destination_start_word+i] = (pattern << (pattern_size - ((shift+i*pattern_shift)
 739              		.loc 1 303 5 is_stmt 0 view .LVU200
 740 0461 4D39EC   		cmp	r12, r13	# loop_range, i
 741 0464 0F828100 		jb	.L8	#,
 741      0000
 742              		.loc 1 304 9 is_stmt 1 view .LVU201
 743              	# sieve_extend.c:304:         bitstorage[destination_start_word+i] = (pattern << (pattern_size - ((
 744              		.loc 1 304 83 is_stmt 0 view .LVU202
 745 046a 4189D2   		mov	r10d, edx	# tmp338, tmp271
 746 046d 450FAFD5 		imul	r10d, r13d	# tmp338, i
 747              	# sieve_extend.c:304:         bitstorage[destination_start_word+i] = (pattern << (pattern_size - ((
 748              		.loc 1 304 74 view .LVU203
 749 0471 4189C6   		mov	r14d, eax	# tmp341, pattern_size
 750              	# sieve_extend.c:304:         bitstorage[destination_start_word+i] = (pattern << (pattern_size - ((
 751              		.loc 1 304 19 view .LVU204
 752 0474 4D01CD   		add	r13, r9	# tmp340, destination_start_word
 753              	.LVL33:
 754              	# sieve_extend.c:304:         bitstorage[destination_start_word+i] = (pattern << (pattern_size - ((
 755              		.loc 1 304 83 view .LVU205
 756 0477 4101F2   		add	r10d, esi	# tmp339, shift
 757              	# sieve_extend.c:304:         bitstorage[destination_start_word+i] = (pattern << (pattern_size - ((
 758              		.loc 1 304 101 view .LVU206
 759 047a 4183E23F 		and	r10d, 63	# _187,
 760              	# sieve_extend.c:304:         bitstorage[destination_start_word+i] = (pattern << (pattern_size - ((
 761              		.loc 1 304 74 view .LVU207
 762 047e 4529D6   		sub	r14d, r10d	# tmp341, _187
 763              	# sieve_extend.c:304:         bitstorage[destination_start_word+i] = (pattern << (pattern_size - ((
 764              		.loc 1 304 57 view .LVU208
 765 0481 C44289F7 		shlx	r14, r8, r14	# tmp342, pattern, tmp341
 765      F0
 766              	# sieve_extend.c:304:         bitstorage[destination_start_word+i] = (pattern << (pattern_size - ((
GAS LISTING /tmp/ccG38KJh.s 			page 23


 767              		.loc 1 304 129 view .LVU209
 768 0486 C4C2ABF7 		shrx	rcx, r8, r10	# tmp343, pattern, _187
 768      C8
 769              	# sieve_extend.c:304:         bitstorage[destination_start_word+i] = (pattern << (pattern_size - ((
 770              		.loc 1 304 118 view .LVU210
 771 048b 4C09F1   		or	rcx, r14	# tmp344, tmp342
 772 048e 4A890CEF 		mov	QWORD PTR [rdi+r13*8], rcx	# *_193, tmp344
 303:sieve_extend.c ****         bitstorage[destination_start_word+i] = (pattern << (pattern_size - ((shift+i*pattern_shift)
 773              		.loc 1 303 40 is_stmt 1 view .LVU211
 774 0492 4D8D6F05 		lea	r13, 5[r15]	# i,
 775              	.LVL34:
 303:sieve_extend.c ****         bitstorage[destination_start_word+i] = (pattern << (pattern_size - ((shift+i*pattern_shift)
 776              		.loc 1 303 25 view .LVU212
 777              	# sieve_extend.c:303:     for (counter_t i=0; i<=loop_range; ++i ) {
 303:sieve_extend.c ****         bitstorage[destination_start_word+i] = (pattern << (pattern_size - ((shift+i*pattern_shift)
 778              		.loc 1 303 5 is_stmt 0 view .LVU213
 779 0496 4D39EC   		cmp	r12, r13	# loop_range, i
 780 0499 7250     		jb	.L8	#,
 781              		.loc 1 304 9 is_stmt 1 view .LVU214
 782              	# sieve_extend.c:304:         bitstorage[destination_start_word+i] = (pattern << (pattern_size - ((
 783              		.loc 1 304 83 is_stmt 0 view .LVU215
 784 049b 4189D2   		mov	r10d, edx	# tmp345, tmp271
 785 049e 450FAFD5 		imul	r10d, r13d	# tmp345, i
 786              	# sieve_extend.c:304:         bitstorage[destination_start_word+i] = (pattern << (pattern_size - ((
 787              		.loc 1 304 74 view .LVU216
 788 04a2 4189C6   		mov	r14d, eax	# tmp348, pattern_size
 789              	# sieve_extend.c:304:         bitstorage[destination_start_word+i] = (pattern << (pattern_size - ((
 790              		.loc 1 304 19 view .LVU217
 791 04a5 4D01CD   		add	r13, r9	# tmp347, destination_start_word
 792              	.LVL35:
 793              	# sieve_extend.c:304:         bitstorage[destination_start_word+i] = (pattern << (pattern_size - ((
 794              		.loc 1 304 83 view .LVU218
 795 04a8 4101F2   		add	r10d, esi	# tmp346, shift
 796              	# sieve_extend.c:304:         bitstorage[destination_start_word+i] = (pattern << (pattern_size - ((
 797              		.loc 1 304 101 view .LVU219
 798 04ab 4183E23F 		and	r10d, 63	# _202,
 799              	# sieve_extend.c:304:         bitstorage[destination_start_word+i] = (pattern << (pattern_size - ((
 800              		.loc 1 304 74 view .LVU220
 801 04af 4529D6   		sub	r14d, r10d	# tmp348, _202
 802              	# sieve_extend.c:304:         bitstorage[destination_start_word+i] = (pattern << (pattern_size - ((
 803              		.loc 1 304 57 view .LVU221
 804 04b2 C44289F7 		shlx	r14, r8, r14	# tmp349, pattern, tmp348
 804      F0
 805              	# sieve_extend.c:304:         bitstorage[destination_start_word+i] = (pattern << (pattern_size - ((
 806              		.loc 1 304 129 view .LVU222
 807 04b7 C4C2ABF7 		shrx	rcx, r8, r10	# tmp350, pattern, _202
 807      C8
 808              	# sieve_extend.c:303:     for (counter_t i=0; i<=loop_range; ++i ) {
 303:sieve_extend.c ****         bitstorage[destination_start_word+i] = (pattern << (pattern_size - ((shift+i*pattern_shift)
 809              		.loc 1 303 40 view .LVU223
 810 04bc 4983C706 		add	r15, 6	# i,
 811              	.LVL36:
 812              	# sieve_extend.c:304:         bitstorage[destination_start_word+i] = (pattern << (pattern_size - ((
 813              		.loc 1 304 118 view .LVU224
 814 04c0 4C09F1   		or	rcx, r14	# tmp351, tmp349
 815 04c3 4A890CEF 		mov	QWORD PTR [rdi+r13*8], rcx	# *_208, tmp351
 303:sieve_extend.c ****         bitstorage[destination_start_word+i] = (pattern << (pattern_size - ((shift+i*pattern_shift)
GAS LISTING /tmp/ccG38KJh.s 			page 24


 816              		.loc 1 303 40 is_stmt 1 view .LVU225
 817              	.LVL37:
 303:sieve_extend.c ****         bitstorage[destination_start_word+i] = (pattern << (pattern_size - ((shift+i*pattern_shift)
 818              		.loc 1 303 25 view .LVU226
 819              	# sieve_extend.c:303:     for (counter_t i=0; i<=loop_range; ++i ) {
 303:sieve_extend.c ****         bitstorage[destination_start_word+i] = (pattern << (pattern_size - ((shift+i*pattern_shift)
 820              		.loc 1 303 5 is_stmt 0 view .LVU227
 821 04c7 4D39FC   		cmp	r12, r15	# loop_range, i
 822 04ca 721F     		jb	.L8	#,
 823              		.loc 1 304 9 is_stmt 1 view .LVU228
 824              	# sieve_extend.c:304:         bitstorage[destination_start_word+i] = (pattern << (pattern_size - ((
 825              		.loc 1 304 83 is_stmt 0 view .LVU229
 826 04cc 410FAFD7 		imul	edx, r15d	# tmp352, i
 827              	.LVL38:
 828              	# sieve_extend.c:304:         bitstorage[destination_start_word+i] = (pattern << (pattern_size - ((
 829              		.loc 1 304 19 view .LVU230
 830 04d0 4D01CF   		add	r15, r9	# tmp354, destination_start_word
 831              	# sieve_extend.c:304:         bitstorage[destination_start_word+i] = (pattern << (pattern_size - ((
 832              		.loc 1 304 83 view .LVU231
 833 04d3 01D6     		add	esi, edx	# tmp353, tmp352
 834              	.LVL39:
 835              	# sieve_extend.c:304:         bitstorage[destination_start_word+i] = (pattern << (pattern_size - ((
 836              		.loc 1 304 101 view .LVU232
 837 04d5 83E63F   		and	esi, 63	# _111,
 838              	# sieve_extend.c:304:         bitstorage[destination_start_word+i] = (pattern << (pattern_size - ((
 839              		.loc 1 304 74 view .LVU233
 840 04d8 29F0     		sub	eax, esi	# tmp355, _111
 841              	.LVL40:
 842              	# sieve_extend.c:304:         bitstorage[destination_start_word+i] = (pattern << (pattern_size - ((
 843              		.loc 1 304 57 view .LVU234
 844 04da C4C2F9F7 		shlx	rdx, r8, rax	# tmp356, pattern, tmp355
 844      D0
 845              	# sieve_extend.c:304:         bitstorage[destination_start_word+i] = (pattern << (pattern_size - ((
 846              		.loc 1 304 129 view .LVU235
 847 04df C4C2CBF7 		shrx	rsi, r8, rsi	# tmp357, pattern, _111
 847      F0
 848              	# sieve_extend.c:304:         bitstorage[destination_start_word+i] = (pattern << (pattern_size - ((
 849              		.loc 1 304 118 view .LVU236
 850 04e4 4809D6   		or	rsi, rdx	# tmp358, tmp356
 851 04e7 4A8934FF 		mov	QWORD PTR [rdi+r15*8], rsi	# *_104, tmp358
 303:sieve_extend.c ****         bitstorage[destination_start_word+i] = (pattern << (pattern_size - ((shift+i*pattern_shift)
 852              		.loc 1 303 40 is_stmt 1 view .LVU237
 303:sieve_extend.c ****         bitstorage[destination_start_word+i] = (pattern << (pattern_size - ((shift+i*pattern_shift)
 853              		.loc 1 303 25 view .LVU238
 854              	.L8:
 303:sieve_extend.c ****         bitstorage[destination_start_word+i] = (pattern << (pattern_size - ((shift+i*pattern_shift)
 855              		.loc 1 303 25 is_stmt 0 view .LVU239
 856              	.LBE374:
 305:sieve_extend.c ****     }
 306:sieve_extend.c ****     bitstorage[destination_stop_word] &= chopmask(destination_stop);
 857              		.loc 1 306 5 is_stmt 1 view .LVU240
 858              	# sieve_extend.c:306:     bitstorage[destination_stop_word] &= chopmask(destination_stop);
 859              		.loc 1 306 39 is_stmt 0 view .LVU241
 860 04eb 4A211CDF 		and	QWORD PTR [rdi+r11*8], rbx	# *_57, _124
 861              	# sieve_extend.c:307: }
 307:sieve_extend.c **** }
 862              		.loc 1 307 1 view .LVU242
GAS LISTING /tmp/ccG38KJh.s 			page 25


 863 04ef 5B       		pop	rbx	#
 864 04f0 415C     		pop	r12	#
 865              	.LVL41:
 866              		.loc 1 307 1 view .LVU243
 867 04f2 415D     		pop	r13	#
 868 04f4 415E     		pop	r14	#
 869 04f6 415F     		pop	r15	#
 870 04f8 5D       		pop	rbp	#
 871              		.cfi_remember_state
 872              		.cfi_def_cfa 7, 8
 873 04f9 C3       		ret	
 874              	.LVL42:
 875 04fa 660F1F44 		.p2align 4,,10
 875      0000
 876              		.p2align 3
 877              	.L36:
 878              		.cfi_restore_state
 290:sieve_extend.c ****         return;
 879              		.loc 1 290 9 is_stmt 1 view .LVU244
 880              	# sieve_extend.c:290:         bitstorage[destination_start_word] |= (pattern << bitindex(destinatio
 290:sieve_extend.c ****         return;
 881              		.loc 1 290 88 is_stmt 0 view .LVU245
 882 0500 4821D8   		and	rax, rbx	# tmp267, _124
 883              	# sieve_extend.c:290:         bitstorage[destination_start_word] |= (pattern << bitindex(destinatio
 290:sieve_extend.c ****         return;
 884              		.loc 1 290 44 view .LVU246
 885 0503 4C09F8   		or	rax, r15	# tmp268, pretmp_118
 886 0506 49894500 		mov	QWORD PTR 0[r13], rax	# *_117, tmp268
 291:sieve_extend.c ****     }
 887              		.loc 1 291 9 is_stmt 1 view .LVU247
 888              	# sieve_extend.c:307: }
 889              		.loc 1 307 1 is_stmt 0 view .LVU248
 890 050a 5B       		pop	rbx	#
 891 050b 415C     		pop	r12	#
 892 050d 415D     		pop	r13	#
 893 050f 415E     		pop	r14	#
 894              	.LVL43:
 895              		.loc 1 307 1 view .LVU249
 896 0511 415F     		pop	r15	#
 897 0513 5D       		pop	rbp	#
 898              		.cfi_remember_state
 899              		.cfi_def_cfa 7, 8
 900 0514 C3       		ret	
 901              	.LVL44:
 902              	.L37:
 903              		.cfi_restore_state
 904              		.loc 1 307 1 view .LVU250
 905 0515 C5F877   		vzeroupper
 906 0518 EBD1     		jmp	.L8	#
 907              	.LVL45:
 908              	.L9:
 909              	.LBB375:
 910              	# sieve_extend.c:303:     for (counter_t i=0; i<=loop_range; ++i ) {
 303:sieve_extend.c ****         bitstorage[destination_start_word+i] = (pattern << (pattern_size - ((shift+i*pattern_shift)
 911              		.loc 1 303 20 view .LVU251
 912 051a 4531FF   		xor	r15d, r15d	# niters_vector_mult_vf.174
 913 051d E979FEFF 		jmp	.L6	#
GAS LISTING /tmp/ccG38KJh.s 			page 26


 913      FF
 914              	.LBE375:
 915              		.cfi_endproc
 916              	.LFE59:
 918 0522 66662E0F 		.p2align 4
 918      1F840000 
 918      0000000F 
 918      1F00
 919              		.globl	compare_tuning_result
 921              	compare_tuning_result:
 922              	.LVL46:
 923              	.LFB73:
 308:sieve_extend.c **** 
 309:sieve_extend.c **** static void continuePattern_aligned(bitword_t* bitstorage, const counter_t source_start, const coun
 310:sieve_extend.c ****     debug printf("Extending sieve size %ju in %ju bit range (%ju-%ju) using aligned (%ju copies)\n"
 311:sieve_extend.c **** 
 312:sieve_extend.c ****     const counter_t destination_stop_word = wordindex(destination_stop);
 313:sieve_extend.c ****     const counter_t copy_start = source_start + size;
 314:sieve_extend.c ****     counter_t source_word = wordindex(source_start);
 315:sieve_extend.c ****     counter_t copy_word = wordindex(copy_start);
 316:sieve_extend.c ****     
 317:sieve_extend.c ****     bitstorage[copy_word] = bitstorage[source_word] & ~chopmask(copy_start);
 318:sieve_extend.c **** 
 319:sieve_extend.c ****     while (copy_word + size <= destination_stop_word) {
 320:sieve_extend.c ****         memcpy(&bitstorage[copy_word], &bitstorage[source_word], (uintmax_t)size*sizeof(bitword_t) 
 321:sieve_extend.c ****         copy_word += size;
 322:sieve_extend.c ****     }
 323:sieve_extend.c **** 
 324:sieve_extend.c ****    while (copy_word < destination_stop_word) {
 325:sieve_extend.c ****         bitstorage[copy_word] = bitstorage[source_word];
 326:sieve_extend.c ****         source_word++;
 327:sieve_extend.c ****         copy_word++;
 328:sieve_extend.c ****     }
 329:sieve_extend.c **** 
 330:sieve_extend.c **** }
 331:sieve_extend.c **** 
 332:sieve_extend.c **** static void continuePattern_shiftright(bitword_t* bitstorage, const counter_t source_start, const c
 333:sieve_extend.c ****     debug printf("Extending sieve size %ju in %ju bit range (%ju-%ju) using shiftright (%ju copies)
 334:sieve_extend.c ****    
 335:sieve_extend.c ****     const counter_t destination_stop_word = wordindex(destination_stop);
 336:sieve_extend.c ****     const counter_t copy_start = source_start + size;
 337:sieve_extend.c ****     register const bitshift_t shift = bitindex_calc(copy_start) - bitindex_calc(source_start);
 338:sieve_extend.c ****     register const bitshift_t shift_flipped = WORD_SIZE_bitshift-shift;
 339:sieve_extend.c ****     register counter_t source_word = wordindex(source_start);
 340:sieve_extend.c ****     register counter_t copy_word = wordindex(copy_start);
 341:sieve_extend.c **** 
 342:sieve_extend.c ****     bitstorage[copy_word] |= ((bitstorage[source_word] << shift) |  (bitstorage[copy_word] >> shift
 343:sieve_extend.c ****     if unlikely(++copy_word > destination_stop_word) return; // rapid exit for one word variant
 344:sieve_extend.c **** 
 345:sieve_extend.c ****     debug { printf("...start - %ju - %ju - end\n",(uintmax_t)wordindex(copy_start), (uintmax_t)dest
 346:sieve_extend.c **** 
 347:sieve_extend.c ****     for (; copy_word <= destination_stop_word; ++copy_word, ++source_word ) {
 348:sieve_extend.c ****         bitstorage[copy_word] = (bitstorage[source_word] >> shift_flipped) | (bitstorage[source_wor
 349:sieve_extend.c ****     }
 350:sieve_extend.c **** }
 351:sieve_extend.c **** 
 352:sieve_extend.c **** 
GAS LISTING /tmp/ccG38KJh.s 			page 27


 353:sieve_extend.c **** static inline counter_t continuePattern_shiftleft_unrolled(bitword_t* __restrict bitstorage, const 
 354:sieve_extend.c ****     const counter_t fast_loop_stop_word = (aligned_copy_word>2) ? (aligned_copy_word - 2) : 0; // s
 355:sieve_extend.c ****     register const bitshift_t shift_flipped = WORD_SIZE_bitshift-shift;
 356:sieve_extend.c ****     counter_t distance = 0;
 357:sieve_extend.c ****     while (copy_word < fast_loop_stop_word) {
 358:sieve_extend.c ****         bitword_t source0 = bitstorage[source_word  ];
 359:sieve_extend.c ****         bitword_t source1 = bitstorage[source_word+1];
 360:sieve_extend.c ****         bitstorage[copy_word  ] = (source0 >> shift) | (source1 << shift_flipped);
 361:sieve_extend.c ****         bitword_t source2 = bitstorage[source_word+2];
 362:sieve_extend.c ****         bitstorage[copy_word+1] = (source1 >> shift) | (source2 << shift_flipped);
 363:sieve_extend.c ****         copy_word += 2;
 364:sieve_extend.c ****         source_word += 2;
 365:sieve_extend.c ****         distance += 2;
 366:sieve_extend.c ****     }
 367:sieve_extend.c ****     return distance;
 368:sieve_extend.c **** }
 369:sieve_extend.c **** 
 370:sieve_extend.c **** static void continuePattern_shiftleft(bitword_t* bitstorage, const counter_t source_start, const co
 371:sieve_extend.c ****     debug printf("Extending sieve size %ju in %ju bit range (%ju-%ju) using shiftleft (%ju copies)\
 372:sieve_extend.c **** 
 373:sieve_extend.c ****     const counter_t destination_stop_word = wordindex(destination_stop);
 374:sieve_extend.c ****     const counter_t copy_start = source_start + size;
 375:sieve_extend.c ****     register const bitshift_t shift = bitindex_calc(source_start) - bitindex_calc(copy_start);
 376:sieve_extend.c ****     register const bitshift_t shift_flipped = WORD_SIZE_bitshift-shift;
 377:sieve_extend.c ****     register counter_t source_word = wordindex(source_start);
 378:sieve_extend.c ****     register counter_t copy_word = wordindex(copy_start);
 379:sieve_extend.c ****     bitstorage[copy_word] |= ((bitstorage[source_word] >> shift)
 380:sieve_extend.c ****                              | (bitstorage[source_word+1] << shift_flipped))
 381:sieve_extend.c ****                              & ~chopmask(copy_start); // because this is the first word, dont copy 
 382:sieve_extend.c **** 
 383:sieve_extend.c ****     copy_word++;
 384:sieve_extend.c ****     source_word++;
 385:sieve_extend.c **** 
 386:sieve_extend.c ****     const counter_t aligned_copy_word = min(source_word + size, destination_stop_word); // after <<
 387:sieve_extend.c ****     const counter_t distance  = continuePattern_shiftleft_unrolled(bitstorage, aligned_copy_word, s
 388:sieve_extend.c ****     source_word += distance;
 389:sieve_extend.c ****     copy_word += distance;
 390:sieve_extend.c **** 
 391:sieve_extend.c ****     debug { counter_t fast_loop_stop_word = uintsafeminus(aligned_copy_word,2); printf("...start - 
 392:sieve_extend.c **** 
 393:sieve_extend.c ****     #pragma GCC ivdep
 394:sieve_extend.c ****     for (;copy_word <= aligned_copy_word; copy_word++,source_word++) {
 395:sieve_extend.c ****         bitstorage[copy_word] = (bitstorage[source_word  ] >> shift) | (bitstorage[source_word+1 ] 
 396:sieve_extend.c ****     }
 397:sieve_extend.c **** 
 398:sieve_extend.c ****     if (copy_word >= destination_stop_word) return;
 399:sieve_extend.c **** 
 400:sieve_extend.c ****     source_word = copy_word - size; // recalibrate
 401:sieve_extend.c ****     const size_t memsize = (size_t)size*sizeof(bitword_t);
 402:sieve_extend.c **** 
 403:sieve_extend.c ****     #pragma GCC ivdep
 404:sieve_extend.c ****     for (;copy_word + size <= destination_stop_word; copy_word += size) 
 405:sieve_extend.c ****         memcpy(&bitstorage[copy_word], &bitstorage[source_word],memsize );
 406:sieve_extend.c **** 
 407:sieve_extend.c ****     #pragma GCC ivdep
 408:sieve_extend.c ****     for (;copy_word <= destination_stop_word;  copy_word++,source_word++)
 409:sieve_extend.c ****         bitstorage[copy_word] = bitstorage[source_word];
GAS LISTING /tmp/ccG38KJh.s 			page 28


 410:sieve_extend.c **** 
 411:sieve_extend.c **** 
 412:sieve_extend.c ****  }
 413:sieve_extend.c **** 
 414:sieve_extend.c **** // continue a pattern that start at <source_start> with a size of <size>.
 415:sieve_extend.c **** // repeat this pattern up to <destination_stop>.
 416:sieve_extend.c **** // for small sizes, this is done on a word level
 417:sieve_extend.c **** // for larger sizes, we look at the offset / start bit and apply the appropriate algorithm.
 418:sieve_extend.c **** // note that these algorithms are general for bitstorage and have no specialized assumptions for th
 419:sieve_extend.c **** static inline void continuePattern(bitword_t* bitstorage, const counter_t source_start, const count
 420:sieve_extend.c ****     if (size < WORD_SIZE_counter) return continuePattern_smallSize (bitstorage, source_start, size,
 421:sieve_extend.c **** 
 422:sieve_extend.c ****     const bitshift_t copy_bit   = bitindex_calc(source_start + size);
 423:sieve_extend.c ****     const bitshift_t source_bit = bitindex_calc(source_start);
 424:sieve_extend.c **** 
 425:sieve_extend.c ****     if      (source_bit > copy_bit) continuePattern_shiftleft (bitstorage, source_start, size, dest
 426:sieve_extend.c ****     else if (source_bit < copy_bit) continuePattern_shiftright(bitstorage, source_start, size, dest
 427:sieve_extend.c ****     else                            continuePattern_aligned   (bitstorage, source_start, size, dest
 428:sieve_extend.c **** }
 429:sieve_extend.c **** 
 430:sieve_extend.c **** static void sieve_block_stripe(bitword_t* bitstorage, const counter_t block_start, const counter_t 
 431:sieve_extend.c ****     counter_t prime = prime_start;
 432:sieve_extend.c ****     counter_t start = 0;
 433:sieve_extend.c ****     counter_t step  = prime * 2 + 1;
 434:sieve_extend.c **** 
 435:sieve_extend.c ****     debug printf("Block strip for block %ju - %ju\n",(uintmax_t)block_start,(uintmax_t)block_stop);
 436:sieve_extend.c ****     
 437:sieve_extend.c ****     while (prime*step <= block_stop) {
 438:sieve_extend.c ****         if likely(block_start >= (prime + 1)) 
 439:sieve_extend.c ****             start = block_start + prime + prime - ((block_start + prime) % step);
 440:sieve_extend.c ****         else 
 441:sieve_extend.c ****             start = prime * prime * 2 + prime * 2;
 442:sieve_extend.c **** 
 443:sieve_extend.c ****         if unlikely(step < VECTORSTEP_FASTER) {
 444:sieve_extend.c ****             setBitsTrue_largeRange_vector(bitstorage, start, step, block_stop);
 445:sieve_extend.c ****             prime = searchBitFalse(bitstorage, prime+1 );
 446:sieve_extend.c ****         }
 447:sieve_extend.c ****         else {
 448:sieve_extend.c ****             setBitsTrue_largeRange(bitstorage, start, step, block_stop);
 449:sieve_extend.c ****             prime = searchBitFalse_longRange(bitstorage, prime+1 );
 450:sieve_extend.c ****         }
 451:sieve_extend.c **** 
 452:sieve_extend.c ****         step  = prime * 2 + 1;
 453:sieve_extend.c ****     }
 454:sieve_extend.c **** }
 455:sieve_extend.c **** 
 456:sieve_extend.c **** // structure to help sieve_block_extend report back to the main module
 457:sieve_extend.c **** struct block {
 458:sieve_extend.c ****     counter_t pattern_size; // size of pattern applied 
 459:sieve_extend.c ****     counter_t pattern_start; // start of pattern
 460:sieve_extend.c ****     counter_t prime; // next prime to be striped
 461:sieve_extend.c **** };
 462:sieve_extend.c **** 
 463:sieve_extend.c **** // returns prime that could not be handled:
 464:sieve_extend.c **** // start is too large
 465:sieve_extend.c **** // range is too big
 466:sieve_extend.c **** static struct block sieve_block_extend(struct sieve_t *sieve, const counter_t block_start, const co
GAS LISTING /tmp/ccG38KJh.s 			page 29


 467:sieve_extend.c ****     bitword_t* bitstorage      = sieve->bitstorage;
 468:sieve_extend.c ****     register counter_t prime   = 0;
 469:sieve_extend.c ****     counter_t patternsize_bits = 1;
 470:sieve_extend.c ****     counter_t pattern_start    = 0;
 471:sieve_extend.c ****     counter_t range_stop       = block_start;
 472:sieve_extend.c ****     struct block block = { .prime = 0, .pattern_start = 0, .pattern_size = 0 };
 473:sieve_extend.c **** 
 474:sieve_extend.c ****     sieve->bitstorage[wordindex(block_start)] = SAFE_ZERO; // only the first word has to be cleared
 475:sieve_extend.c ****     
 476:sieve_extend.c ****     for (;range_stop < block_stop;) {
 477:sieve_extend.c ****         prime = searchBitFalse(bitstorage, prime+1);
 478:sieve_extend.c ****         counter_t start = prime * prime * 2 + prime * 2;
 479:sieve_extend.c ****         if unlikely(start > block_stop) break;
 480:sieve_extend.c **** 
 481:sieve_extend.c ****         const counter_t step  = prime * 2 + 1;
 482:sieve_extend.c ****         if (block_start >= (prime + 1)) start = block_start + prime + prime - ((block_start + prime
 483:sieve_extend.c **** 
 484:sieve_extend.c ****         range_stop = block_start + patternsize_bits * step * 2;  // range is x2 so the second block
 485:sieve_extend.c ****         block.pattern_size = patternsize_bits;
 486:sieve_extend.c ****         block.pattern_start = pattern_start;
 487:sieve_extend.c ****         if unlikely(range_stop > block_stop) break;//return block; //range_stop = block_stop;
 488:sieve_extend.c **** 
 489:sieve_extend.c ****         if likely(patternsize_bits>1) {
 490:sieve_extend.c ****             pattern_start = block_start | patternsize_bits;
 491:sieve_extend.c ****             continuePattern(bitstorage, pattern_start, patternsize_bits, range_stop);
 492:sieve_extend.c ****         }
 493:sieve_extend.c ****         patternsize_bits *= step;
 494:sieve_extend.c **** 
 495:sieve_extend.c ****         if (step < MEDIUMSTEP_FASTER)      setBitsTrue_mediumStep(bitstorage, start, step, range_st
 496:sieve_extend.c ****         else if (step < VECTORSTEP_FASTER) setBitsTrue_largeRange_vector(bitstorage, start, step, r
 497:sieve_extend.c ****         else                               setBitsTrue_largeRange(bitstorage, start, step, range_st
 498:sieve_extend.c ****         block.prime = prime;
 499:sieve_extend.c ****     } 
 500:sieve_extend.c **** 
 501:sieve_extend.c ****     return block;
 502:sieve_extend.c **** }
 503:sieve_extend.c **** 
 504:sieve_extend.c **** 
 505:sieve_extend.c **** /* This is the main module that does all the work*/
 506:sieve_extend.c **** static struct sieve_t* sieve_shake(const counter_t maxints, const counter_t blocksize) {
 507:sieve_extend.c ****     struct sieve_t *sieve = sieve_create(maxints);
 508:sieve_extend.c ****     bitword_t* bitstorage = sieve->bitstorage;
 509:sieve_extend.c **** 
 510:sieve_extend.c ****     debug printf("Running sieve to find all primes up to %ju with blocksize %ju\n",(uintmax_t)maxin
 511:sieve_extend.c **** 
 512:sieve_extend.c ****     // fill the whole sieve bij adding en copying incrementally
 513:sieve_extend.c ****     struct block block = sieve_block_extend(sieve, 0, sieve->bits);
 514:sieve_extend.c **** 
 515:sieve_extend.c ****     // returns the max prime that was processed in the pattern
 516:sieve_extend.c ****     counter_t startprime = block.prime;
 517:sieve_extend.c **** 
 518:sieve_extend.c ****     // continue the found pattern to the entire sieve
 519:sieve_extend.c ****     continuePattern(bitstorage, block.pattern_start, block.pattern_size, sieve->bits);
 520:sieve_extend.c **** 
 521:sieve_extend.c ****     // in the sieve all bits for the multiples of primes up to startprime have been set
 522:sieve_extend.c ****     // process the sieve and stripe all the multiples of primes > start_prime
 523:sieve_extend.c ****     // do this block by block to minimize cache misses
GAS LISTING /tmp/ccG38KJh.s 			page 30


 524:sieve_extend.c ****     for (counter_t block_start = 0,  block_stop = blocksize-1;block_start <= sieve->bits; block_sta
 525:sieve_extend.c ****         if unlikely(block_stop > sieve->bits) block_stop = sieve->bits;
 526:sieve_extend.c ****         counter_t prime = searchBitFalse(bitstorage, startprime);
 527:sieve_extend.c ****         sieve_block_stripe(bitstorage, block_start, block_stop, prime);
 528:sieve_extend.c ****     } 
 529:sieve_extend.c **** 
 530:sieve_extend.c ****     // retunr the completed sieve
 531:sieve_extend.c ****     return sieve;
 532:sieve_extend.c **** }
 533:sieve_extend.c **** 
 534:sieve_extend.c **** static void show_primes(struct sieve_t *sieve, counter_t maxFactor) {
 535:sieve_extend.c ****     counter_t primeCount = 1;    // We already have 2
 536:sieve_extend.c ****     for (counter_t factor=1; factor < sieve->bits; factor = searchBitFalse(sieve->bitstorage, facto
 537:sieve_extend.c ****         primeCount++;
 538:sieve_extend.c ****         if (factor < maxFactor/2) {
 539:sieve_extend.c ****             printf("%3ju ",(uintmax_t)factor*2+1);
 540:sieve_extend.c ****             if (primeCount % 10 == 0) printf("\n");
 541:sieve_extend.c ****         }
 542:sieve_extend.c ****     }
 543:sieve_extend.c ****     printf("\nFound %ju primes until %ju\n",(uintmax_t)primeCount, (uintmax_t)sieve->bits*2+1);
 544:sieve_extend.c **** }
 545:sieve_extend.c **** 
 546:sieve_extend.c **** static counter_t count_primes(struct sieve_t *sieve) {
 547:sieve_extend.c ****     counter_t primeCount = 1;
 548:sieve_extend.c ****     for (counter_t factor=1; factor < sieve->bits; factor = searchBitFalse(sieve->bitstorage, facto
 549:sieve_extend.c ****     return primeCount;
 550:sieve_extend.c **** }
 551:sieve_extend.c **** 
 552:sieve_extend.c **** static void deepAnalyzePrimes(struct sieve_t *sieve) {
 553:sieve_extend.c ****     printf("DeepAnalyzing\n");
 554:sieve_extend.c ****     counter_t warn_prime = 0;
 555:sieve_extend.c ****     counter_t warn_nonprime = 0;
 556:sieve_extend.c ****     for (counter_t prime = 1; prime < sieve->bits; prime++ ) {
 557:sieve_extend.c ****         if ((sieve->bitstorage[wordindex(prime)] & markmask_calc(prime))==0) { // is this a prime?
 558:sieve_extend.c ****             for(counter_t c=1; c<=sieve->bits && c*c <= prime*2+1; c++) {
 559:sieve_extend.c ****                 if ((prime*2+1) % (c*2+1) == 0 && (c*2+1) != (prime*2+1)) {
 560:sieve_extend.c ****                     if (warn_prime++ < 30) printf("Number %ju (%ju) was marked prime, but %ju * %ju
 561:sieve_extend.c ****                 }
 562:sieve_extend.c ****             }
 563:sieve_extend.c ****         }
 564:sieve_extend.c ****         else {
 565:sieve_extend.c ****             counter_t c_prime = 0;
 566:sieve_extend.c ****             for(counter_t c=1; c<=sieve->bits && c*c <= prime*2+1; c++) {
 567:sieve_extend.c ****                 if ((prime*2+1) % (c*2+1) == 0 && (c*2+1) != (prime*2+1)) c_prime++;
 568:sieve_extend.c ****             }
 569:sieve_extend.c ****             if (c_prime==0 && warn_nonprime++ < 30) printf("Number %ju (%ju) was marked non-prime, 
 570:sieve_extend.c ****         }
 571:sieve_extend.c ****     }
 572:sieve_extend.c **** }
 573:sieve_extend.c **** 
 574:sieve_extend.c **** 
 575:sieve_extend.c **** int validatePrimeCount(struct sieve_t *sieve, int option_verboselevel) {
 576:sieve_extend.c **** 
 577:sieve_extend.c ****     counter_t primecount = count_primes(sieve);
 578:sieve_extend.c ****     counter_t valid_primes = 0;
 579:sieve_extend.c ****     switch(sieve->size) {
 580:sieve_extend.c ****         case 10:            valid_primes = 4;        break;
GAS LISTING /tmp/ccG38KJh.s 			page 31


 581:sieve_extend.c ****         case 100:           valid_primes = 25;       break;
 582:sieve_extend.c ****         case 1000:          valid_primes = 168;      break;
 583:sieve_extend.c ****         case 10000:         valid_primes = 1229;     break;
 584:sieve_extend.c ****         case 100000:        valid_primes = 9592;     break;
 585:sieve_extend.c ****         case 1000000:       valid_primes = 78498;    break;
 586:sieve_extend.c ****         case 10000000:      valid_primes = 664579;   break;
 587:sieve_extend.c ****         case 100000000:     valid_primes = 5761455;  break;
 588:sieve_extend.c ****         case 1000000000:    valid_primes = 50847534; break;
 589:sieve_extend.c ****         default:            valid_primes= 0;
 590:sieve_extend.c ****     }
 591:sieve_extend.c **** 
 592:sieve_extend.c ****     int valid = (valid_primes == primecount);
 593:sieve_extend.c ****     if (valid  && option_verboselevel >= 4) printf("Result: Sievesize %ju is expected to have %ju p
 594:sieve_extend.c ****     if (!valid && option_verboselevel >= 1) {
 595:sieve_extend.c ****         printf("No valid result. Sievesize %ju was expected to have %ju primes, but algorithm produ
 596:sieve_extend.c ****         if (!valid && option_verboselevel >= 2) show_primes(sieve, default_show_primes_on_error);
 597:sieve_extend.c ****     }
 598:sieve_extend.c ****     if (!valid && option_verboselevel >= 2) deepAnalyzePrimes(sieve);
 599:sieve_extend.c ****     return (valid);
 600:sieve_extend.c **** }
 601:sieve_extend.c **** 
 602:sieve_extend.c **** void usage(char *name) {
 603:sieve_extend.c ****     fprintf(stderr, "Usage: %s [options] [maximum]\n", name);
 604:sieve_extend.c ****     fprintf(stderr, "Options:\n");
 605:sieve_extend.c ****     fprintf(stderr, "  --check            check the correctness of the algorithm\n");
 606:sieve_extend.c ****     fprintf(stderr, "  --help             This help function\n");
 607:sieve_extend.c ****     fprintf(stderr, "  --show <maximum>   Show the primes found up to the maximum\n");
 608:sieve_extend.c ****     #ifdef _OPENMP
 609:sieve_extend.c ****     fprintf(stderr, "  --threads <count>  Set the maximum number of threads to be used\n");
 610:sieve_extend.c ****     fprintf(stderr, "                     Use 'all' to use all available threads or 'half' for /2 (
 611:sieve_extend.c ****     #endif
 612:sieve_extend.c ****     fprintf(stderr, "  --time  <seconds>  The maximum time (in seconds) to run passes of the sieve 
 613:sieve_extend.c ****     fprintf(stderr, "  --tune  <level>    find the best settings for the current os and hardware\n"
 614:sieve_extend.c ****     fprintf(stderr, "                     1 - fast tuning\n");
 615:sieve_extend.c ****     fprintf(stderr, "                     2 - refined tuning\n");
 616:sieve_extend.c ****     fprintf(stderr, "                     3 - maximum tuning (takes long)\n");
 617:sieve_extend.c ****     fprintf(stderr, "  --verbose <level>  Show more output to a certain level:\n");
 618:sieve_extend.c ****     fprintf(stderr, "                     1 - show phase progress\n");
 619:sieve_extend.c ****     fprintf(stderr, "                     2 - show general progress within the phase\n");
 620:sieve_extend.c ****     fprintf(stderr, "                     3 - show actual work\n");
 621:sieve_extend.c ****     exit(1);
 622:sieve_extend.c **** }
 623:sieve_extend.c **** 
 624:sieve_extend.c **** typedef struct  {
 625:sieve_extend.c ****     counter_t maxints;
 626:sieve_extend.c ****     counter_t blocksize_bits;
 627:sieve_extend.c ****     counter_t blocksize_kb;
 628:sieve_extend.c ****     counter_t free_bits;
 629:sieve_extend.c ****     counter_t smallstep_faster;
 630:sieve_extend.c ****     counter_t mediumstep_faster;
 631:sieve_extend.c ****     counter_t vectorstep_faster;
 632:sieve_extend.c ****     counter_t threads;
 633:sieve_extend.c ****     counter_t sample_max;
 634:sieve_extend.c ****     double    sample_duration;
 635:sieve_extend.c ****     counter_t passes;
 636:sieve_extend.c ****     double    elapsed_time;
 637:sieve_extend.c ****     double    avg;
GAS LISTING /tmp/ccG38KJh.s 			page 32


 638:sieve_extend.c **** } tuning_result_type;
 639:sieve_extend.c **** 
 640:sieve_extend.c **** int compare_tuning_result(const void *a, const void *b) {
 924              		.loc 1 640 57 is_stmt 1 view -0
 925              		.cfi_startproc
 926              		.loc 1 640 57 is_stmt 0 view .LVU253
 927 0530 F30F1EFA 		endbr64	
 641:sieve_extend.c ****     tuning_result_type *resultA = (tuning_result_type *)a;
 928              		.loc 1 641 5 is_stmt 1 view .LVU254
 929              	.LVL47:
 642:sieve_extend.c ****     tuning_result_type *resultB = (tuning_result_type *)b;
 930              		.loc 1 642 5 view .LVU255
 643:sieve_extend.c ****     return (resultB->avg > resultA->avg ? 1 : -1);
 931              		.loc 1 643 5 view .LVU256
 932              	# sieve_extend.c:643:     return (resultB->avg > resultA->avg ? 1 : -1);
 933              		.loc 1 643 45 is_stmt 0 view .LVU257
 934 0534 C5FB1046 		vmovsd	xmm0, QWORD PTR 96[rsi]	# MEM[(struct tuning_result_type *)b_5(D)].avg, MEM[(struct tuning_
 934      60
 935 0539 31C0     		xor	eax, eax	# <retval>
 936 053b C5F92F47 		vcomisd	xmm0, QWORD PTR 96[rdi]	# MEM[(struct tuning_result_type *)b_5(D)].avg, MEM[(struct tuning
 936      60
 937 0540 0F97C0   		seta	al	#, <retval>
 938 0543 8D4400FF 		lea	eax, -1[rax+rax]	# <retval>,
 939              	# sieve_extend.c:644: }
 644:sieve_extend.c **** }
 940              		.loc 1 644 1 view .LVU258
 941 0547 C3       		ret	
 942              		.cfi_endproc
 943              	.LFE73:
 945 0548 0F1F8400 		.p2align 4
 945      00000000 
 947              	tune_benchmark:
 948              	.LVL48:
 949              	.LFB74:
 645:sieve_extend.c **** 
 646:sieve_extend.c **** static void tune_benchmark(tuning_result_type* tuning_result, counter_t tuning_result_index) {
 950              		.loc 1 646 94 is_stmt 1 view -0
 951              		.cfi_startproc
 952              		.loc 1 646 94 is_stmt 0 view .LVU260
 953 0550 4155     		push	r13	#
 954              		.cfi_def_cfa_offset 16
 955              		.cfi_offset 13, -16
 956 0552 4154     		push	r12	#
 957              		.cfi_def_cfa_offset 24
 958              		.cfi_offset 12, -24
 959 0554 4989F4   		mov	r12, rsi	# tuning_result_index, tmp119
 960 0557 55       		push	rbp	#
 961              		.cfi_def_cfa_offset 32
 962              		.cfi_offset 6, -32
 963 0558 4889FD   		mov	rbp, rdi	# tuning_result, tmp118
 964 055b 53       		push	rbx	#
 965              		.cfi_def_cfa_offset 40
 966              		.cfi_offset 3, -40
 967              	# sieve_extend.c:652:     global_SMALLSTEP_FASTER = tuning_result[tuning_result_index].smallstep_fa
 647:sieve_extend.c ****     counter_t passes = 0;
 648:sieve_extend.c ****     double elapsed_time = 0;
 649:sieve_extend.c ****     struct timespec start_time,end_time;
GAS LISTING /tmp/ccG38KJh.s 			page 33


 650:sieve_extend.c ****     struct sieve_t *sieve;
 651:sieve_extend.c **** 
 652:sieve_extend.c ****     global_SMALLSTEP_FASTER = tuning_result[tuning_result_index].smallstep_faster;
 968              		.loc 1 652 44 view .LVU261
 969 055c 486BDE68 		imul	rbx, rsi, 104	# tmp98, tuning_result_index,
 970              	# sieve_extend.c:646: static void tune_benchmark(tuning_result_type* tuning_result, counter_t tunin
 646:sieve_extend.c ****     counter_t passes = 0;
 971              		.loc 1 646 94 view .LVU262
 972 0560 4883EC68 		sub	rsp, 104	#,
 973              		.cfi_def_cfa_offset 144
 974              	# sieve_extend.c:652:     global_SMALLSTEP_FASTER = tuning_result[tuning_result_index].smallstep_fa
 975              		.loc 1 652 44 view .LVU263
 976 0564 4801FB   		add	rbx, rdi	# _2, tuning_result
 977              	# sieve_extend.c:646: static void tune_benchmark(tuning_result_type* tuning_result, counter_t tunin
 646:sieve_extend.c ****     counter_t passes = 0;
 978              		.loc 1 646 94 view .LVU264
 979 0567 64488B04 		mov	rax, QWORD PTR fs:40	# tmp124, MEM[(<address-space-1> long unsigned int *)40B]
 979      25280000 
 979      00
 980 0570 48894424 		mov	QWORD PTR 88[rsp], rax	# D.6902, tmp124
 980      58
 981 0575 31C0     		xor	eax, eax	# tmp124
 647:sieve_extend.c ****     counter_t passes = 0;
 982              		.loc 1 647 5 is_stmt 1 view .LVU265
 983              	.LVL49:
 648:sieve_extend.c ****     struct timespec start_time,end_time;
 984              		.loc 1 648 5 view .LVU266
 649:sieve_extend.c ****     struct sieve_t *sieve;
 985              		.loc 1 649 5 view .LVU267
 650:sieve_extend.c **** 
 986              		.loc 1 650 5 view .LVU268
 987              		.loc 1 652 5 view .LVU269
 988              	# sieve_extend.c:653:     global_MEDIUMSTEP_FASTER = tuning_result[tuning_result_index].mediumstep_
 653:sieve_extend.c ****     global_MEDIUMSTEP_FASTER = tuning_result[tuning_result_index].mediumstep_faster;
 989              		.loc 1 653 30 is_stmt 0 view .LVU270
 990 0577 488B5328 		mov	rdx, QWORD PTR 40[rbx]	# _2->mediumstep_faster, _2->mediumstep_faster
 991              	# sieve_extend.c:654:     global_VECTORSTEP_FASTER = tuning_result[tuning_result_index].vectorstep_
 654:sieve_extend.c ****     global_VECTORSTEP_FASTER = tuning_result[tuning_result_index].vectorstep_faster;
 992              		.loc 1 654 30 view .LVU271
 993 057b 488B4B30 		mov	rcx, QWORD PTR 48[rbx]	# _2->vectorstep_faster, _2->vectorstep_faster
 994              	# sieve_extend.c:652:     global_SMALLSTEP_FASTER = tuning_result[tuning_result_index].smallstep_fa
 652:sieve_extend.c ****     global_MEDIUMSTEP_FASTER = tuning_result[tuning_result_index].mediumstep_faster;
 995              		.loc 1 652 29 view .LVU272
 996 057f 488B4320 		mov	rax, QWORD PTR 32[rbx]	# _2->smallstep_faster, _2->smallstep_faster
 997              	# sieve_extend.c:656:     clock_gettime(CLOCK_MONOTONIC,&start_time);
 655:sieve_extend.c **** 
 656:sieve_extend.c ****     clock_gettime(CLOCK_MONOTONIC,&start_time);
 998              		.loc 1 656 5 view .LVU273
 999 0583 4989E5   		mov	r13, rsp	# tmp102,
 1000 0586 4C89EE   		mov	rsi, r13	#, tmp102
 1001              	.LVL50:
 1002              		.loc 1 656 5 view .LVU274
 1003 0589 BF010000 		mov	edi, 1	#,
 1003      00
 1004              	.LVL51:
 1005              	# sieve_extend.c:653:     global_MEDIUMSTEP_FASTER = tuning_result[tuning_result_index].mediumstep_
 653:sieve_extend.c ****     global_VECTORSTEP_FASTER = tuning_result[tuning_result_index].vectorstep_faster;
GAS LISTING /tmp/ccG38KJh.s 			page 34


 1006              		.loc 1 653 30 view .LVU275
 1007 058e 48891500 		mov	QWORD PTR global_MEDIUMSTEP_FASTER[rip], rdx	# global_MEDIUMSTEP_FASTER, _2->mediumstep_faster
 1007      000000
 1008              	# sieve_extend.c:654:     global_VECTORSTEP_FASTER = tuning_result[tuning_result_index].vectorstep_
 654:sieve_extend.c **** 
 1009              		.loc 1 654 30 view .LVU276
 1010 0595 48890D00 		mov	QWORD PTR global_VECTORSTEP_FASTER[rip], rcx	# global_VECTORSTEP_FASTER, _2->vectorstep_faster
 1010      000000
 1011              	# sieve_extend.c:652:     global_SMALLSTEP_FASTER = tuning_result[tuning_result_index].smallstep_fa
 652:sieve_extend.c ****     global_MEDIUMSTEP_FASTER = tuning_result[tuning_result_index].mediumstep_faster;
 1012              		.loc 1 652 29 view .LVU277
 1013 059c 48890500 		mov	QWORD PTR global_SMALLSTEP_FASTER[rip], rax	# global_SMALLSTEP_FASTER, _2->smallstep_faster
 1013      000000
 653:sieve_extend.c ****     global_VECTORSTEP_FASTER = tuning_result[tuning_result_index].vectorstep_faster;
 1014              		.loc 1 653 5 is_stmt 1 view .LVU278
 654:sieve_extend.c **** 
 1015              		.loc 1 654 5 view .LVU279
 1016              		.loc 1 656 5 view .LVU280
 1017 05a3 E8000000 		call	clock_gettime@PLT	#
 1017      00
 1018              	.LVL52:
 657:sieve_extend.c ****     #ifdef _OPENMP
 658:sieve_extend.c ****     omp_set_num_threads(tuning_result[tuning_result_index].threads);
 1019              		.loc 1 658 5 view .LVU281
 1020 05a8 8B7B38   		mov	edi, DWORD PTR 56[rbx]	#, _2->threads
 1021 05ab E8000000 		call	omp_set_num_threads@PLT	#
 1021      00
 1022              	.LVL53:
 1023              	.LBB376:
 1024              	# sieve_extend.c:659:     #pragma omp parallel reduction(+:passes)
 659:sieve_extend.c ****     #pragma omp parallel reduction(+:passes)
 1025              		.loc 1 659 13 is_stmt 0 view .LVU282
 1026 05b0 488D7424 		lea	rsi, 16[rsp]	# tmp106,
 1026      10
 1027 05b5 48897424 		mov	QWORD PTR 64[rsp], rsi	# .omp_data_o.90.end_time, tmp106
 1027      40
 1028 05ba 31C9     		xor	ecx, ecx	#
 1029 05bc 31D2     		xor	edx, edx	#
 1030 05be 488D3D7B 		lea	rdi, tune_benchmark._omp_fn.0[rip]	#,
 1030      3A0000
 1031 05c5 488D7424 		lea	rsi, 32[rsp]	# tmp107,
 1031      20
 1032 05ca 48C74424 		mov	QWORD PTR 80[rsp], 0	# .omp_data_o.90.passes,
 1032      50000000 
 1032      00
 1033 05d3 4C896424 		mov	QWORD PTR 40[rsp], r12	# .omp_data_o.90.tuning_result_index, tuning_result_index
 1033      28
 1034 05d8 48896C24 		mov	QWORD PTR 32[rsp], rbp	# .omp_data_o.90.tuning_result, tuning_result
 1034      20
 1035 05dd 48C74424 		mov	QWORD PTR 48[rsp], 0x000000000	# .omp_data_o.90.elapsed_time,
 1035      30000000 
 1035      00
 1036 05e6 4C896C24 		mov	QWORD PTR 56[rsp], r13	# .omp_data_o.90.start_time, tmp102
 1036      38
 1037 05eb 48C74424 		mov	QWORD PTR 72[rsp], 0	# .omp_data_o.90.sieve,
 1037      48000000 
 1037      00
GAS LISTING /tmp/ccG38KJh.s 			page 35


 1038 05f4 E8000000 		call	GOMP_parallel@PLT	#
 1038      00
 1039              	.LVL54:
 1040 05f9 488B7C24 		mov	rdi, QWORD PTR 80[rsp]	# passes, .omp_data_o.90.passes
 1040      50
 1041              	.LVL55:
 1042              		.loc 1 659 13 view .LVU283
 1043 05fe C5FB104C 		vmovsd	xmm1, QWORD PTR 48[rsp]	# elapsed_time, .omp_data_o.90.elapsed_time
 1043      2430
 1044              	.LVL56:
 1045              		.loc 1 659 13 view .LVU284
 1046              	.LBE376:
 660:sieve_extend.c ****     #endif
 661:sieve_extend.c ****     while (elapsed_time <= tuning_result[tuning_result_index].sample_duration && passes < tuning_re
 662:sieve_extend.c ****         sieve = sieve_shake(tuning_result[tuning_result_index].maxints, tuning_result[tuning_result
 663:sieve_extend.c ****         sieve_delete(sieve);
 664:sieve_extend.c ****         passes++;
 665:sieve_extend.c ****         clock_gettime(CLOCK_MONOTONIC,&end_time);
 666:sieve_extend.c ****         elapsed_time = end_time.tv_sec + end_time.tv_nsec*1e-9 - start_time.tv_sec - start_time.tv_
 667:sieve_extend.c ****     }
 668:sieve_extend.c ****     tuning_result[tuning_result_index].passes = passes;
 1047              		.loc 1 668 5 is_stmt 1 view .LVU285
 1048              	# sieve_extend.c:670:     tuning_result[tuning_result_index].avg = passes/elapsed_time;
 669:sieve_extend.c ****     tuning_result[tuning_result_index].elapsed_time = elapsed_time;
 670:sieve_extend.c ****     tuning_result[tuning_result_index].avg = passes/elapsed_time;
 1049              		.loc 1 670 52 is_stmt 0 view .LVU286
 1050 0604 4885FF   		test	rdi, rdi	# passes
 1051              	# sieve_extend.c:668:     tuning_result[tuning_result_index].passes = passes;
 668:sieve_extend.c ****     tuning_result[tuning_result_index].elapsed_time = elapsed_time;
 1052              		.loc 1 668 47 view .LVU287
 1053 0607 48897B50 		mov	QWORD PTR 80[rbx], rdi	# _2->passes, passes
 669:sieve_extend.c ****     tuning_result[tuning_result_index].elapsed_time = elapsed_time;
 1054              		.loc 1 669 5 is_stmt 1 view .LVU288
 1055              		.loc 1 670 5 view .LVU289
 1056              	# sieve_extend.c:670:     tuning_result[tuning_result_index].avg = passes/elapsed_time;
 1057              		.loc 1 670 52 is_stmt 0 view .LVU290
 1058 060b C5F857C0 		vxorps	xmm0, xmm0, xmm0	# tmp120
 1059 060f 782F     		js	.L42	#,
 1060 0611 C4E1FB2A 		vcvtsi2sd	xmm3, xmm0, rdi	# tmp121, tmp120, passes
 1060      DF
 1061              	.LVL57:
 1062              	.L43:
 1063              		.loc 1 670 52 view .LVU291
 1064 0616 C5E35EE1 		vdivsd	xmm4, xmm3, xmm1	# tmp113, tmp109, elapsed_time
 1065              	# sieve_extend.c:669:     tuning_result[tuning_result_index].elapsed_time = elapsed_time;
 669:sieve_extend.c ****     tuning_result[tuning_result_index].elapsed_time = elapsed_time;
 1066              		.loc 1 669 53 view .LVU292
 1067 061a C5F114EC 		vunpcklpd	xmm5, xmm1, xmm4	# tmp108, elapsed_time, tmp113
 1068 061e C5F8116B 		vmovups	XMMWORD PTR 88[rbx], xmm5	# MEM[(double *)_2 + 88B], tmp108
 1068      58
 1069              	# sieve_extend.c:671: }
 671:sieve_extend.c **** }
 1070              		.loc 1 671 1 view .LVU293
 1071 0623 488B4424 		mov	rax, QWORD PTR 88[rsp]	# tmp125, D.6902
 1071      58
 1072 0628 64483304 		xor	rax, QWORD PTR fs:40	# tmp125, MEM[(<address-space-1> long unsigned int *)40B]
 1072      25280000 
GAS LISTING /tmp/ccG38KJh.s 			page 36


 1072      00
 1073 0631 7524     		jne	.L47	#,
 1074 0633 4883C468 		add	rsp, 104	#,
 1075              		.cfi_remember_state
 1076              		.cfi_def_cfa_offset 40
 1077 0637 5B       		pop	rbx	#
 1078              		.cfi_def_cfa_offset 32
 1079 0638 5D       		pop	rbp	#
 1080              		.cfi_def_cfa_offset 24
 1081              	.LVL58:
 1082              		.loc 1 671 1 view .LVU294
 1083 0639 415C     		pop	r12	#
 1084              		.cfi_def_cfa_offset 16
 1085              	.LVL59:
 1086              		.loc 1 671 1 view .LVU295
 1087 063b 415D     		pop	r13	#
 1088              		.cfi_def_cfa_offset 8
 1089 063d C3       		ret	
 1090              	.LVL60:
 1091 063e 6690     		.p2align 4,,10
 1092              		.p2align 3
 1093              	.L42:
 1094              		.cfi_restore_state
 1095              	# sieve_extend.c:670:     tuning_result[tuning_result_index].avg = passes/elapsed_time;
 670:sieve_extend.c **** }
 1096              		.loc 1 670 52 view .LVU296
 1097 0640 4989F8   		mov	r8, rdi	# tmp111, passes
 1098 0643 49D1E8   		shr	r8	# tmp111
 1099 0646 83E701   		and	edi, 1	# tmp112,
 1100              	.LVL61:
 670:sieve_extend.c **** }
 1101              		.loc 1 670 52 view .LVU297
 1102 0649 4C09C7   		or	rdi, r8	# tmp117, tmp111
 1103 064c C4E1FB2A 		vcvtsi2sd	xmm2, xmm0, rdi	# tmp122, tmp120, tmp117
 1103      D7
 1104 0651 C5EB58DA 		vaddsd	xmm3, xmm2, xmm2	# tmp109, tmp110, tmp110
 1105 0655 EBBF     		jmp	.L43	#
 1106              	.L47:
 1107              	# sieve_extend.c:671: }
 1108              		.loc 1 671 1 view .LVU298
 1109 0657 E8000000 		call	__stack_chk_fail@PLT	#
 1109      00
 1110              	.LVL62:
 1111              		.loc 1 671 1 view .LVU299
 1112              		.cfi_endproc
 1113              	.LFE74:
 1115 065c 0F1F4000 		.p2align 4
 1117              	continuePattern_shiftright:
 1118              	.LVL63:
 1119              	.LFB61:
 332:sieve_extend.c ****     debug printf("Extending sieve size %ju in %ju bit range (%ju-%ju) using shiftright (%ju copies)
 1120              		.loc 1 332 149 is_stmt 1 view -0
 1121              		.cfi_startproc
 333:sieve_extend.c ****    
 1122              		.loc 1 333 5 view .LVU301
 335:sieve_extend.c ****     const counter_t copy_start = source_start + size;
 1123              		.loc 1 335 5 view .LVU302
GAS LISTING /tmp/ccG38KJh.s 			page 37


 1124              	# sieve_extend.c:332: static void continuePattern_shiftright(bitword_t* bitstorage, const counter_t
 332:sieve_extend.c ****     debug printf("Extending sieve size %ju in %ju bit range (%ju-%ju) using shiftright (%ju copies)
 1125              		.loc 1 332 149 is_stmt 0 view .LVU303
 1126 0660 55       		push	rbp	#
 1127              		.cfi_def_cfa_offset 16
 1128              		.cfi_offset 6, -16
 1129              	# sieve_extend.c:336:     const counter_t copy_start = source_start + size;
 336:sieve_extend.c ****     register const bitshift_t shift = bitindex_calc(copy_start) - bitindex_calc(source_start);
 1130              		.loc 1 336 21 view .LVU304
 1131 0661 4801F2   		add	rdx, rsi	# copy_start, source_start
 1132              	.LVL64:
 1133              	# sieve_extend.c:337:     register const bitshift_t shift = bitindex_calc(copy_start) - bitindex_ca
 337:sieve_extend.c ****     register const bitshift_t shift_flipped = WORD_SIZE_bitshift-shift;
 1134              		.loc 1 337 39 view .LVU305
 1135 0664 4989D2   		mov	r10, rdx	# _4, copy_start
 1136              	# sieve_extend.c:332: static void continuePattern_shiftright(bitword_t* bitstorage, const counter_t
 332:sieve_extend.c ****     debug printf("Extending sieve size %ju in %ju bit range (%ju-%ju) using shiftright (%ju copies)
 1137              		.loc 1 332 149 view .LVU306
 1138 0667 4889E5   		mov	rbp, rsp	#,
 1139              		.cfi_def_cfa_register 6
 1140 066a 4157     		push	r15	#
 1141              	# sieve_extend.c:337:     register const bitshift_t shift = bitindex_calc(copy_start) - bitindex_ca
 337:sieve_extend.c ****     register const bitshift_t shift_flipped = WORD_SIZE_bitshift-shift;
 1142              		.loc 1 337 39 view .LVU307
 1143 066c 4183E23F 		and	r10d, 63	# _4,
 1144              	# sieve_extend.c:337:     register const bitshift_t shift = bitindex_calc(copy_start) - bitindex_ca
 337:sieve_extend.c ****     register const bitshift_t shift_flipped = WORD_SIZE_bitshift-shift;
 1145              		.loc 1 337 67 view .LVU308
 1146 0670 4989F1   		mov	r9, rsi	# _5, source_start
 1147              	# sieve_extend.c:332: static void continuePattern_shiftright(bitword_t* bitstorage, const counter_t
 332:sieve_extend.c ****     debug printf("Extending sieve size %ju in %ju bit range (%ju-%ju) using shiftright (%ju copies)
 1148              		.loc 1 332 149 view .LVU309
 1149 0673 4156     		push	r14	#
 1150              	# sieve_extend.c:339:     register counter_t source_word = wordindex(source_start);
 339:sieve_extend.c ****     register counter_t copy_word = wordindex(copy_start);
 1151              		.loc 1 339 24 view .LVU310
 1152 0675 4889F0   		mov	rax, rsi	# source_start, source_start
 1153 0678 48C1E806 		shr	rax, 6	# source_start,
 1154              	# sieve_extend.c:332: static void continuePattern_shiftright(bitword_t* bitstorage, const counter_t
 332:sieve_extend.c ****     debug printf("Extending sieve size %ju in %ju bit range (%ju-%ju) using shiftright (%ju copies)
 1155              		.loc 1 332 149 view .LVU311
 1156 067c 4155     		push	r13	#
 1157              	# sieve_extend.c:337:     register const bitshift_t shift = bitindex_calc(copy_start) - bitindex_ca
 337:sieve_extend.c ****     register const bitshift_t shift_flipped = WORD_SIZE_bitshift-shift;
 1158              		.loc 1 337 67 view .LVU312
 1159 067e 4183E13F 		and	r9d, 63	# _5,
 1160              	# sieve_extend.c:340:     register counter_t copy_word = wordindex(copy_start);
 340:sieve_extend.c **** 
 1161              		.loc 1 340 24 view .LVU313
 1162 0682 48C1EA06 		shr	rdx, 6	# copy_word,
 1163              	# sieve_extend.c:332: static void continuePattern_shiftright(bitword_t* bitstorage, const counter_t
 332:sieve_extend.c ****     debug printf("Extending sieve size %ju in %ju bit range (%ju-%ju) using shiftright (%ju copies)
 1164              		.loc 1 332 149 view .LVU314
 1165 0686 4154     		push	r12	#
 1166              		.cfi_offset 15, -24
 1167              		.cfi_offset 14, -32
 1168              		.cfi_offset 13, -40
GAS LISTING /tmp/ccG38KJh.s 			page 38


 1169              		.cfi_offset 12, -48
 1170              	# sieve_extend.c:337:     register const bitshift_t shift = bitindex_calc(copy_start) - bitindex_ca
 337:sieve_extend.c ****     register const bitshift_t shift_flipped = WORD_SIZE_bitshift-shift;
 1171              		.loc 1 337 31 view .LVU315
 1172 0688 4D89D4   		mov	r12, r10	# shift, _4
 1173 068b 4D29CC   		sub	r12, r9	# shift, _5
 1174              	# sieve_extend.c:332: static void continuePattern_shiftright(bitword_t* bitstorage, const counter_t
 332:sieve_extend.c ****     debug printf("Extending sieve size %ju in %ju bit range (%ju-%ju) using shiftright (%ju copies)
 1175              		.loc 1 332 149 view .LVU316
 1176 068e 53       		push	rbx	#
 1177              	# sieve_extend.c:342:     bitstorage[copy_word] |= ((bitstorage[source_word] << shift) |  (bitstora
 342:sieve_extend.c ****     if unlikely(++copy_word > destination_stop_word) return; // rapid exit for one word variant
 1178              		.loc 1 342 27 view .LVU317
 1179 068f 4C8D2CD5 		lea	r13, 0[0+rdx*8]	# _6,
 1179      00000000 
 1180              		.cfi_offset 3, -56
 1181              	# sieve_extend.c:342:     bitstorage[copy_word] |= ((bitstorage[source_word] << shift) |  (bitstora
 342:sieve_extend.c ****     if unlikely(++copy_word > destination_stop_word) return; // rapid exit for one word variant
 1182              		.loc 1 342 42 view .LVU318
 1183 0697 488D1CC5 		lea	rbx, 0[0+rax*8]	# _9,
 1183      00000000 
 1184              	# sieve_extend.c:332: static void continuePattern_shiftright(bitword_t* bitstorage, const counter_t
 332:sieve_extend.c ****     debug printf("Extending sieve size %ju in %ju bit range (%ju-%ju) using shiftright (%ju copies)
 1185              		.loc 1 332 149 view .LVU319
 1186 069f 4883E4E0 		and	rsp, -32	#,
 1187              	# sieve_extend.c:338:     register const bitshift_t shift_flipped = WORD_SIZE_bitshift-shift;
 338:sieve_extend.c ****     register counter_t source_word = wordindex(source_start);
 1188              		.loc 1 338 31 view .LVU320
 1189 06a3 4983C140 		add	r9, 64	# tmp193,
 1190              	# sieve_extend.c:342:     bitstorage[copy_word] |= ((bitstorage[source_word] << shift) |  (bitstora
 342:sieve_extend.c ****     if unlikely(++copy_word > destination_stop_word) return; // rapid exit for one word variant
 1191              		.loc 1 342 27 view .LVU321
 1192 06a7 4E8D342F 		lea	r14, [rdi+r13]	# _7,
 1193              	# sieve_extend.c:338:     register const bitshift_t shift_flipped = WORD_SIZE_bitshift-shift;
 338:sieve_extend.c ****     register counter_t source_word = wordindex(source_start);
 1194              		.loc 1 338 31 view .LVU322
 1195 06ab 4D29D1   		sub	r9, r10	# shift_flipped, _4
 1196              	# sieve_extend.c:339:     register counter_t source_word = wordindex(source_start);
 339:sieve_extend.c ****     register counter_t copy_word = wordindex(copy_start);
 1197              		.loc 1 339 24 view .LVU323
 1198 06ae 48894424 		mov	QWORD PTR -8[rsp], rax	# %sfp, source_word
 1198      F8
 1199              	# sieve_extend.c:342:     bitstorage[copy_word] |= ((bitstorage[source_word] << shift) |  (bitstora
 342:sieve_extend.c ****     if unlikely(++copy_word > destination_stop_word) return; // rapid exit for one word variant
 1200              		.loc 1 342 113 view .LVU324
 1201 06b3 48C7C6FF 		mov	rsi, -1	# tmp201,
 1201      FFFFFF
 1202              	.LVL65:
 1203              	# sieve_extend.c:342:     bitstorage[copy_word] |= ((bitstorage[source_word] << shift) |  (bitstora
 342:sieve_extend.c ****     if unlikely(++copy_word > destination_stop_word) return; // rapid exit for one word variant
 1204              		.loc 1 342 42 view .LVU325
 1205 06ba 488D041F 		lea	rax, [rdi+rbx]	# _10,
 1206              	# sieve_extend.c:342:     bitstorage[copy_word] |= ((bitstorage[source_word] << shift) |  (bitstora
 342:sieve_extend.c ****     if unlikely(++copy_word > destination_stop_word) return; // rapid exit for one word variant
 1207              		.loc 1 342 56 view .LVU326
 1208 06be C46299F7 		shlx	r11, QWORD PTR [rax], r12	# tmp195, *_10, shift
 1208      18
GAS LISTING /tmp/ccG38KJh.s 			page 39


 1209              	# sieve_extend.c:342:     bitstorage[copy_word] |= ((bitstorage[source_word] << shift) |  (bitstora
 342:sieve_extend.c ****     if unlikely(++copy_word > destination_stop_word) return; // rapid exit for one word variant
 1210              		.loc 1 342 92 view .LVU327
 1211 06c3 C442B3F7 		shrx	r15, QWORD PTR [r14], r9	# tmp197, *_7, shift_flipped
 1211      3E
 1212              	# sieve_extend.c:342:     bitstorage[copy_word] |= ((bitstorage[source_word] << shift) |  (bitstora
 342:sieve_extend.c ****     if unlikely(++copy_word > destination_stop_word) return; // rapid exit for one word variant
 1213              		.loc 1 342 113 view .LVU328
 1214 06c8 C462A9F7 		shlx	r8, rsi, r10	# tmp200, tmp201, _4
 1214      C6
 1215              	# sieve_extend.c:342:     bitstorage[copy_word] |= ((bitstorage[source_word] << shift) |  (bitstora
 342:sieve_extend.c ****     if unlikely(++copy_word > destination_stop_word) return; // rapid exit for one word variant
 1216              		.loc 1 342 66 view .LVU329
 1217 06cd 4D09DF   		or	r15, r11	# tmp198, tmp195
 1218              	# sieve_extend.c:342:     bitstorage[copy_word] |= ((bitstorage[source_word] << shift) |  (bitstora
 342:sieve_extend.c ****     if unlikely(++copy_word > destination_stop_word) return; // rapid exit for one word variant
 1219              		.loc 1 342 27 view .LVU330
 1220 06d0 4D8B16   		mov	r10, QWORD PTR [r14]	# tmp202, *_7
 1221              	# sieve_extend.c:342:     bitstorage[copy_word] |= ((bitstorage[source_word] << shift) |  (bitstora
 342:sieve_extend.c ****     if unlikely(++copy_word > destination_stop_word) return; // rapid exit for one word variant
 1222              		.loc 1 342 111 view .LVU331
 1223 06d3 4D21F8   		and	r8, r15	# tmp202, tmp198
 1224              	# sieve_extend.c:342:     bitstorage[copy_word] |= ((bitstorage[source_word] << shift) |  (bitstora
 342:sieve_extend.c ****     if unlikely(++copy_word > destination_stop_word) return; // rapid exit for one word variant
 1225              		.loc 1 342 27 view .LVU332
 1226 06d6 4D09C2   		or	r10, r8	# tmp202, tmp202
 1227              	# sieve_extend.c:335:     const counter_t destination_stop_word = wordindex(destination_stop);
 335:sieve_extend.c ****     const counter_t copy_start = source_start + size;
 1228              		.loc 1 335 21 view .LVU333
 1229 06d9 48C1E906 		shr	rcx, 6	# destination_stop_word,
 1230              	.LVL66:
 336:sieve_extend.c ****     register const bitshift_t shift = bitindex_calc(copy_start) - bitindex_calc(source_start);
 1231              		.loc 1 336 5 is_stmt 1 view .LVU334
 337:sieve_extend.c ****     register const bitshift_t shift_flipped = WORD_SIZE_bitshift-shift;
 1232              		.loc 1 337 5 view .LVU335
 338:sieve_extend.c ****     register counter_t source_word = wordindex(source_start);
 1233              		.loc 1 338 5 view .LVU336
 339:sieve_extend.c ****     register counter_t copy_word = wordindex(copy_start);
 1234              		.loc 1 339 5 view .LVU337
 340:sieve_extend.c **** 
 1235              		.loc 1 340 5 view .LVU338
 342:sieve_extend.c ****     if unlikely(++copy_word > destination_stop_word) return; // rapid exit for one word variant
 1236              		.loc 1 342 5 view .LVU339
 1237              	# sieve_extend.c:343:     if unlikely(++copy_word > destination_stop_word) return; // rapid exit fo
 343:sieve_extend.c **** 
 1238              		.loc 1 343 8 is_stmt 0 view .LVU340
 1239 06dd 4C8D5A01 		lea	r11, 1[rdx]	# copy_word,
 1240              	# sieve_extend.c:342:     bitstorage[copy_word] |= ((bitstorage[source_word] << shift) |  (bitstora
 342:sieve_extend.c ****     if unlikely(++copy_word > destination_stop_word) return; // rapid exit for one word variant
 1241              		.loc 1 342 27 view .LVU341
 1242 06e1 4D8916   		mov	QWORD PTR [r14], r10	# *_7, tmp203
 343:sieve_extend.c **** 
 1243              		.loc 1 343 5 is_stmt 1 view .LVU342
 1244              	.LVL67:
 1245              	# sieve_extend.c:343:     if unlikely(++copy_word > destination_stop_word) return; // rapid exit fo
 343:sieve_extend.c **** 
 1246              		.loc 1 343 8 is_stmt 0 view .LVU343
GAS LISTING /tmp/ccG38KJh.s 			page 40


 1247 06e4 4C39D9   		cmp	rcx, r11	# destination_stop_word, copy_word
 1248 06e7 0F823103 		jb	.L141	#,
 1248      0000
 1249 06ed 4C8D7328 		lea	r14, 40[rbx]	# tmp205,
 1250 06f1 4D8D5508 		lea	r10, 8[r13]	# tmp204,
 1251 06f5 4D39F2   		cmp	r10, r14	# tmp204, tmp205
 1252 06f8 4D8D7528 		lea	r14, 40[r13]	# tmp208,
 1253 06fc 410F9DC7 		setge	r15b	#, tmp207
 1254 0700 4C39F3   		cmp	rbx, r14	# _9, tmp208
 1255 0703 410F9DC6 		setge	r14b	#, tmp210
 1256 0707 4508F7   		or	r15b, r14b	# tmp207, tmp210
 1257 070a 4489E6   		mov	esi, r12d	# _12, shift
 1258 070d 4589C8   		mov	r8d, r9d	# _14, shift_flipped
 1259 0710 0F843203 		je	.L50	#,
 1259      0000
 1260 0716 4C8D79FF 		lea	r15, -1[rcx]	# tmp212,
 1261 071a 4929D7   		sub	r15, rdx	# tmp213, copy_word
 1262 071d 4983FF03 		cmp	r15, 3	# tmp213,
 1263 0721 0F862103 		jbe	.L50	#,
 1263      0000
 1264 0727 4989CD   		mov	r13, rcx	# niters.205, destination_stop_word
 1265 072a 4929D5   		sub	r13, rdx	# niters.205, copy_word
 1266 072d 4D89EE   		mov	r14, r13	# bnd.206, niters.205
 1267 0730 49C1EE02 		shr	r14, 2	# bnd.206,
 1268 0734 49C1E605 		sal	r14, 5	# _165,
 1269 0738 498D76E0 		lea	rsi, -32[r14]	# tmp260,
 1270 073c 48C1EE05 		shr	rsi, 5	# tmp258,
 1271 0740 48FFC6   		inc	rsi	# tmp261
 1272 0743 488D5C1F 		lea	rbx, 8[rdi+rbx]	# vectp.215,
 1272      08
 1273 0748 4901FA   		add	r10, rdi	# vectp.220, bitstorage
 1274 074b 31D2     		xor	edx, edx	# ivtmp.237
 1275 074d C4C1796E 		vmovd	xmm1, r9d	# _14, _14
 1275      C9
 1276 0752 C4C1796E 		vmovd	xmm0, r12d	# _12, _12
 1276      C4
 1277 0757 83E607   		and	esi, 7	# tmp262,
 1278 075a 0F841A01 		je	.L51	#,
 1278      0000
 1279 0760 4883FE01 		cmp	rsi, 1	# tmp262,
 1280 0764 0F84E700 		je	.L103	#,
 1280      0000
 1281 076a 4883FE02 		cmp	rsi, 2	# tmp262,
 1282 076e 0F84BD00 		je	.L104	#,
 1282      0000
 1283 0774 4883FE03 		cmp	rsi, 3	# tmp262,
 1284 0778 0F849200 		je	.L105	#,
 1284      0000
 1285 077e 4883FE04 		cmp	rsi, 4	# tmp262,
 1286 0782 746C     		je	.L106	#,
 1287 0784 4883FE05 		cmp	rsi, 5	# tmp262,
 1288 0788 7445     		je	.L107	#,
 1289 078a 4883FE06 		cmp	rsi, 6	# tmp262,
 1290 078e 741E     		je	.L108	#,
 1291              	.LVL68:
 348:sieve_extend.c ****     }
 1292              		.loc 1 348 9 is_stmt 1 view .LVU344
GAS LISTING /tmp/ccG38KJh.s 			page 41


 1293              	# sieve_extend.c:348:         bitstorage[copy_word] = (bitstorage[source_word] >> shift_flipped) | 
 348:sieve_extend.c ****     }
 1294              		.loc 1 348 58 is_stmt 0 view .LVU345
 1295 0790 C5FE6F30 		vmovdqu	ymm6, YMMWORD PTR [rax]	# tmp469, MEM[base: _10, index: ivtmp.237_163, offset: 0B]
 1296              	# sieve_extend.c:348:         bitstorage[copy_word] = (bitstorage[source_word] >> shift_flipped) | 
 348:sieve_extend.c ****     }
 1297              		.loc 1 348 105 view .LVU346
 1298 0794 C5FE6F3B 		vmovdqu	ymm7, YMMWORD PTR [rbx]	# tmp470, MEM[base: vectp.215_117, index: ivtmp.237_163, offset: 0
 1299              	# sieve_extend.c:348:         bitstorage[copy_word] = (bitstorage[source_word] >> shift_flipped) | 
 348:sieve_extend.c ****     }
 1300              		.loc 1 348 58 view .LVU347
 1301 0798 C5CDD3D1 		vpsrlq	ymm2, ymm6, xmm1	# vect__29.213, tmp469, _14
 1302              	# sieve_extend.c:348:         bitstorage[copy_word] = (bitstorage[source_word] >> shift_flipped) | 
 348:sieve_extend.c ****     }
 1303              		.loc 1 348 105 view .LVU348
 1304 079c C5C5F3D8 		vpsllq	ymm3, ymm7, xmm0	# vect__34.217, tmp470, _12
 1305 07a0 BA200000 		mov	edx, 32	# ivtmp.237,
 1305      00
 1306              	# sieve_extend.c:348:         bitstorage[copy_word] = (bitstorage[source_word] >> shift_flipped) | 
 348:sieve_extend.c ****     }
 1307              		.loc 1 348 76 view .LVU349
 1308 07a5 C5EDEBE3 		vpor	ymm4, ymm2, ymm3	# vect__37.218, vect__29.213, vect__34.217
 1309              	# sieve_extend.c:348:         bitstorage[copy_word] = (bitstorage[source_word] >> shift_flipped) | 
 348:sieve_extend.c ****     }
 1310              		.loc 1 348 31 view .LVU350
 1311 07a9 C4C17E7F 		vmovdqu	YMMWORD PTR [r10], ymm4	# MEM[base: vectp.220_125, index: ivtmp.237_163, offset: 0B], vect
 1311      22
 347:sieve_extend.c ****         bitstorage[copy_word] = (bitstorage[source_word] >> shift_flipped) | (bitstorage[source_wor
 1312              		.loc 1 347 48 is_stmt 1 view .LVU351
 347:sieve_extend.c ****         bitstorage[copy_word] = (bitstorage[source_word] >> shift_flipped) | (bitstorage[source_wor
 1313              		.loc 1 347 12 view .LVU352
 1314              	.L108:
 348:sieve_extend.c ****     }
 1315              		.loc 1 348 9 view .LVU353
 1316              	# sieve_extend.c:348:         bitstorage[copy_word] = (bitstorage[source_word] >> shift_flipped) | 
 348:sieve_extend.c ****     }
 1317              		.loc 1 348 58 is_stmt 0 view .LVU354
 1318 07ae C5FE6F2C 		vmovdqu	ymm5, YMMWORD PTR [rax+rdx]	# tmp471, MEM[base: _10, index: ivtmp.237_163, offset: 0B]
 1318      10
 1319              	# sieve_extend.c:348:         bitstorage[copy_word] = (bitstorage[source_word] >> shift_flipped) | 
 348:sieve_extend.c ****     }
 1320              		.loc 1 348 105 view .LVU355
 1321 07b3 C57E6F0C 		vmovdqu	ymm9, YMMWORD PTR [rbx+rdx]	# tmp472, MEM[base: vectp.215_117, index: ivtmp.237_163, offse
 1321      13
 1322              	# sieve_extend.c:348:         bitstorage[copy_word] = (bitstorage[source_word] >> shift_flipped) | 
 348:sieve_extend.c ****     }
 1323              		.loc 1 348 58 view .LVU356
 1324 07b8 C555D3C1 		vpsrlq	ymm8, ymm5, xmm1	# vect__29.213, tmp471, _14
 1325              	# sieve_extend.c:348:         bitstorage[copy_word] = (bitstorage[source_word] >> shift_flipped) | 
 348:sieve_extend.c ****     }
 1326              		.loc 1 348 105 view .LVU357
 1327 07bc C535F3D0 		vpsllq	ymm10, ymm9, xmm0	# vect__34.217, tmp472, _12
 1328              	# sieve_extend.c:348:         bitstorage[copy_word] = (bitstorage[source_word] >> shift_flipped) | 
 348:sieve_extend.c ****     }
 1329              		.loc 1 348 76 view .LVU358
 1330 07c0 C4413DEB 		vpor	ymm11, ymm8, ymm10	# vect__37.218, vect__29.213, vect__34.217
 1330      DA
GAS LISTING /tmp/ccG38KJh.s 			page 42


 1331              	# sieve_extend.c:348:         bitstorage[copy_word] = (bitstorage[source_word] >> shift_flipped) | 
 348:sieve_extend.c ****     }
 1332              		.loc 1 348 31 view .LVU359
 1333 07c5 C4417E7F 		vmovdqu	YMMWORD PTR [r10+rdx], ymm11	# MEM[base: vectp.220_125, index: ivtmp.237_163, offset: 0B],
 1333      1C12
 347:sieve_extend.c ****         bitstorage[copy_word] = (bitstorage[source_word] >> shift_flipped) | (bitstorage[source_wor
 1334              		.loc 1 347 48 is_stmt 1 view .LVU360
 347:sieve_extend.c ****         bitstorage[copy_word] = (bitstorage[source_word] >> shift_flipped) | (bitstorage[source_wor
 1335              		.loc 1 347 12 view .LVU361
 1336 07cb 4883C220 		add	rdx, 32	# ivtmp.237,
 1337              	.L107:
 348:sieve_extend.c ****     }
 1338              		.loc 1 348 9 view .LVU362
 1339              	# sieve_extend.c:348:         bitstorage[copy_word] = (bitstorage[source_word] >> shift_flipped) | 
 348:sieve_extend.c ****     }
 1340              		.loc 1 348 58 is_stmt 0 view .LVU363
 1341 07cf C57E6F24 		vmovdqu	ymm12, YMMWORD PTR [rax+rdx]	# tmp473, MEM[base: _10, index: ivtmp.237_163, offset: 0B]
 1341      10
 1342              	# sieve_extend.c:348:         bitstorage[copy_word] = (bitstorage[source_word] >> shift_flipped) | 
 348:sieve_extend.c ****     }
 1343              		.loc 1 348 105 view .LVU364
 1344 07d4 C57E6F34 		vmovdqu	ymm14, YMMWORD PTR [rbx+rdx]	# tmp474, MEM[base: vectp.215_117, index: ivtmp.237_163, offs
 1344      13
 1345              	# sieve_extend.c:348:         bitstorage[copy_word] = (bitstorage[source_word] >> shift_flipped) | 
 348:sieve_extend.c ****     }
 1346              		.loc 1 348 58 view .LVU365
 1347 07d9 C51DD3E9 		vpsrlq	ymm13, ymm12, xmm1	# vect__29.213, tmp473, _14
 1348              	# sieve_extend.c:348:         bitstorage[copy_word] = (bitstorage[source_word] >> shift_flipped) | 
 348:sieve_extend.c ****     }
 1349              		.loc 1 348 105 view .LVU366
 1350 07dd C50DF3F8 		vpsllq	ymm15, ymm14, xmm0	# vect__34.217, tmp474, _12
 1351              	# sieve_extend.c:348:         bitstorage[copy_word] = (bitstorage[source_word] >> shift_flipped) | 
 348:sieve_extend.c ****     }
 1352              		.loc 1 348 76 view .LVU367
 1353 07e1 C4C115EB 		vpor	ymm6, ymm13, ymm15	# vect__37.218, vect__29.213, vect__34.217
 1353      F7
 1354              	# sieve_extend.c:348:         bitstorage[copy_word] = (bitstorage[source_word] >> shift_flipped) | 
 348:sieve_extend.c ****     }
 1355              		.loc 1 348 31 view .LVU368
 1356 07e6 C4C17E7F 		vmovdqu	YMMWORD PTR [r10+rdx], ymm6	# MEM[base: vectp.220_125, index: ivtmp.237_163, offset: 0B], 
 1356      3412
 347:sieve_extend.c ****         bitstorage[copy_word] = (bitstorage[source_word] >> shift_flipped) | (bitstorage[source_wor
 1357              		.loc 1 347 48 is_stmt 1 view .LVU369
 347:sieve_extend.c ****         bitstorage[copy_word] = (bitstorage[source_word] >> shift_flipped) | (bitstorage[source_wor
 1358              		.loc 1 347 12 view .LVU370
 1359 07ec 4883C220 		add	rdx, 32	# ivtmp.237,
 1360              	.L106:
 348:sieve_extend.c ****     }
 1361              		.loc 1 348 9 view .LVU371
 1362              	# sieve_extend.c:348:         bitstorage[copy_word] = (bitstorage[source_word] >> shift_flipped) | 
 348:sieve_extend.c ****     }
 1363              		.loc 1 348 58 is_stmt 0 view .LVU372
 1364 07f0 C5FE6F14 		vmovdqu	ymm2, YMMWORD PTR [rax+rdx]	# tmp475, MEM[base: _10, index: ivtmp.237_163, offset: 0B]
 1364      10
 1365              	# sieve_extend.c:348:         bitstorage[copy_word] = (bitstorage[source_word] >> shift_flipped) | 
 348:sieve_extend.c ****     }
 1366              		.loc 1 348 105 view .LVU373
GAS LISTING /tmp/ccG38KJh.s 			page 43


 1367 07f5 C5FE6F1C 		vmovdqu	ymm3, YMMWORD PTR [rbx+rdx]	# tmp476, MEM[base: vectp.215_117, index: ivtmp.237_163, offse
 1367      13
 1368              	# sieve_extend.c:348:         bitstorage[copy_word] = (bitstorage[source_word] >> shift_flipped) | 
 348:sieve_extend.c ****     }
 1369              		.loc 1 348 58 view .LVU374
 1370 07fa C5EDD3F9 		vpsrlq	ymm7, ymm2, xmm1	# vect__29.213, tmp475, _14
 1371              	# sieve_extend.c:348:         bitstorage[copy_word] = (bitstorage[source_word] >> shift_flipped) | 
 348:sieve_extend.c ****     }
 1372              		.loc 1 348 105 view .LVU375
 1373 07fe C5E5F3E0 		vpsllq	ymm4, ymm3, xmm0	# vect__34.217, tmp476, _12
 1374              	# sieve_extend.c:348:         bitstorage[copy_word] = (bitstorage[source_word] >> shift_flipped) | 
 348:sieve_extend.c ****     }
 1375              		.loc 1 348 76 view .LVU376
 1376 0802 C5C5EBEC 		vpor	ymm5, ymm7, ymm4	# vect__37.218, vect__29.213, vect__34.217
 1377              	# sieve_extend.c:348:         bitstorage[copy_word] = (bitstorage[source_word] >> shift_flipped) | 
 348:sieve_extend.c ****     }
 1378              		.loc 1 348 31 view .LVU377
 1379 0806 C4C17E7F 		vmovdqu	YMMWORD PTR [r10+rdx], ymm5	# MEM[base: vectp.220_125, index: ivtmp.237_163, offset: 0B], 
 1379      2C12
 347:sieve_extend.c ****         bitstorage[copy_word] = (bitstorage[source_word] >> shift_flipped) | (bitstorage[source_wor
 1380              		.loc 1 347 48 is_stmt 1 view .LVU378
 347:sieve_extend.c ****         bitstorage[copy_word] = (bitstorage[source_word] >> shift_flipped) | (bitstorage[source_wor
 1381              		.loc 1 347 12 view .LVU379
 1382 080c 4883C220 		add	rdx, 32	# ivtmp.237,
 1383              	.L105:
 348:sieve_extend.c ****     }
 1384              		.loc 1 348 9 view .LVU380
 1385              	# sieve_extend.c:348:         bitstorage[copy_word] = (bitstorage[source_word] >> shift_flipped) | 
 348:sieve_extend.c ****     }
 1386              		.loc 1 348 58 is_stmt 0 view .LVU381
 1387 0810 C57E6F04 		vmovdqu	ymm8, YMMWORD PTR [rax+rdx]	# tmp477, MEM[base: _10, index: ivtmp.237_163, offset: 0B]
 1387      10
 1388              	# sieve_extend.c:348:         bitstorage[copy_word] = (bitstorage[source_word] >> shift_flipped) | 
 348:sieve_extend.c ****     }
 1389              		.loc 1 348 105 view .LVU382
 1390 0815 C57E6F14 		vmovdqu	ymm10, YMMWORD PTR [rbx+rdx]	# tmp478, MEM[base: vectp.215_117, index: ivtmp.237_163, offs
 1390      13
 1391              	# sieve_extend.c:348:         bitstorage[copy_word] = (bitstorage[source_word] >> shift_flipped) | 
 348:sieve_extend.c ****     }
 1392              		.loc 1 348 58 view .LVU383
 1393 081a C53DD3C9 		vpsrlq	ymm9, ymm8, xmm1	# vect__29.213, tmp477, _14
 1394              	# sieve_extend.c:348:         bitstorage[copy_word] = (bitstorage[source_word] >> shift_flipped) | 
 348:sieve_extend.c ****     }
 1395              		.loc 1 348 105 view .LVU384
 1396 081e C52DF3D8 		vpsllq	ymm11, ymm10, xmm0	# vect__34.217, tmp478, _12
 1397              	# sieve_extend.c:348:         bitstorage[copy_word] = (bitstorage[source_word] >> shift_flipped) | 
 348:sieve_extend.c ****     }
 1398              		.loc 1 348 76 view .LVU385
 1399 0822 C44135EB 		vpor	ymm12, ymm9, ymm11	# vect__37.218, vect__29.213, vect__34.217
 1399      E3
 1400              	# sieve_extend.c:348:         bitstorage[copy_word] = (bitstorage[source_word] >> shift_flipped) | 
 348:sieve_extend.c ****     }
 1401              		.loc 1 348 31 view .LVU386
 1402 0827 C4417E7F 		vmovdqu	YMMWORD PTR [r10+rdx], ymm12	# MEM[base: vectp.220_125, index: ivtmp.237_163, offset: 0B],
 1402      2412
 347:sieve_extend.c ****         bitstorage[copy_word] = (bitstorage[source_word] >> shift_flipped) | (bitstorage[source_wor
 1403              		.loc 1 347 48 is_stmt 1 view .LVU387
GAS LISTING /tmp/ccG38KJh.s 			page 44


 347:sieve_extend.c ****         bitstorage[copy_word] = (bitstorage[source_word] >> shift_flipped) | (bitstorage[source_wor
 1404              		.loc 1 347 12 view .LVU388
 1405 082d 4883C220 		add	rdx, 32	# ivtmp.237,
 1406              	.L104:
 348:sieve_extend.c ****     }
 1407              		.loc 1 348 9 view .LVU389
 1408              	# sieve_extend.c:348:         bitstorage[copy_word] = (bitstorage[source_word] >> shift_flipped) | 
 348:sieve_extend.c ****     }
 1409              		.loc 1 348 58 is_stmt 0 view .LVU390
 1410 0831 C57E6F2C 		vmovdqu	ymm13, YMMWORD PTR [rax+rdx]	# tmp479, MEM[base: _10, index: ivtmp.237_163, offset: 0B]
 1410      10
 1411              	# sieve_extend.c:348:         bitstorage[copy_word] = (bitstorage[source_word] >> shift_flipped) | 
 348:sieve_extend.c ****     }
 1412              		.loc 1 348 105 view .LVU391
 1413 0836 C57E6F3C 		vmovdqu	ymm15, YMMWORD PTR [rbx+rdx]	# tmp480, MEM[base: vectp.215_117, index: ivtmp.237_163, offs
 1413      13
 1414              	# sieve_extend.c:348:         bitstorage[copy_word] = (bitstorage[source_word] >> shift_flipped) | 
 348:sieve_extend.c ****     }
 1415              		.loc 1 348 58 view .LVU392
 1416 083b C515D3F1 		vpsrlq	ymm14, ymm13, xmm1	# vect__29.213, tmp479, _14
 1417              	# sieve_extend.c:348:         bitstorage[copy_word] = (bitstorage[source_word] >> shift_flipped) | 
 348:sieve_extend.c ****     }
 1418              		.loc 1 348 105 view .LVU393
 1419 083f C585F3F0 		vpsllq	ymm6, ymm15, xmm0	# vect__34.217, tmp480, _12
 1420              	# sieve_extend.c:348:         bitstorage[copy_word] = (bitstorage[source_word] >> shift_flipped) | 
 348:sieve_extend.c ****     }
 1421              		.loc 1 348 76 view .LVU394
 1422 0843 C58DEBD6 		vpor	ymm2, ymm14, ymm6	# vect__37.218, vect__29.213, vect__34.217
 1423              	# sieve_extend.c:348:         bitstorage[copy_word] = (bitstorage[source_word] >> shift_flipped) | 
 348:sieve_extend.c ****     }
 1424              		.loc 1 348 31 view .LVU395
 1425 0847 C4C17E7F 		vmovdqu	YMMWORD PTR [r10+rdx], ymm2	# MEM[base: vectp.220_125, index: ivtmp.237_163, offset: 0B], 
 1425      1412
 347:sieve_extend.c ****         bitstorage[copy_word] = (bitstorage[source_word] >> shift_flipped) | (bitstorage[source_wor
 1426              		.loc 1 347 48 is_stmt 1 view .LVU396
 347:sieve_extend.c ****         bitstorage[copy_word] = (bitstorage[source_word] >> shift_flipped) | (bitstorage[source_wor
 1427              		.loc 1 347 12 view .LVU397
 1428 084d 4883C220 		add	rdx, 32	# ivtmp.237,
 1429              	.L103:
 348:sieve_extend.c ****     }
 1430              		.loc 1 348 9 view .LVU398
 1431              	# sieve_extend.c:348:         bitstorage[copy_word] = (bitstorage[source_word] >> shift_flipped) | 
 348:sieve_extend.c ****     }
 1432              		.loc 1 348 58 is_stmt 0 view .LVU399
 1433 0851 C5FE6F3C 		vmovdqu	ymm7, YMMWORD PTR [rax+rdx]	# tmp481, MEM[base: _10, index: ivtmp.237_163, offset: 0B]
 1433      10
 1434              	# sieve_extend.c:348:         bitstorage[copy_word] = (bitstorage[source_word] >> shift_flipped) | 
 348:sieve_extend.c ****     }
 1435              		.loc 1 348 105 view .LVU400
 1436 0856 C5FE6F1C 		vmovdqu	ymm3, YMMWORD PTR [rbx+rdx]	# tmp482, MEM[base: vectp.215_117, index: ivtmp.237_163, offse
 1436      13
 1437              	# sieve_extend.c:348:         bitstorage[copy_word] = (bitstorage[source_word] >> shift_flipped) | 
 348:sieve_extend.c ****     }
 1438              		.loc 1 348 58 view .LVU401
 1439 085b C5C5D3E1 		vpsrlq	ymm4, ymm7, xmm1	# vect__29.213, tmp481, _14
 1440              	# sieve_extend.c:348:         bitstorage[copy_word] = (bitstorage[source_word] >> shift_flipped) | 
 348:sieve_extend.c ****     }
GAS LISTING /tmp/ccG38KJh.s 			page 45


 1441              		.loc 1 348 105 view .LVU402
 1442 085f C5E5F3E8 		vpsllq	ymm5, ymm3, xmm0	# vect__34.217, tmp482, _12
 1443              	# sieve_extend.c:348:         bitstorage[copy_word] = (bitstorage[source_word] >> shift_flipped) | 
 348:sieve_extend.c ****     }
 1444              		.loc 1 348 76 view .LVU403
 1445 0863 C55DEBC5 		vpor	ymm8, ymm4, ymm5	# vect__37.218, vect__29.213, vect__34.217
 1446              	# sieve_extend.c:348:         bitstorage[copy_word] = (bitstorage[source_word] >> shift_flipped) | 
 348:sieve_extend.c ****     }
 1447              		.loc 1 348 31 view .LVU404
 1448 0867 C4417E7F 		vmovdqu	YMMWORD PTR [r10+rdx], ymm8	# MEM[base: vectp.220_125, index: ivtmp.237_163, offset: 0B], 
 1448      0412
 347:sieve_extend.c ****         bitstorage[copy_word] = (bitstorage[source_word] >> shift_flipped) | (bitstorage[source_wor
 1449              		.loc 1 347 48 is_stmt 1 view .LVU405
 347:sieve_extend.c ****         bitstorage[copy_word] = (bitstorage[source_word] >> shift_flipped) | (bitstorage[source_wor
 1450              		.loc 1 347 12 view .LVU406
 1451 086d 4883C220 		add	rdx, 32	# ivtmp.237,
 1452 0871 4C39F2   		cmp	rdx, r14	# ivtmp.237, _165
 1453 0874 0F842E01 		je	.L133	#,
 1453      0000
 1454              	.L51:
 348:sieve_extend.c ****     }
 1455              		.loc 1 348 9 discriminator 2 view .LVU407
 1456              	# sieve_extend.c:348:         bitstorage[copy_word] = (bitstorage[source_word] >> shift_flipped) | 
 348:sieve_extend.c ****     }
 1457              		.loc 1 348 58 is_stmt 0 discriminator 2 view .LVU408
 1458 087a C57E6F0C 		vmovdqu	ymm9, YMMWORD PTR [rax+rdx]	# tmp448, MEM[base: _10, index: ivtmp.237_163, offset: 0B]
 1458      10
 1459              	# sieve_extend.c:348:         bitstorage[copy_word] = (bitstorage[source_word] >> shift_flipped) | 
 348:sieve_extend.c ****     }
 1460              		.loc 1 348 105 discriminator 2 view .LVU409
 1461 087f C57E6F1C 		vmovdqu	ymm11, YMMWORD PTR [rbx+rdx]	# tmp449, MEM[base: vectp.215_117, index: ivtmp.237_163, offs
 1461      13
 1462              	# sieve_extend.c:348:         bitstorage[copy_word] = (bitstorage[source_word] >> shift_flipped) | 
 348:sieve_extend.c ****     }
 1463              		.loc 1 348 58 discriminator 2 view .LVU410
 1464 0884 C535D3D1 		vpsrlq	ymm10, ymm9, xmm1	# vect__29.213, tmp448, _14
 1465              	# sieve_extend.c:348:         bitstorage[copy_word] = (bitstorage[source_word] >> shift_flipped) | 
 348:sieve_extend.c ****     }
 1466              		.loc 1 348 105 discriminator 2 view .LVU411
 1467 0888 C525F3E0 		vpsllq	ymm12, ymm11, xmm0	# vect__34.217, tmp449, _12
 1468              	# sieve_extend.c:348:         bitstorage[copy_word] = (bitstorage[source_word] >> shift_flipped) | 
 348:sieve_extend.c ****     }
 1469              		.loc 1 348 76 discriminator 2 view .LVU412
 1470 088c C4412DEB 		vpor	ymm13, ymm10, ymm12	# vect__37.218, vect__29.213, vect__34.217
 1470      EC
 1471              	# sieve_extend.c:348:         bitstorage[copy_word] = (bitstorage[source_word] >> shift_flipped) | 
 348:sieve_extend.c ****     }
 1472              		.loc 1 348 31 discriminator 2 view .LVU413
 1473 0891 C4417E7F 		vmovdqu	YMMWORD PTR [r10+rdx], ymm13	# MEM[base: vectp.220_125, index: ivtmp.237_163, offset: 0B],
 1473      2C12
 347:sieve_extend.c ****         bitstorage[copy_word] = (bitstorage[source_word] >> shift_flipped) | (bitstorage[source_wor
 1474              		.loc 1 347 48 is_stmt 1 discriminator 2 view .LVU414
 347:sieve_extend.c ****         bitstorage[copy_word] = (bitstorage[source_word] >> shift_flipped) | (bitstorage[source_wor
 1475              		.loc 1 347 12 discriminator 2 view .LVU415
 348:sieve_extend.c ****     }
 1476              		.loc 1 348 9 discriminator 2 view .LVU416
 1477              	# sieve_extend.c:348:         bitstorage[copy_word] = (bitstorage[source_word] >> shift_flipped) | 
GAS LISTING /tmp/ccG38KJh.s 			page 46


 348:sieve_extend.c ****     }
 1478              		.loc 1 348 58 is_stmt 0 discriminator 2 view .LVU417
 1479 0897 C57E6F74 		vmovdqu	ymm14, YMMWORD PTR 32[rax+rdx]	# tmp450, MEM[base: _10, index: ivtmp.237_163, offset: 0B]
 1479      1020
 1480              	# sieve_extend.c:348:         bitstorage[copy_word] = (bitstorage[source_word] >> shift_flipped) | 
 348:sieve_extend.c ****     }
 1481              		.loc 1 348 105 discriminator 2 view .LVU418
 1482 089d C5FE6F74 		vmovdqu	ymm6, YMMWORD PTR 32[rbx+rdx]	# tmp451, MEM[base: vectp.215_117, index: ivtmp.237_163, off
 1482      1320
 1483              	# sieve_extend.c:348:         bitstorage[copy_word] = (bitstorage[source_word] >> shift_flipped) | 
 348:sieve_extend.c ****     }
 1484              		.loc 1 348 58 discriminator 2 view .LVU419
 1485 08a3 C50DD3F9 		vpsrlq	ymm15, ymm14, xmm1	# vect__29.213, tmp450, _14
 1486              	# sieve_extend.c:348:         bitstorage[copy_word] = (bitstorage[source_word] >> shift_flipped) | 
 348:sieve_extend.c ****     }
 1487              		.loc 1 348 105 discriminator 2 view .LVU420
 1488 08a7 C5CDF3D0 		vpsllq	ymm2, ymm6, xmm0	# vect__34.217, tmp451, _12
 1489              	# sieve_extend.c:348:         bitstorage[copy_word] = (bitstorage[source_word] >> shift_flipped) | 
 348:sieve_extend.c ****     }
 1490              		.loc 1 348 76 discriminator 2 view .LVU421
 1491 08ab C585EBFA 		vpor	ymm7, ymm15, ymm2	# vect__37.218, vect__29.213, vect__34.217
 1492              	# sieve_extend.c:348:         bitstorage[copy_word] = (bitstorage[source_word] >> shift_flipped) | 
 348:sieve_extend.c ****     }
 1493              		.loc 1 348 31 discriminator 2 view .LVU422
 1494 08af C4C17E7F 		vmovdqu	YMMWORD PTR 32[r10+rdx], ymm7	# MEM[base: vectp.220_125, index: ivtmp.237_163, offset: 0B]
 1494      7C1220
 347:sieve_extend.c ****         bitstorage[copy_word] = (bitstorage[source_word] >> shift_flipped) | (bitstorage[source_wor
 1495              		.loc 1 347 48 is_stmt 1 discriminator 2 view .LVU423
 347:sieve_extend.c ****         bitstorage[copy_word] = (bitstorage[source_word] >> shift_flipped) | (bitstorage[source_wor
 1496              		.loc 1 347 12 discriminator 2 view .LVU424
 348:sieve_extend.c ****     }
 1497              		.loc 1 348 9 discriminator 2 view .LVU425
 1498              	# sieve_extend.c:348:         bitstorage[copy_word] = (bitstorage[source_word] >> shift_flipped) | 
 348:sieve_extend.c ****     }
 1499              		.loc 1 348 58 is_stmt 0 discriminator 2 view .LVU426
 1500 08b6 C5FE6F64 		vmovdqu	ymm4, YMMWORD PTR 64[rax+rdx]	# tmp452, MEM[base: _10, index: ivtmp.237_163, offset: 0B]
 1500      1040
 1501              	# sieve_extend.c:348:         bitstorage[copy_word] = (bitstorage[source_word] >> shift_flipped) | 
 348:sieve_extend.c ****     }
 1502              		.loc 1 348 105 discriminator 2 view .LVU427
 1503 08bc C5FE6F5C 		vmovdqu	ymm3, YMMWORD PTR 64[rbx+rdx]	# tmp453, MEM[base: vectp.215_117, index: ivtmp.237_163, off
 1503      1340
 1504              	# sieve_extend.c:348:         bitstorage[copy_word] = (bitstorage[source_word] >> shift_flipped) | 
 348:sieve_extend.c ****     }
 1505              		.loc 1 348 58 discriminator 2 view .LVU428
 1506 08c2 C5DDD3E9 		vpsrlq	ymm5, ymm4, xmm1	# vect__29.213, tmp452, _14
 1507              	# sieve_extend.c:348:         bitstorage[copy_word] = (bitstorage[source_word] >> shift_flipped) | 
 348:sieve_extend.c ****     }
 1508              		.loc 1 348 105 discriminator 2 view .LVU429
 1509 08c6 C565F3C0 		vpsllq	ymm8, ymm3, xmm0	# vect__34.217, tmp453, _12
 1510              	# sieve_extend.c:348:         bitstorage[copy_word] = (bitstorage[source_word] >> shift_flipped) | 
 348:sieve_extend.c ****     }
 1511              		.loc 1 348 76 discriminator 2 view .LVU430
 1512 08ca C44155EB 		vpor	ymm9, ymm5, ymm8	# vect__37.218, vect__29.213, vect__34.217
 1512      C8
 1513              	# sieve_extend.c:348:         bitstorage[copy_word] = (bitstorage[source_word] >> shift_flipped) | 
 348:sieve_extend.c ****     }
GAS LISTING /tmp/ccG38KJh.s 			page 47


 1514              		.loc 1 348 31 discriminator 2 view .LVU431
 1515 08cf C4417E7F 		vmovdqu	YMMWORD PTR 64[r10+rdx], ymm9	# MEM[base: vectp.220_125, index: ivtmp.237_163, offset: 0B]
 1515      4C1240
 347:sieve_extend.c ****         bitstorage[copy_word] = (bitstorage[source_word] >> shift_flipped) | (bitstorage[source_wor
 1516              		.loc 1 347 48 is_stmt 1 discriminator 2 view .LVU432
 347:sieve_extend.c ****         bitstorage[copy_word] = (bitstorage[source_word] >> shift_flipped) | (bitstorage[source_wor
 1517              		.loc 1 347 12 discriminator 2 view .LVU433
 348:sieve_extend.c ****     }
 1518              		.loc 1 348 9 discriminator 2 view .LVU434
 1519              	# sieve_extend.c:348:         bitstorage[copy_word] = (bitstorage[source_word] >> shift_flipped) | 
 348:sieve_extend.c ****     }
 1520              		.loc 1 348 58 is_stmt 0 discriminator 2 view .LVU435
 1521 08d6 C57E6F54 		vmovdqu	ymm10, YMMWORD PTR 96[rax+rdx]	# tmp454, MEM[base: _10, index: ivtmp.237_163, offset: 0B]
 1521      1060
 1522              	# sieve_extend.c:348:         bitstorage[copy_word] = (bitstorage[source_word] >> shift_flipped) | 
 348:sieve_extend.c ****     }
 1523              		.loc 1 348 105 discriminator 2 view .LVU436
 1524 08dc C57E6F64 		vmovdqu	ymm12, YMMWORD PTR 96[rbx+rdx]	# tmp455, MEM[base: vectp.215_117, index: ivtmp.237_163, of
 1524      1360
 1525              	# sieve_extend.c:348:         bitstorage[copy_word] = (bitstorage[source_word] >> shift_flipped) | 
 348:sieve_extend.c ****     }
 1526              		.loc 1 348 58 discriminator 2 view .LVU437
 1527 08e2 C52DD3D9 		vpsrlq	ymm11, ymm10, xmm1	# vect__29.213, tmp454, _14
 1528              	# sieve_extend.c:348:         bitstorage[copy_word] = (bitstorage[source_word] >> shift_flipped) | 
 348:sieve_extend.c ****     }
 1529              		.loc 1 348 105 discriminator 2 view .LVU438
 1530 08e6 C51DF3E8 		vpsllq	ymm13, ymm12, xmm0	# vect__34.217, tmp455, _12
 1531              	# sieve_extend.c:348:         bitstorage[copy_word] = (bitstorage[source_word] >> shift_flipped) | 
 348:sieve_extend.c ****     }
 1532              		.loc 1 348 76 discriminator 2 view .LVU439
 1533 08ea C44125EB 		vpor	ymm14, ymm11, ymm13	# vect__37.218, vect__29.213, vect__34.217
 1533      F5
 1534              	# sieve_extend.c:348:         bitstorage[copy_word] = (bitstorage[source_word] >> shift_flipped) | 
 348:sieve_extend.c ****     }
 1535              		.loc 1 348 31 discriminator 2 view .LVU440
 1536 08ef C4417E7F 		vmovdqu	YMMWORD PTR 96[r10+rdx], ymm14	# MEM[base: vectp.220_125, index: ivtmp.237_163, offset: 0B
 1536      741260
 347:sieve_extend.c ****         bitstorage[copy_word] = (bitstorage[source_word] >> shift_flipped) | (bitstorage[source_wor
 1537              		.loc 1 347 48 is_stmt 1 discriminator 2 view .LVU441
 347:sieve_extend.c ****         bitstorage[copy_word] = (bitstorage[source_word] >> shift_flipped) | (bitstorage[source_wor
 1538              		.loc 1 347 12 discriminator 2 view .LVU442
 348:sieve_extend.c ****     }
 1539              		.loc 1 348 9 discriminator 2 view .LVU443
 1540              	# sieve_extend.c:348:         bitstorage[copy_word] = (bitstorage[source_word] >> shift_flipped) | 
 348:sieve_extend.c ****     }
 1541              		.loc 1 348 58 is_stmt 0 discriminator 2 view .LVU444
 1542 08f6 C57E6FBC 		vmovdqu	ymm15, YMMWORD PTR 128[rax+rdx]	# tmp456, MEM[base: _10, index: ivtmp.237_163, offset: 0B]
 1542      10800000 
 1542      00
 1543              	# sieve_extend.c:348:         bitstorage[copy_word] = (bitstorage[source_word] >> shift_flipped) | 
 348:sieve_extend.c ****     }
 1544              		.loc 1 348 105 discriminator 2 view .LVU445
 1545 08ff C5FE6F94 		vmovdqu	ymm2, YMMWORD PTR 128[rbx+rdx]	# tmp457, MEM[base: vectp.215_117, index: ivtmp.237_163, of
 1545      13800000 
 1545      00
 1546              	# sieve_extend.c:348:         bitstorage[copy_word] = (bitstorage[source_word] >> shift_flipped) | 
 348:sieve_extend.c ****     }
GAS LISTING /tmp/ccG38KJh.s 			page 48


 1547              		.loc 1 348 58 discriminator 2 view .LVU446
 1548 0908 C585D3F1 		vpsrlq	ymm6, ymm15, xmm1	# vect__29.213, tmp456, _14
 1549              	# sieve_extend.c:348:         bitstorage[copy_word] = (bitstorage[source_word] >> shift_flipped) | 
 348:sieve_extend.c ****     }
 1550              		.loc 1 348 105 discriminator 2 view .LVU447
 1551 090c C5EDF3F8 		vpsllq	ymm7, ymm2, xmm0	# vect__34.217, tmp457, _12
 1552              	# sieve_extend.c:348:         bitstorage[copy_word] = (bitstorage[source_word] >> shift_flipped) | 
 348:sieve_extend.c ****     }
 1553              		.loc 1 348 76 discriminator 2 view .LVU448
 1554 0910 C5CDEBE7 		vpor	ymm4, ymm6, ymm7	# vect__37.218, vect__29.213, vect__34.217
 1555              	# sieve_extend.c:348:         bitstorage[copy_word] = (bitstorage[source_word] >> shift_flipped) | 
 348:sieve_extend.c ****     }
 1556              		.loc 1 348 31 discriminator 2 view .LVU449
 1557 0914 C4C17E7F 		vmovdqu	YMMWORD PTR 128[r10+rdx], ymm4	# MEM[base: vectp.220_125, index: ivtmp.237_163, offset: 0B
 1557      A4128000 
 1557      0000
 347:sieve_extend.c ****         bitstorage[copy_word] = (bitstorage[source_word] >> shift_flipped) | (bitstorage[source_wor
 1558              		.loc 1 347 48 is_stmt 1 discriminator 2 view .LVU450
 347:sieve_extend.c ****         bitstorage[copy_word] = (bitstorage[source_word] >> shift_flipped) | (bitstorage[source_wor
 1559              		.loc 1 347 12 discriminator 2 view .LVU451
 348:sieve_extend.c ****     }
 1560              		.loc 1 348 9 discriminator 2 view .LVU452
 1561              	# sieve_extend.c:348:         bitstorage[copy_word] = (bitstorage[source_word] >> shift_flipped) | 
 348:sieve_extend.c ****     }
 1562              		.loc 1 348 58 is_stmt 0 discriminator 2 view .LVU453
 1563 091e C5FE6FAC 		vmovdqu	ymm5, YMMWORD PTR 160[rax+rdx]	# tmp458, MEM[base: _10, index: ivtmp.237_163, offset: 0B]
 1563      10A00000 
 1563      00
 1564              	# sieve_extend.c:348:         bitstorage[copy_word] = (bitstorage[source_word] >> shift_flipped) | 
 348:sieve_extend.c ****     }
 1565              		.loc 1 348 105 discriminator 2 view .LVU454
 1566 0927 C5FE6F9C 		vmovdqu	ymm3, YMMWORD PTR 160[rbx+rdx]	# tmp459, MEM[base: vectp.215_117, index: ivtmp.237_163, of
 1566      13A00000 
 1566      00
 1567              	# sieve_extend.c:348:         bitstorage[copy_word] = (bitstorage[source_word] >> shift_flipped) | 
 348:sieve_extend.c ****     }
 1568              		.loc 1 348 58 discriminator 2 view .LVU455
 1569 0930 C555D3C1 		vpsrlq	ymm8, ymm5, xmm1	# vect__29.213, tmp458, _14
 1570              	# sieve_extend.c:348:         bitstorage[copy_word] = (bitstorage[source_word] >> shift_flipped) | 
 348:sieve_extend.c ****     }
 1571              		.loc 1 348 105 discriminator 2 view .LVU456
 1572 0934 C565F3C8 		vpsllq	ymm9, ymm3, xmm0	# vect__34.217, tmp459, _12
 1573              	# sieve_extend.c:348:         bitstorage[copy_word] = (bitstorage[source_word] >> shift_flipped) | 
 348:sieve_extend.c ****     }
 1574              		.loc 1 348 76 discriminator 2 view .LVU457
 1575 0938 C4413DEB 		vpor	ymm10, ymm8, ymm9	# vect__37.218, vect__29.213, vect__34.217
 1575      D1
 1576              	# sieve_extend.c:348:         bitstorage[copy_word] = (bitstorage[source_word] >> shift_flipped) | 
 348:sieve_extend.c ****     }
 1577              		.loc 1 348 31 discriminator 2 view .LVU458
 1578 093d C4417E7F 		vmovdqu	YMMWORD PTR 160[r10+rdx], ymm10	# MEM[base: vectp.220_125, index: ivtmp.237_163, offset: 0
 1578      9412A000 
 1578      0000
 347:sieve_extend.c ****         bitstorage[copy_word] = (bitstorage[source_word] >> shift_flipped) | (bitstorage[source_wor
 1579              		.loc 1 347 48 is_stmt 1 discriminator 2 view .LVU459
 347:sieve_extend.c ****         bitstorage[copy_word] = (bitstorage[source_word] >> shift_flipped) | (bitstorage[source_wor
 1580              		.loc 1 347 12 discriminator 2 view .LVU460
GAS LISTING /tmp/ccG38KJh.s 			page 49


 348:sieve_extend.c ****     }
 1581              		.loc 1 348 9 discriminator 2 view .LVU461
 1582              	# sieve_extend.c:348:         bitstorage[copy_word] = (bitstorage[source_word] >> shift_flipped) | 
 348:sieve_extend.c ****     }
 1583              		.loc 1 348 58 is_stmt 0 discriminator 2 view .LVU462
 1584 0947 C57E6F9C 		vmovdqu	ymm11, YMMWORD PTR 192[rax+rdx]	# tmp460, MEM[base: _10, index: ivtmp.237_163, offset: 0B]
 1584      10C00000 
 1584      00
 1585              	# sieve_extend.c:348:         bitstorage[copy_word] = (bitstorage[source_word] >> shift_flipped) | 
 348:sieve_extend.c ****     }
 1586              		.loc 1 348 105 discriminator 2 view .LVU463
 1587 0950 C57E6FAC 		vmovdqu	ymm13, YMMWORD PTR 192[rbx+rdx]	# tmp461, MEM[base: vectp.215_117, index: ivtmp.237_163, o
 1587      13C00000 
 1587      00
 1588              	# sieve_extend.c:348:         bitstorage[copy_word] = (bitstorage[source_word] >> shift_flipped) | 
 348:sieve_extend.c ****     }
 1589              		.loc 1 348 58 discriminator 2 view .LVU464
 1590 0959 C525D3E1 		vpsrlq	ymm12, ymm11, xmm1	# vect__29.213, tmp460, _14
 1591              	# sieve_extend.c:348:         bitstorage[copy_word] = (bitstorage[source_word] >> shift_flipped) | 
 348:sieve_extend.c ****     }
 1592              		.loc 1 348 105 discriminator 2 view .LVU465
 1593 095d C515F3F0 		vpsllq	ymm14, ymm13, xmm0	# vect__34.217, tmp461, _12
 1594              	# sieve_extend.c:348:         bitstorage[copy_word] = (bitstorage[source_word] >> shift_flipped) | 
 348:sieve_extend.c ****     }
 1595              		.loc 1 348 76 discriminator 2 view .LVU466
 1596 0961 C4411DEB 		vpor	ymm15, ymm12, ymm14	# vect__37.218, vect__29.213, vect__34.217
 1596      FE
 1597              	# sieve_extend.c:348:         bitstorage[copy_word] = (bitstorage[source_word] >> shift_flipped) | 
 348:sieve_extend.c ****     }
 1598              		.loc 1 348 31 discriminator 2 view .LVU467
 1599 0966 C4417E7F 		vmovdqu	YMMWORD PTR 192[r10+rdx], ymm15	# MEM[base: vectp.220_125, index: ivtmp.237_163, offset: 0
 1599      BC12C000 
 1599      0000
 347:sieve_extend.c ****         bitstorage[copy_word] = (bitstorage[source_word] >> shift_flipped) | (bitstorage[source_wor
 1600              		.loc 1 347 48 is_stmt 1 discriminator 2 view .LVU468
 347:sieve_extend.c ****         bitstorage[copy_word] = (bitstorage[source_word] >> shift_flipped) | (bitstorage[source_wor
 1601              		.loc 1 347 12 discriminator 2 view .LVU469
 348:sieve_extend.c ****     }
 1602              		.loc 1 348 9 discriminator 2 view .LVU470
 1603              	# sieve_extend.c:348:         bitstorage[copy_word] = (bitstorage[source_word] >> shift_flipped) | 
 348:sieve_extend.c ****     }
 1604              		.loc 1 348 58 is_stmt 0 discriminator 2 view .LVU471
 1605 0970 C5FE6FB4 		vmovdqu	ymm6, YMMWORD PTR 224[rax+rdx]	# tmp462, MEM[base: _10, index: ivtmp.237_163, offset: 0B]
 1605      10E00000 
 1605      00
 1606              	# sieve_extend.c:348:         bitstorage[copy_word] = (bitstorage[source_word] >> shift_flipped) | 
 348:sieve_extend.c ****     }
 1607              		.loc 1 348 105 discriminator 2 view .LVU472
 1608 0979 C5FE6FBC 		vmovdqu	ymm7, YMMWORD PTR 224[rbx+rdx]	# tmp463, MEM[base: vectp.215_117, index: ivtmp.237_163, of
 1608      13E00000 
 1608      00
 1609              	# sieve_extend.c:348:         bitstorage[copy_word] = (bitstorage[source_word] >> shift_flipped) | 
 348:sieve_extend.c ****     }
 1610              		.loc 1 348 58 discriminator 2 view .LVU473
 1611 0982 C5CDD3D1 		vpsrlq	ymm2, ymm6, xmm1	# vect__29.213, tmp462, _14
 1612              	# sieve_extend.c:348:         bitstorage[copy_word] = (bitstorage[source_word] >> shift_flipped) | 
 348:sieve_extend.c ****     }
GAS LISTING /tmp/ccG38KJh.s 			page 50


 1613              		.loc 1 348 105 discriminator 2 view .LVU474
 1614 0986 C5C5F3E0 		vpsllq	ymm4, ymm7, xmm0	# vect__34.217, tmp463, _12
 1615              	# sieve_extend.c:348:         bitstorage[copy_word] = (bitstorage[source_word] >> shift_flipped) | 
 348:sieve_extend.c ****     }
 1616              		.loc 1 348 76 discriminator 2 view .LVU475
 1617 098a C5EDEBEC 		vpor	ymm5, ymm2, ymm4	# vect__37.218, vect__29.213, vect__34.217
 1618              	# sieve_extend.c:348:         bitstorage[copy_word] = (bitstorage[source_word] >> shift_flipped) | 
 348:sieve_extend.c ****     }
 1619              		.loc 1 348 31 discriminator 2 view .LVU476
 1620 098e C4C17E7F 		vmovdqu	YMMWORD PTR 224[r10+rdx], ymm5	# MEM[base: vectp.220_125, index: ivtmp.237_163, offset: 0B
 1620      AC12E000 
 1620      0000
 347:sieve_extend.c ****         bitstorage[copy_word] = (bitstorage[source_word] >> shift_flipped) | (bitstorage[source_wor
 1621              		.loc 1 347 48 is_stmt 1 discriminator 2 view .LVU477
 347:sieve_extend.c ****         bitstorage[copy_word] = (bitstorage[source_word] >> shift_flipped) | (bitstorage[source_wor
 1622              		.loc 1 347 12 discriminator 2 view .LVU478
 1623 0998 4881C200 		add	rdx, 256	# ivtmp.237,
 1623      010000
 1624 099f 4C39F2   		cmp	rdx, r14	# ivtmp.237, _165
 1625 09a2 0F85D2FE 		jne	.L51	#,
 1625      FFFF
 1626              	.L133:
 1627 09a8 4C8B7C24 		mov	r15, QWORD PTR -8[rsp]	# source_word, %sfp
 1627      F8
 1628 09ad 4C89E8   		mov	rax, r13	# niters_vector_mult_vf.207, niters.205
 1629 09b0 4883E0FC 		and	rax, -4	# niters_vector_mult_vf.207,
 1630 09b4 4901C3   		add	r11, rax	# tmp.208, niters_vector_mult_vf.207
 1631 09b7 4901C7   		add	r15, rax	# source_word, niters_vector_mult_vf.207
 1632 09ba 4939C5   		cmp	r13, rax	# niters.205, niters_vector_mult_vf.207
 1633 09bd 7471     		je	.L140	#,
 1634              	.LVL69:
 348:sieve_extend.c ****     }
 1635              		.loc 1 348 9 view .LVU479
 1636              	# sieve_extend.c:348:         bitstorage[copy_word] = (bitstorage[source_word] >> shift_flipped) | 
 348:sieve_extend.c ****     }
 1637              		.loc 1 348 105 is_stmt 0 view .LVU480
 1638 09bf C42299F7 		shlx	r8, QWORD PTR 8[rdi+r15*8], r12	# tmp226, *_33, shift
 1638      44FF08
 1639              	# sieve_extend.c:348:         bitstorage[copy_word] = (bitstorage[source_word] >> shift_flipped) | 
 348:sieve_extend.c ****     }
 1640              		.loc 1 348 58 view .LVU481
 1641 09c6 C422B3F7 		shrx	r13, QWORD PTR [rdi+r15*8], r9	# tmp228, *_28, shift_flipped
 1641      2CFF
 1642              	# sieve_extend.c:347:     for (; copy_word <= destination_stop_word; ++copy_word, ++source_word ) {
 347:sieve_extend.c ****         bitstorage[copy_word] = (bitstorage[source_word] >> shift_flipped) | (bitstorage[source_wor
 1643              		.loc 1 347 48 view .LVU482
 1644 09cc 498D5B01 		lea	rbx, 1[r11]	# copy_word,
 1645              	# sieve_extend.c:348:         bitstorage[copy_word] = (bitstorage[source_word] >> shift_flipped) | 
 348:sieve_extend.c ****     }
 1646              		.loc 1 348 76 view .LVU483
 1647 09d0 4D09E8   		or	r8, r13	# tmp230, tmp228
 1648 09d3 4E8904DF 		mov	QWORD PTR [rdi+r11*8], r8	# *_37, tmp230
 347:sieve_extend.c ****         bitstorage[copy_word] = (bitstorage[source_word] >> shift_flipped) | (bitstorage[source_wor
 1649              		.loc 1 347 48 is_stmt 1 view .LVU484
 1650              	.LVL70:
 1651              	# sieve_extend.c:348:         bitstorage[copy_word] = (bitstorage[source_word] >> shift_flipped) | 
 348:sieve_extend.c ****     }
GAS LISTING /tmp/ccG38KJh.s 			page 51


 1652              		.loc 1 348 89 is_stmt 0 view .LVU485
 1653 09d7 4D8D5701 		lea	r10, 1[r15]	# _31,
 1654              	.LVL71:
 347:sieve_extend.c ****         bitstorage[copy_word] = (bitstorage[source_word] >> shift_flipped) | (bitstorage[source_wor
 1655              		.loc 1 347 12 is_stmt 1 view .LVU486
 1656              	# sieve_extend.c:347:     for (; copy_word <= destination_stop_word; ++copy_word, ++source_word ) {
 347:sieve_extend.c ****         bitstorage[copy_word] = (bitstorage[source_word] >> shift_flipped) | (bitstorage[source_wor
 1657              		.loc 1 347 5 is_stmt 0 view .LVU487
 1658 09db 4839D9   		cmp	rcx, rbx	# destination_stop_word, copy_word
 1659 09de 7250     		jb	.L140	#,
 348:sieve_extend.c ****     }
 1660              		.loc 1 348 9 is_stmt 1 view .LVU488
 1661              	# sieve_extend.c:348:         bitstorage[copy_word] = (bitstorage[source_word] >> shift_flipped) | 
 348:sieve_extend.c ****     }
 1662              		.loc 1 348 58 is_stmt 0 view .LVU489
 1663 09e0 4A8B34D7 		mov	rsi, QWORD PTR [rdi+r10*8]	# *_135, *_135
 1664              	# sieve_extend.c:348:         bitstorage[copy_word] = (bitstorage[source_word] >> shift_flipped) | 
 348:sieve_extend.c ****     }
 1665              		.loc 1 348 105 view .LVU490
 1666 09e4 C42299F7 		shlx	r14, QWORD PTR 8[rdi+r10*8], r12	# tmp231, *_140, shift
 1666      74D708
 1667              	# sieve_extend.c:348:         bitstorage[copy_word] = (bitstorage[source_word] >> shift_flipped) | 
 348:sieve_extend.c ****     }
 1668              		.loc 1 348 58 view .LVU491
 1669 09eb C4E2B3F7 		shrx	rdx, rsi, r9	# tmp233, *_135, shift_flipped
 1669      D6
 1670              	# sieve_extend.c:347:     for (; copy_word <= destination_stop_word; ++copy_word, ++source_word ) {
 347:sieve_extend.c ****         bitstorage[copy_word] = (bitstorage[source_word] >> shift_flipped) | (bitstorage[source_wor
 1671              		.loc 1 347 48 view .LVU492
 1672 09f0 4983C302 		add	r11, 2	# copy_word,
 1673              	# sieve_extend.c:348:         bitstorage[copy_word] = (bitstorage[source_word] >> shift_flipped) | 
 348:sieve_extend.c ****     }
 1674              		.loc 1 348 76 view .LVU493
 1675 09f4 4909D6   		or	r14, rdx	# tmp235, tmp233
 1676 09f7 4C8934DF 		mov	QWORD PTR [rdi+rbx*8], r14	# *_144, tmp235
 347:sieve_extend.c ****         bitstorage[copy_word] = (bitstorage[source_word] >> shift_flipped) | (bitstorage[source_wor
 1677              		.loc 1 347 48 is_stmt 1 view .LVU494
 1678              	.LVL72:
 347:sieve_extend.c ****         bitstorage[copy_word] = (bitstorage[source_word] >> shift_flipped) | (bitstorage[source_wor
 1679              		.loc 1 347 12 view .LVU495
 1680              	# sieve_extend.c:348:         bitstorage[copy_word] = (bitstorage[source_word] >> shift_flipped) | 
 348:sieve_extend.c ****     }
 1681              		.loc 1 348 89 is_stmt 0 view .LVU496
 1682 09fb 4983C702 		add	r15, 2	# _138,
 1683              	.LVL73:
 1684              	# sieve_extend.c:347:     for (; copy_word <= destination_stop_word; ++copy_word, ++source_word ) {
 347:sieve_extend.c ****         bitstorage[copy_word] = (bitstorage[source_word] >> shift_flipped) | (bitstorage[source_wor
 1685              		.loc 1 347 5 view .LVU497
 1686 09ff 4C39D9   		cmp	rcx, r11	# destination_stop_word, copy_word
 1687 0a02 722C     		jb	.L140	#,
 348:sieve_extend.c ****     }
 1688              		.loc 1 348 9 is_stmt 1 view .LVU498
 1689              	# sieve_extend.c:348:         bitstorage[copy_word] = (bitstorage[source_word] >> shift_flipped) | 
 348:sieve_extend.c ****     }
 1690              		.loc 1 348 105 is_stmt 0 view .LVU499
 1691 0a04 C4A299F7 		shlx	rcx, QWORD PTR 8[rdi+r15*8], r12	# tmp236, *_97, shift
 1691      4CFF08
GAS LISTING /tmp/ccG38KJh.s 			page 52


 1692              	.LVL74:
 1693              	# sieve_extend.c:348:         bitstorage[copy_word] = (bitstorage[source_word] >> shift_flipped) | 
 348:sieve_extend.c ****     }
 1694              		.loc 1 348 58 view .LVU500
 1695 0a0b 4E8B24FF 		mov	r12, QWORD PTR [rdi+r15*8]	# *_92, *_92
 1696 0a0f C442B3F7 		shrx	r9, r12, r9	# tmp238, *_92, shift_flipped
 1696      CC
 1697              	# sieve_extend.c:348:         bitstorage[copy_word] = (bitstorage[source_word] >> shift_flipped) | 
 348:sieve_extend.c ****     }
 1698              		.loc 1 348 76 view .LVU501
 1699 0a14 4909C9   		or	r9, rcx	# tmp240, tmp236
 1700 0a17 4E890CDF 		mov	QWORD PTR [rdi+r11*8], r9	# *_101, tmp240
 347:sieve_extend.c ****         bitstorage[copy_word] = (bitstorage[source_word] >> shift_flipped) | (bitstorage[source_wor
 1701              		.loc 1 347 48 is_stmt 1 view .LVU502
 1702              	.LVL75:
 347:sieve_extend.c ****         bitstorage[copy_word] = (bitstorage[source_word] >> shift_flipped) | (bitstorage[source_wor
 1703              		.loc 1 347 12 view .LVU503
 1704 0a1b C5F877   		vzeroupper
 1705              	.LVL76:
 1706              	.L141:
 1707              	# sieve_extend.c:350: }
 350:sieve_extend.c **** 
 1708              		.loc 1 350 1 is_stmt 0 view .LVU504
 1709 0a1e 488D65D8 		lea	rsp, -40[rbp]	#,
 1710 0a22 5B       		pop	rbx	#
 1711 0a23 415C     		pop	r12	#
 1712 0a25 415D     		pop	r13	#
 1713 0a27 415E     		pop	r14	#
 1714 0a29 415F     		pop	r15	#
 1715 0a2b 5D       		pop	rbp	#
 1716              		.cfi_remember_state
 1717              		.cfi_def_cfa 7, 8
 1718 0a2c C3       		ret	
 1719              	.LVL77:
 1720 0a2d 0F1F00   		.p2align 4,,10
 1721              		.p2align 3
 1722              	.L140:
 1723              		.cfi_restore_state
 350:sieve_extend.c **** 
 1724              		.loc 1 350 1 view .LVU505
 1725 0a30 C5F877   		vzeroupper
 1726 0a33 488D65D8 		lea	rsp, -40[rbp]	#,
 1727 0a37 5B       		pop	rbx	#
 1728 0a38 415C     		pop	r12	#
 1729 0a3a 415D     		pop	r13	#
 1730 0a3c 415E     		pop	r14	#
 1731 0a3e 415F     		pop	r15	#
 1732 0a40 5D       		pop	rbp	#
 1733              		.cfi_remember_state
 1734              		.cfi_def_cfa 7, 8
 1735 0a41 C3       		ret	
 1736              	.LVL78:
 1737              		.p2align 4,,10
 1738 0a42 660F1F44 		.p2align 3
 1738      0000
 1739              	.L50:
 1740              		.cfi_restore_state
GAS LISTING /tmp/ccG38KJh.s 			page 53


 350:sieve_extend.c **** 
 1741              		.loc 1 350 1 view .LVU506
 1742 0a48 4C8B5C24 		mov	r11, QWORD PTR -8[rsp]	# source_word, %sfp
 1742      F8
 1743              	.LVL79:
 350:sieve_extend.c **** 
 1744              		.loc 1 350 1 view .LVU507
 1745 0a4d 4C01D9   		add	rcx, r11	# tmp241, source_word
 1746              	.LVL80:
 350:sieve_extend.c **** 
 1747              		.loc 1 350 1 view .LVU508
 1748 0a50 488D3CCF 		lea	rdi, [rdi+rcx*8]	# tmp243,
 1749              	.LVL81:
 350:sieve_extend.c **** 
 1750              		.loc 1 350 1 view .LVU509
 1751 0a54 4C29EF   		sub	rdi, r13	# _161, _6
 1752 0a57 4989FF   		mov	r15, rdi	# tmp253, _161
 1753 0a5a 4929C7   		sub	r15, rax	# tmp253, ivtmp.227
 1754 0a5d 4983EF08 		sub	r15, 8	# tmp254,
 1755 0a61 49C1EF03 		shr	r15, 3	# tmp252,
 1756 0a65 49FFC7   		inc	r15	# tmp255
 1757              	# sieve_extend.c:348:         bitstorage[copy_word] = (bitstorage[source_word] >> shift_flipped) | 
 348:sieve_extend.c ****     }
 1758              		.loc 1 348 31 view .LVU510
 1759 0a68 4C29DA   		sub	rdx, r11	# tmp244, source_word
 1760              	.LVL82:
 348:sieve_extend.c ****     }
 1761              		.loc 1 348 31 view .LVU511
 1762 0a6b 4183E707 		and	r15d, 7	# tmp256,
 1763 0a6f 0F84D600 		je	.L53	#,
 1763      0000
 1764 0a75 4983FF01 		cmp	r15, 1	# tmp256,
 1765 0a79 0F84AC00 		je	.L109	#,
 1765      0000
 1766 0a7f 4983FF02 		cmp	r15, 2	# tmp256,
 1767 0a83 0F848B00 		je	.L110	#,
 1767      0000
 1768 0a89 4983FF03 		cmp	r15, 3	# tmp256,
 1769 0a8d 746E     		je	.L111	#,
 1770 0a8f 4983FF04 		cmp	r15, 4	# tmp256,
 1771 0a93 7451     		je	.L112	#,
 1772 0a95 4983FF05 		cmp	r15, 5	# tmp256,
 1773 0a99 7434     		je	.L113	#,
 1774 0a9b 4983FF06 		cmp	r15, 6	# tmp256,
 1775 0a9f 7417     		je	.L114	#,
 1776              	.LVL83:
 348:sieve_extend.c ****     }
 1777              		.loc 1 348 9 is_stmt 1 view .LVU512
 1778              	# sieve_extend.c:348:         bitstorage[copy_word] = (bitstorage[source_word] >> shift_flipped) | 
 348:sieve_extend.c ****     }
 1779              		.loc 1 348 58 is_stmt 0 view .LVU513
 1780 0aa1 C462BBF7 		shrx	r10, QWORD PTR [rax], r8	# tmp349, MEM[base: _153, offset: 0B], _14
 1780      10
 1781              	# sieve_extend.c:348:         bitstorage[copy_word] = (bitstorage[source_word] >> shift_flipped) | 
 348:sieve_extend.c ****     }
 1782              		.loc 1 348 105 view .LVU514
 1783 0aa6 C462C9F7 		shlx	r13, QWORD PTR 8[rax], rsi	# tmp351, MEM[base: _153, offset: 8B], _12
GAS LISTING /tmp/ccG38KJh.s 			page 54


 1783      6808
 1784              	# sieve_extend.c:348:         bitstorage[copy_word] = (bitstorage[source_word] >> shift_flipped) | 
 348:sieve_extend.c ****     }
 1785              		.loc 1 348 76 view .LVU515
 1786 0aac 4D09EA   		or	r10, r13	# tmp352, tmp351
 1787 0aaf 4C8954D0 		mov	QWORD PTR 8[rax+rdx*8], r10	# MEM[base: _153, index: _155, step: 8, offset: 8B], tmp352
 1787      08
 347:sieve_extend.c ****         bitstorage[copy_word] = (bitstorage[source_word] >> shift_flipped) | (bitstorage[source_wor
 1788              		.loc 1 347 48 is_stmt 1 view .LVU516
 347:sieve_extend.c ****         bitstorage[copy_word] = (bitstorage[source_word] >> shift_flipped) | (bitstorage[source_wor
 1789              		.loc 1 347 12 view .LVU517
 1790 0ab4 4883C008 		add	rax, 8	# ivtmp.227,
 1791              	.L114:
 348:sieve_extend.c ****     }
 1792              		.loc 1 348 9 view .LVU518
 1793              	# sieve_extend.c:348:         bitstorage[copy_word] = (bitstorage[source_word] >> shift_flipped) | 
 348:sieve_extend.c ****     }
 1794              		.loc 1 348 58 is_stmt 0 view .LVU519
 1795 0ab8 C4E2BBF7 		shrx	rbx, QWORD PTR [rax], r8	# tmp354, MEM[base: _153, offset: 0B], _14
 1795      18
 1796              	# sieve_extend.c:348:         bitstorage[copy_word] = (bitstorage[source_word] >> shift_flipped) | 
 348:sieve_extend.c ****     }
 1797              		.loc 1 348 105 view .LVU520
 1798 0abd C462C9F7 		shlx	r14, QWORD PTR 8[rax], rsi	# tmp356, MEM[base: _153, offset: 8B], _12
 1798      7008
 1799              	# sieve_extend.c:348:         bitstorage[copy_word] = (bitstorage[source_word] >> shift_flipped) | 
 348:sieve_extend.c ****     }
 1800              		.loc 1 348 76 view .LVU521
 1801 0ac3 4C09F3   		or	rbx, r14	# tmp357, tmp356
 1802 0ac6 48895CD0 		mov	QWORD PTR 8[rax+rdx*8], rbx	# MEM[base: _153, index: _155, step: 8, offset: 8B], tmp357
 1802      08
 347:sieve_extend.c ****         bitstorage[copy_word] = (bitstorage[source_word] >> shift_flipped) | (bitstorage[source_wor
 1803              		.loc 1 347 48 is_stmt 1 view .LVU522
 347:sieve_extend.c ****         bitstorage[copy_word] = (bitstorage[source_word] >> shift_flipped) | (bitstorage[source_wor
 1804              		.loc 1 347 12 view .LVU523
 1805 0acb 4883C008 		add	rax, 8	# ivtmp.227,
 1806              	.L113:
 348:sieve_extend.c ****     }
 1807              		.loc 1 348 9 view .LVU524
 1808              	# sieve_extend.c:348:         bitstorage[copy_word] = (bitstorage[source_word] >> shift_flipped) | 
 348:sieve_extend.c ****     }
 1809              		.loc 1 348 58 is_stmt 0 view .LVU525
 1810 0acf C4E2BBF7 		shrx	rcx, QWORD PTR [rax], r8	# tmp359, MEM[base: _153, offset: 0B], _14
 1810      08
 1811              	# sieve_extend.c:348:         bitstorage[copy_word] = (bitstorage[source_word] >> shift_flipped) | 
 348:sieve_extend.c ****     }
 1812              		.loc 1 348 105 view .LVU526
 1813 0ad4 C462C9F7 		shlx	r12, QWORD PTR 8[rax], rsi	# tmp361, MEM[base: _153, offset: 8B], _12
 1813      6008
 1814              	# sieve_extend.c:348:         bitstorage[copy_word] = (bitstorage[source_word] >> shift_flipped) | 
 348:sieve_extend.c ****     }
 1815              		.loc 1 348 76 view .LVU527
 1816 0ada 4C09E1   		or	rcx, r12	# tmp362, tmp361
 1817 0add 48894CD0 		mov	QWORD PTR 8[rax+rdx*8], rcx	# MEM[base: _153, index: _155, step: 8, offset: 8B], tmp362
 1817      08
 347:sieve_extend.c ****         bitstorage[copy_word] = (bitstorage[source_word] >> shift_flipped) | (bitstorage[source_wor
 1818              		.loc 1 347 48 is_stmt 1 view .LVU528
GAS LISTING /tmp/ccG38KJh.s 			page 55


 347:sieve_extend.c ****         bitstorage[copy_word] = (bitstorage[source_word] >> shift_flipped) | (bitstorage[source_wor
 1819              		.loc 1 347 12 view .LVU529
 1820 0ae2 4883C008 		add	rax, 8	# ivtmp.227,
 1821              	.L112:
 348:sieve_extend.c ****     }
 1822              		.loc 1 348 9 view .LVU530
 1823              	# sieve_extend.c:348:         bitstorage[copy_word] = (bitstorage[source_word] >> shift_flipped) | 
 348:sieve_extend.c ****     }
 1824              		.loc 1 348 58 is_stmt 0 view .LVU531
 1825 0ae6 C462BBF7 		shrx	r11, QWORD PTR [rax], r8	# tmp364, MEM[base: _153, offset: 0B], _14
 1825      18
 1826              	# sieve_extend.c:348:         bitstorage[copy_word] = (bitstorage[source_word] >> shift_flipped) | 
 348:sieve_extend.c ****     }
 1827              		.loc 1 348 105 view .LVU532
 1828 0aeb C462C9F7 		shlx	r9, QWORD PTR 8[rax], rsi	# tmp366, MEM[base: _153, offset: 8B], _12
 1828      4808
 1829              	# sieve_extend.c:348:         bitstorage[copy_word] = (bitstorage[source_word] >> shift_flipped) | 
 348:sieve_extend.c ****     }
 1830              		.loc 1 348 76 view .LVU533
 1831 0af1 4D09CB   		or	r11, r9	# tmp367, tmp366
 1832 0af4 4C895CD0 		mov	QWORD PTR 8[rax+rdx*8], r11	# MEM[base: _153, index: _155, step: 8, offset: 8B], tmp367
 1832      08
 347:sieve_extend.c ****         bitstorage[copy_word] = (bitstorage[source_word] >> shift_flipped) | (bitstorage[source_wor
 1833              		.loc 1 347 48 is_stmt 1 view .LVU534
 347:sieve_extend.c ****         bitstorage[copy_word] = (bitstorage[source_word] >> shift_flipped) | (bitstorage[source_wor
 1834              		.loc 1 347 12 view .LVU535
 1835 0af9 4883C008 		add	rax, 8	# ivtmp.227,
 1836              	.L111:
 348:sieve_extend.c ****     }
 1837              		.loc 1 348 9 view .LVU536
 1838              	# sieve_extend.c:348:         bitstorage[copy_word] = (bitstorage[source_word] >> shift_flipped) | 
 348:sieve_extend.c ****     }
 1839              		.loc 1 348 58 is_stmt 0 view .LVU537
 1840 0afd C462BBF7 		shrx	r15, QWORD PTR [rax], r8	# tmp369, MEM[base: _153, offset: 0B], _14
 1840      38
 1841              	# sieve_extend.c:348:         bitstorage[copy_word] = (bitstorage[source_word] >> shift_flipped) | 
 348:sieve_extend.c ****     }
 1842              		.loc 1 348 105 view .LVU538
 1843 0b02 C462C9F7 		shlx	r10, QWORD PTR 8[rax], rsi	# tmp371, MEM[base: _153, offset: 8B], _12
 1843      5008
 1844              	# sieve_extend.c:348:         bitstorage[copy_word] = (bitstorage[source_word] >> shift_flipped) | 
 348:sieve_extend.c ****     }
 1845              		.loc 1 348 76 view .LVU539
 1846 0b08 4D09D7   		or	r15, r10	# tmp372, tmp371
 1847 0b0b 4C897CD0 		mov	QWORD PTR 8[rax+rdx*8], r15	# MEM[base: _153, index: _155, step: 8, offset: 8B], tmp372
 1847      08
 347:sieve_extend.c ****         bitstorage[copy_word] = (bitstorage[source_word] >> shift_flipped) | (bitstorage[source_wor
 1848              		.loc 1 347 48 is_stmt 1 view .LVU540
 347:sieve_extend.c ****         bitstorage[copy_word] = (bitstorage[source_word] >> shift_flipped) | (bitstorage[source_wor
 1849              		.loc 1 347 12 view .LVU541
 1850 0b10 4883C008 		add	rax, 8	# ivtmp.227,
 1851              	.L110:
 348:sieve_extend.c ****     }
 1852              		.loc 1 348 9 view .LVU542
 1853              	# sieve_extend.c:348:         bitstorage[copy_word] = (bitstorage[source_word] >> shift_flipped) | 
 348:sieve_extend.c ****     }
 1854              		.loc 1 348 58 is_stmt 0 view .LVU543
GAS LISTING /tmp/ccG38KJh.s 			page 56


 1855 0b14 C462BBF7 		shrx	r13, QWORD PTR [rax], r8	# tmp374, MEM[base: _153, offset: 0B], _14
 1855      28
 1856              	# sieve_extend.c:348:         bitstorage[copy_word] = (bitstorage[source_word] >> shift_flipped) | 
 348:sieve_extend.c ****     }
 1857              		.loc 1 348 105 view .LVU544
 1858 0b19 C4E2C9F7 		shlx	rbx, QWORD PTR 8[rax], rsi	# tmp376, MEM[base: _153, offset: 8B], _12
 1858      5808
 1859              	# sieve_extend.c:348:         bitstorage[copy_word] = (bitstorage[source_word] >> shift_flipped) | 
 348:sieve_extend.c ****     }
 1860              		.loc 1 348 76 view .LVU545
 1861 0b1f 4909DD   		or	r13, rbx	# tmp377, tmp376
 1862 0b22 4C896CD0 		mov	QWORD PTR 8[rax+rdx*8], r13	# MEM[base: _153, index: _155, step: 8, offset: 8B], tmp377
 1862      08
 347:sieve_extend.c ****         bitstorage[copy_word] = (bitstorage[source_word] >> shift_flipped) | (bitstorage[source_wor
 1863              		.loc 1 347 48 is_stmt 1 view .LVU546
 347:sieve_extend.c ****         bitstorage[copy_word] = (bitstorage[source_word] >> shift_flipped) | (bitstorage[source_wor
 1864              		.loc 1 347 12 view .LVU547
 1865 0b27 4883C008 		add	rax, 8	# ivtmp.227,
 1866              	.L109:
 348:sieve_extend.c ****     }
 1867              		.loc 1 348 9 view .LVU548
 1868              	# sieve_extend.c:348:         bitstorage[copy_word] = (bitstorage[source_word] >> shift_flipped) | 
 348:sieve_extend.c ****     }
 1869              		.loc 1 348 58 is_stmt 0 view .LVU549
 1870 0b2b C462BBF7 		shrx	r14, QWORD PTR [rax], r8	# tmp379, MEM[base: _153, offset: 0B], _14
 1870      30
 1871              	# sieve_extend.c:348:         bitstorage[copy_word] = (bitstorage[source_word] >> shift_flipped) | 
 348:sieve_extend.c ****     }
 1872              		.loc 1 348 105 view .LVU550
 1873 0b30 C4E2C9F7 		shlx	rcx, QWORD PTR 8[rax], rsi	# tmp381, MEM[base: _153, offset: 8B], _12
 1873      4808
 1874              	# sieve_extend.c:348:         bitstorage[copy_word] = (bitstorage[source_word] >> shift_flipped) | 
 348:sieve_extend.c ****     }
 1875              		.loc 1 348 76 view .LVU551
 1876 0b36 4909CE   		or	r14, rcx	# tmp382, tmp381
 1877 0b39 4C8974D0 		mov	QWORD PTR 8[rax+rdx*8], r14	# MEM[base: _153, index: _155, step: 8, offset: 8B], tmp382
 1877      08
 347:sieve_extend.c ****         bitstorage[copy_word] = (bitstorage[source_word] >> shift_flipped) | (bitstorage[source_wor
 1878              		.loc 1 347 48 is_stmt 1 view .LVU552
 347:sieve_extend.c ****         bitstorage[copy_word] = (bitstorage[source_word] >> shift_flipped) | (bitstorage[source_wor
 1879              		.loc 1 347 12 view .LVU553
 1880 0b3e 4883C008 		add	rax, 8	# ivtmp.227,
 1881              	# sieve_extend.c:347:     for (; copy_word <= destination_stop_word; ++copy_word, ++source_word ) {
 347:sieve_extend.c ****         bitstorage[copy_word] = (bitstorage[source_word] >> shift_flipped) | (bitstorage[source_wor
 1882              		.loc 1 347 5 is_stmt 0 view .LVU554
 1883 0b42 4839F8   		cmp	rax, rdi	# ivtmp.227, _161
 1884 0b45 0F84D3FE 		je	.L141	#,
 1884      FFFF
 1885              	.L53:
 348:sieve_extend.c ****     }
 1886              		.loc 1 348 9 is_stmt 1 view .LVU555
 1887              	# sieve_extend.c:348:         bitstorage[copy_word] = (bitstorage[source_word] >> shift_flipped) | 
 348:sieve_extend.c ****     }
 1888              		.loc 1 348 105 is_stmt 0 view .LVU556
 1889 0b4b C462C9F7 		shlx	r11, QWORD PTR 8[rax], rsi	# tmp247, MEM[base: _153, offset: 8B], _12
 1889      5808
 1890              	# sieve_extend.c:348:         bitstorage[copy_word] = (bitstorage[source_word] >> shift_flipped) | 
GAS LISTING /tmp/ccG38KJh.s 			page 57


 348:sieve_extend.c ****     }
 1891              		.loc 1 348 58 view .LVU557
 1892 0b51 C462BBF7 		shrx	r12, QWORD PTR [rax], r8	# tmp245, MEM[base: _153, offset: 0B], _14
 1892      20
 1893              	# sieve_extend.c:348:         bitstorage[copy_word] = (bitstorage[source_word] >> shift_flipped) | 
 348:sieve_extend.c ****     }
 1894              		.loc 1 348 76 view .LVU558
 1895 0b56 4D09DC   		or	r12, r11	# tmp249, tmp247
 1896 0b59 4C8964D0 		mov	QWORD PTR 8[rax+rdx*8], r12	# MEM[base: _153, index: _155, step: 8, offset: 8B], tmp249
 1896      08
 347:sieve_extend.c ****         bitstorage[copy_word] = (bitstorage[source_word] >> shift_flipped) | (bitstorage[source_wor
 1897              		.loc 1 347 48 is_stmt 1 view .LVU559
 347:sieve_extend.c ****         bitstorage[copy_word] = (bitstorage[source_word] >> shift_flipped) | (bitstorage[source_wor
 1898              		.loc 1 347 12 view .LVU560
 1899 0b5e 4C8D6810 		lea	r13, 16[rax]	# ivtmp.227,
 1900 0b62 4C8D6018 		lea	r12, 24[rax]	# ivtmp.227,
 1901              	# sieve_extend.c:348:         bitstorage[copy_word] = (bitstorage[source_word] >> shift_flipped) | 
 348:sieve_extend.c ****     }
 1902              		.loc 1 348 105 is_stmt 0 view .LVU561
 1903 0b66 C462C9F7 		shlx	r10, QWORD PTR 16[rax], rsi	# tmp310, MEM[base: _153, offset: 8B], _12
 1903      5010
 1904              	# sieve_extend.c:348:         bitstorage[copy_word] = (bitstorage[source_word] >> shift_flipped) | 
 348:sieve_extend.c ****     }
 1905              		.loc 1 348 58 view .LVU562
 1906 0b6c C462BBF7 		shrx	r15, QWORD PTR 8[rax], r8	# tmp308, MEM[base: _153, offset: 0B], _14
 1906      7808
 1907              	# sieve_extend.c:348:         bitstorage[copy_word] = (bitstorage[source_word] >> shift_flipped) | 
 348:sieve_extend.c ****     }
 1908              		.loc 1 348 76 view .LVU563
 1909 0b72 4D09D7   		or	r15, r10	# tmp311, tmp310
 1910 0b75 4C897CD0 		mov	QWORD PTR 16[rax+rdx*8], r15	# MEM[base: _153, index: _155, step: 8, offset: 8B], tmp311
 1910      10
 1911 0b7a 4C8D4808 		lea	r9, 8[rax]	# tmp257,
 348:sieve_extend.c ****     }
 1912              		.loc 1 348 9 is_stmt 1 view .LVU564
 347:sieve_extend.c ****         bitstorage[copy_word] = (bitstorage[source_word] >> shift_flipped) | (bitstorage[source_wor
 1913              		.loc 1 347 48 view .LVU565
 347:sieve_extend.c ****         bitstorage[copy_word] = (bitstorage[source_word] >> shift_flipped) | (bitstorage[source_wor
 1914              		.loc 1 347 12 view .LVU566
 348:sieve_extend.c ****     }
 1915              		.loc 1 348 9 view .LVU567
 1916 0b7e 4C8D4820 		lea	r9, 32[rax]	# ivtmp.227,
 1917              	# sieve_extend.c:348:         bitstorage[copy_word] = (bitstorage[source_word] >> shift_flipped) | 
 348:sieve_extend.c ****     }
 1918              		.loc 1 348 105 is_stmt 0 view .LVU568
 1919 0b82 C442C9F7 		shlx	r14, QWORD PTR 8[r13], rsi	# tmp316, MEM[base: _153, offset: 8B], _12
 1919      7508
 1920              	# sieve_extend.c:348:         bitstorage[copy_word] = (bitstorage[source_word] >> shift_flipped) | 
 348:sieve_extend.c ****     }
 1921              		.loc 1 348 58 view .LVU569
 1922 0b88 C4E2BBF7 		shrx	rbx, QWORD PTR 16[rax], r8	# tmp314, MEM[base: _153, offset: 0B], _14
 1922      5810
 1923              	# sieve_extend.c:348:         bitstorage[copy_word] = (bitstorage[source_word] >> shift_flipped) | 
 348:sieve_extend.c ****     }
 1924              		.loc 1 348 76 view .LVU570
 1925 0b8e 4C09F3   		or	rbx, r14	# tmp317, tmp316
 1926 0b91 48895CD0 		mov	QWORD PTR 24[rax+rdx*8], rbx	# MEM[base: _153, index: _155, step: 8, offset: 8B], tmp317
GAS LISTING /tmp/ccG38KJh.s 			page 58


 1926      18
 347:sieve_extend.c ****         bitstorage[copy_word] = (bitstorage[source_word] >> shift_flipped) | (bitstorage[source_wor
 1927              		.loc 1 347 48 is_stmt 1 view .LVU571
 347:sieve_extend.c ****         bitstorage[copy_word] = (bitstorage[source_word] >> shift_flipped) | (bitstorage[source_wor
 1928              		.loc 1 347 12 view .LVU572
 348:sieve_extend.c ****     }
 1929              		.loc 1 348 9 view .LVU573
 1930 0b96 4C8D6828 		lea	r13, 40[rax]	# ivtmp.227,
 1931              	# sieve_extend.c:348:         bitstorage[copy_word] = (bitstorage[source_word] >> shift_flipped) | 
 348:sieve_extend.c ****     }
 1932              		.loc 1 348 105 is_stmt 0 view .LVU574
 1933 0b9a C442C9F7 		shlx	r11, QWORD PTR 8[r12], rsi	# tmp322, MEM[base: _153, offset: 8B], _12
 1933      5C2408
 1934              	# sieve_extend.c:348:         bitstorage[copy_word] = (bitstorage[source_word] >> shift_flipped) | 
 348:sieve_extend.c ****     }
 1935              		.loc 1 348 58 view .LVU575
 1936 0ba1 C4E2BBF7 		shrx	rcx, QWORD PTR 24[rax], r8	# tmp320, MEM[base: _153, offset: 0B], _14
 1936      4818
 1937              	# sieve_extend.c:348:         bitstorage[copy_word] = (bitstorage[source_word] >> shift_flipped) | 
 348:sieve_extend.c ****     }
 1938              		.loc 1 348 76 view .LVU576
 1939 0ba7 4C09D9   		or	rcx, r11	# tmp323, tmp322
 1940 0baa 48894CD0 		mov	QWORD PTR 32[rax+rdx*8], rcx	# MEM[base: _153, index: _155, step: 8, offset: 8B], tmp323
 1940      20
 347:sieve_extend.c ****         bitstorage[copy_word] = (bitstorage[source_word] >> shift_flipped) | (bitstorage[source_wor
 1941              		.loc 1 347 48 is_stmt 1 view .LVU577
 347:sieve_extend.c ****         bitstorage[copy_word] = (bitstorage[source_word] >> shift_flipped) | (bitstorage[source_wor
 1942              		.loc 1 347 12 view .LVU578
 348:sieve_extend.c ****     }
 1943              		.loc 1 348 9 view .LVU579
 1944 0baf 4C8D6030 		lea	r12, 48[rax]	# ivtmp.227,
 1945              	# sieve_extend.c:348:         bitstorage[copy_word] = (bitstorage[source_word] >> shift_flipped) | 
 348:sieve_extend.c ****     }
 1946              		.loc 1 348 105 is_stmt 0 view .LVU580
 1947 0bb3 C442C9F7 		shlx	r10, QWORD PTR 8[r9], rsi	# tmp328, MEM[base: _153, offset: 8B], _12
 1947      5108
 1948              	# sieve_extend.c:348:         bitstorage[copy_word] = (bitstorage[source_word] >> shift_flipped) | 
 348:sieve_extend.c ****     }
 1949              		.loc 1 348 58 view .LVU581
 1950 0bb9 C462BBF7 		shrx	r15, QWORD PTR 32[rax], r8	# tmp326, MEM[base: _153, offset: 0B], _14
 1950      7820
 1951              	# sieve_extend.c:348:         bitstorage[copy_word] = (bitstorage[source_word] >> shift_flipped) | 
 348:sieve_extend.c ****     }
 1952              		.loc 1 348 76 view .LVU582
 1953 0bbf 4D09D7   		or	r15, r10	# tmp329, tmp328
 1954 0bc2 4C897CD0 		mov	QWORD PTR 40[rax+rdx*8], r15	# MEM[base: _153, index: _155, step: 8, offset: 8B], tmp329
 1954      28
 347:sieve_extend.c ****         bitstorage[copy_word] = (bitstorage[source_word] >> shift_flipped) | (bitstorage[source_wor
 1955              		.loc 1 347 48 is_stmt 1 view .LVU583
 347:sieve_extend.c ****         bitstorage[copy_word] = (bitstorage[source_word] >> shift_flipped) | (bitstorage[source_wor
 1956              		.loc 1 347 12 view .LVU584
 348:sieve_extend.c ****     }
 1957              		.loc 1 348 9 view .LVU585
 1958 0bc7 4C8D4838 		lea	r9, 56[rax]	# ivtmp.227,
 1959              	# sieve_extend.c:348:         bitstorage[copy_word] = (bitstorage[source_word] >> shift_flipped) | 
 348:sieve_extend.c ****     }
 1960              		.loc 1 348 58 is_stmt 0 view .LVU586
GAS LISTING /tmp/ccG38KJh.s 			page 59


 1961 0bcb C4E2BBF7 		shrx	rbx, QWORD PTR 40[rax], r8	# tmp332, MEM[base: _153, offset: 0B], _14
 1961      5828
 1962              	# sieve_extend.c:348:         bitstorage[copy_word] = (bitstorage[source_word] >> shift_flipped) | 
 348:sieve_extend.c ****     }
 1963              		.loc 1 348 105 view .LVU587
 1964 0bd1 C442C9F7 		shlx	r14, QWORD PTR 8[r13], rsi	# tmp334, MEM[base: _153, offset: 8B], _12
 1964      7508
 1965              	# sieve_extend.c:348:         bitstorage[copy_word] = (bitstorage[source_word] >> shift_flipped) | 
 348:sieve_extend.c ****     }
 1966              		.loc 1 348 76 view .LVU588
 1967 0bd7 4C09F3   		or	rbx, r14	# tmp335, tmp334
 1968 0bda 48895CD0 		mov	QWORD PTR 48[rax+rdx*8], rbx	# MEM[base: _153, index: _155, step: 8, offset: 8B], tmp335
 1968      30
 347:sieve_extend.c ****         bitstorage[copy_word] = (bitstorage[source_word] >> shift_flipped) | (bitstorage[source_wor
 1969              		.loc 1 347 48 is_stmt 1 view .LVU589
 347:sieve_extend.c ****         bitstorage[copy_word] = (bitstorage[source_word] >> shift_flipped) | (bitstorage[source_wor
 1970              		.loc 1 347 12 view .LVU590
 348:sieve_extend.c ****     }
 1971              		.loc 1 348 9 view .LVU591
 1972              	# sieve_extend.c:348:         bitstorage[copy_word] = (bitstorage[source_word] >> shift_flipped) | 
 348:sieve_extend.c ****     }
 1973              		.loc 1 348 58 is_stmt 0 view .LVU592
 1974 0bdf C4E2BBF7 		shrx	rcx, QWORD PTR 48[rax], r8	# tmp338, MEM[base: _153, offset: 0B], _14
 1974      4830
 1975              	# sieve_extend.c:348:         bitstorage[copy_word] = (bitstorage[source_word] >> shift_flipped) | 
 348:sieve_extend.c ****     }
 1976              		.loc 1 348 105 view .LVU593
 1977 0be5 C442C9F7 		shlx	r11, QWORD PTR 8[r12], rsi	# tmp340, MEM[base: _153, offset: 8B], _12
 1977      5C2408
 1978              	# sieve_extend.c:348:         bitstorage[copy_word] = (bitstorage[source_word] >> shift_flipped) | 
 348:sieve_extend.c ****     }
 1979              		.loc 1 348 76 view .LVU594
 1980 0bec 4C09D9   		or	rcx, r11	# tmp341, tmp340
 1981 0bef 48894CD0 		mov	QWORD PTR 56[rax+rdx*8], rcx	# MEM[base: _153, index: _155, step: 8, offset: 8B], tmp341
 1981      38
 347:sieve_extend.c ****         bitstorage[copy_word] = (bitstorage[source_word] >> shift_flipped) | (bitstorage[source_wor
 1982              		.loc 1 347 48 is_stmt 1 view .LVU595
 347:sieve_extend.c ****         bitstorage[copy_word] = (bitstorage[source_word] >> shift_flipped) | (bitstorage[source_wor
 1983              		.loc 1 347 12 view .LVU596
 348:sieve_extend.c ****     }
 1984              		.loc 1 348 9 view .LVU597
 1985              	# sieve_extend.c:348:         bitstorage[copy_word] = (bitstorage[source_word] >> shift_flipped) | 
 348:sieve_extend.c ****     }
 1986              		.loc 1 348 58 is_stmt 0 view .LVU598
 1987 0bf4 C462BBF7 		shrx	r15, QWORD PTR 56[rax], r8	# tmp344, MEM[base: _153, offset: 0B], _14
 1987      7838
 1988              	# sieve_extend.c:348:         bitstorage[copy_word] = (bitstorage[source_word] >> shift_flipped) | 
 348:sieve_extend.c ****     }
 1989              		.loc 1 348 105 view .LVU599
 1990 0bfa C442C9F7 		shlx	r10, QWORD PTR 8[r9], rsi	# tmp346, MEM[base: _153, offset: 8B], _12
 1990      5108
 1991              	# sieve_extend.c:348:         bitstorage[copy_word] = (bitstorage[source_word] >> shift_flipped) | 
 348:sieve_extend.c ****     }
 1992              		.loc 1 348 76 view .LVU600
 1993 0c00 4D09D7   		or	r15, r10	# tmp347, tmp346
 1994 0c03 4C897CD0 		mov	QWORD PTR 64[rax+rdx*8], r15	# MEM[base: _153, index: _155, step: 8, offset: 8B], tmp347
 1994      40
GAS LISTING /tmp/ccG38KJh.s 			page 60


 347:sieve_extend.c ****         bitstorage[copy_word] = (bitstorage[source_word] >> shift_flipped) | (bitstorage[source_wor
 1995              		.loc 1 347 48 is_stmt 1 view .LVU601
 347:sieve_extend.c ****         bitstorage[copy_word] = (bitstorage[source_word] >> shift_flipped) | (bitstorage[source_wor
 1996              		.loc 1 347 12 view .LVU602
 1997 0c08 4883C040 		add	rax, 64	# ivtmp.227,
 1998              	# sieve_extend.c:347:     for (; copy_word <= destination_stop_word; ++copy_word, ++source_word ) {
 347:sieve_extend.c ****         bitstorage[copy_word] = (bitstorage[source_word] >> shift_flipped) | (bitstorage[source_wor
 1999              		.loc 1 347 5 is_stmt 0 view .LVU603
 2000 0c0c 4839F8   		cmp	rax, rdi	# ivtmp.227, _161
 2001 0c0f 0F8536FF 		jne	.L53	#,
 2001      FFFF
 2002 0c15 E904FEFF 		jmp	.L141	#
 2002      FF
 2003              		.cfi_endproc
 2004              	.LFE61:
 2006 0c1a 660F1F44 		.p2align 4
 2006      0000
 2008              	continuePattern_aligned:
 2009              	.LVL84:
 2010              	.LFB60:
 309:sieve_extend.c ****     debug printf("Extending sieve size %ju in %ju bit range (%ju-%ju) using aligned (%ju copies)\n"
 2011              		.loc 1 309 146 is_stmt 1 view -0
 2012              		.cfi_startproc
 310:sieve_extend.c **** 
 2013              		.loc 1 310 5 view .LVU605
 312:sieve_extend.c ****     const counter_t copy_start = source_start + size;
 2014              		.loc 1 312 5 view .LVU606
 2015              	# sieve_extend.c:309: static void continuePattern_aligned(bitword_t* bitstorage, const counter_t so
 309:sieve_extend.c ****     debug printf("Extending sieve size %ju in %ju bit range (%ju-%ju) using aligned (%ju copies)\n"
 2016              		.loc 1 309 146 is_stmt 0 view .LVU607
 2017 0c20 55       		push	rbp	#
 2018              		.cfi_def_cfa_offset 16
 2019              		.cfi_offset 6, -16
 2020 0c21 4889E5   		mov	rbp, rsp	#,
 2021              		.cfi_def_cfa_register 6
 2022 0c24 4157     		push	r15	#
 2023 0c26 4156     		push	r14	#
 2024              		.cfi_offset 15, -24
 2025              		.cfi_offset 14, -32
 2026              	# sieve_extend.c:317:     bitstorage[copy_word] = bitstorage[source_word] & ~chopmask(copy_start);
 317:sieve_extend.c **** 
 2027              		.loc 1 317 39 view .LVU608
 2028 0c28 4989FE   		mov	r14, rdi	# _5, bitstorage
 2029              	# sieve_extend.c:309: static void continuePattern_aligned(bitword_t* bitstorage, const counter_t so
 309:sieve_extend.c ****     debug printf("Extending sieve size %ju in %ju bit range (%ju-%ju) using aligned (%ju copies)\n"
 2030              		.loc 1 309 146 view .LVU609
 2031 0c2b 4155     		push	r13	#
 2032 0c2d 4154     		push	r12	#
 2033              		.cfi_offset 13, -40
 2034              		.cfi_offset 12, -48
 2035 0c2f 4989D4   		mov	r12, rdx	# size, tmp267
 2036              	# sieve_extend.c:313:     const counter_t copy_start = source_start + size;
 313:sieve_extend.c ****     counter_t source_word = wordindex(source_start);
 2037              		.loc 1 313 21 view .LVU610
 2038 0c32 4801F2   		add	rdx, rsi	# copy_start, source_start
 2039              	.LVL85:
 2040              	# sieve_extend.c:309: static void continuePattern_aligned(bitword_t* bitstorage, const counter_t so
GAS LISTING /tmp/ccG38KJh.s 			page 61


 309:sieve_extend.c ****     debug printf("Extending sieve size %ju in %ju bit range (%ju-%ju) using aligned (%ju copies)\n"
 2041              		.loc 1 309 146 view .LVU611
 2042 0c35 53       		push	rbx	#
 2043              	# sieve_extend.c:314:     counter_t source_word = wordindex(source_start);
 314:sieve_extend.c ****     counter_t copy_word = wordindex(copy_start);
 2044              		.loc 1 314 15 view .LVU612
 2045 0c36 48C1EE06 		shr	rsi, 6	# source_start,
 2046              	.LVL86:
 2047              	# sieve_extend.c:315:     counter_t copy_word = wordindex(copy_start);
 315:sieve_extend.c ****     
 2048              		.loc 1 315 15 view .LVU613
 2049 0c3a 4889D0   		mov	rax, rdx	# ivtmp.279, copy_start
 2050              	# sieve_extend.c:309: static void continuePattern_aligned(bitword_t* bitstorage, const counter_t so
 309:sieve_extend.c ****     debug printf("Extending sieve size %ju in %ju bit range (%ju-%ju) using aligned (%ju copies)\n"
 2051              		.loc 1 309 146 view .LVU614
 2052 0c3d 4883E4E0 		and	rsp, -32	#,
 2053 0c41 4883EC20 		sub	rsp, 32	#,
 2054              		.cfi_offset 3, -56
 2055              	# sieve_extend.c:312:     const counter_t destination_stop_word = wordindex(destination_stop);
 312:sieve_extend.c ****     const counter_t copy_start = source_start + size;
 2056              		.loc 1 312 21 view .LVU615
 2057 0c45 4889CB   		mov	rbx, rcx	# tmp268, tmp268
 2058              	# sieve_extend.c:315:     counter_t copy_word = wordindex(copy_start);
 315:sieve_extend.c ****     
 2059              		.loc 1 315 15 view .LVU616
 2060 0c48 48C1E806 		shr	rax, 6	# ivtmp.279,
 2061              	# sieve_extend.c:317:     bitstorage[copy_word] = bitstorage[source_word] & ~chopmask(copy_start);
 317:sieve_extend.c **** 
 2062              		.loc 1 317 56 view .LVU617
 2063 0c4c 89D1     		mov	ecx, edx	# tmp159, copy_start
 2064              	.LVL87:
 2065              	# sieve_extend.c:314:     counter_t source_word = wordindex(source_start);
 314:sieve_extend.c ****     counter_t copy_word = wordindex(copy_start);
 2066              		.loc 1 314 15 view .LVU618
 2067 0c4e 48893424 		mov	QWORD PTR [rsp], rsi	# %sfp, source_word
 2068              	# sieve_extend.c:317:     bitstorage[copy_word] = bitstorage[source_word] & ~chopmask(copy_start);
 317:sieve_extend.c **** 
 2069              		.loc 1 317 39 view .LVU619
 2070 0c52 48C1E603 		sal	rsi, 3	# _4,
 2071 0c56 4901F6   		add	r14, rsi	# _5, _4
 2072              	# sieve_extend.c:317:     bitstorage[copy_word] = bitstorage[source_word] & ~chopmask(copy_start);
 317:sieve_extend.c **** 
 2073              		.loc 1 317 56 view .LVU620
 2074 0c59 F7D1     		not	ecx	# tmp159
 2075 0c5b 48C7C2FF 		mov	rdx, -1	# tmp162,
 2075      FFFFFF
 2076              	# sieve_extend.c:312:     const counter_t destination_stop_word = wordindex(destination_stop);
 312:sieve_extend.c ****     const counter_t copy_start = source_start + size;
 2077              		.loc 1 312 21 view .LVU621
 2078 0c62 48C1EB06 		shr	rbx, 6	# tmp268,
 2079              	.LVL88:
 313:sieve_extend.c ****     counter_t source_word = wordindex(source_start);
 2080              		.loc 1 313 5 is_stmt 1 view .LVU622
 314:sieve_extend.c ****     counter_t copy_word = wordindex(copy_start);
 2081              		.loc 1 314 5 view .LVU623
 315:sieve_extend.c ****     
 2082              		.loc 1 315 5 view .LVU624
GAS LISTING /tmp/ccG38KJh.s 			page 62


 317:sieve_extend.c **** 
 2083              		.loc 1 317 5 view .LVU625
 2084              	# sieve_extend.c:319:     while (copy_word + size <= destination_stop_word) {
 319:sieve_extend.c ****         memcpy(&bitstorage[copy_word], &bitstorage[source_word], (uintmax_t)size*sizeof(bitword_t) 
 2085              		.loc 1 319 22 is_stmt 0 view .LVU626
 2086 0c66 4D8D0C04 		lea	r9, [r12+rax]	# ivtmp.279,
 2087              	# sieve_extend.c:317:     bitstorage[copy_word] = bitstorage[source_word] & ~chopmask(copy_start);
 317:sieve_extend.c **** 
 2088              		.loc 1 317 39 view .LVU627
 2089 0c6a 48897424 		mov	QWORD PTR 8[rsp], rsi	# %sfp, _4
 2089      08
 2090              	# sieve_extend.c:309: static void continuePattern_aligned(bitword_t* bitstorage, const counter_t so
 309:sieve_extend.c ****     debug printf("Extending sieve size %ju in %ju bit range (%ju-%ju) using aligned (%ju copies)\n"
 2091              		.loc 1 309 146 view .LVU628
 2092 0c6f 48897C24 		mov	QWORD PTR 16[rsp], rdi	# %sfp, bitstorage
 2092      10
 2093              	# sieve_extend.c:317:     bitstorage[copy_word] = bitstorage[source_word] & ~chopmask(copy_start);
 317:sieve_extend.c **** 
 2094              		.loc 1 317 56 view .LVU629
 2095 0c74 C4E2F3F7 		shrx	rsi, rdx, rcx	# tmp161, tmp162, tmp159
 2095      F2
 2096              	# sieve_extend.c:317:     bitstorage[copy_word] = bitstorage[source_word] & ~chopmask(copy_start);
 317:sieve_extend.c **** 
 2097              		.loc 1 317 53 view .LVU630
 2098 0c79 C442C8F2 		andn	r8, rsi, QWORD PTR [r14]	# tmp165, tmp161, *_5
 2098      06
 2099              	# sieve_extend.c:317:     bitstorage[copy_word] = bitstorage[source_word] & ~chopmask(copy_start);
 317:sieve_extend.c **** 
 2100              		.loc 1 317 27 view .LVU631
 2101 0c7e 4C8904C7 		mov	QWORD PTR [rdi+rax*8], r8	# *_13, tmp165
 319:sieve_extend.c ****         memcpy(&bitstorage[copy_word], &bitstorage[source_word], (uintmax_t)size*sizeof(bitword_t) 
 2102              		.loc 1 319 5 is_stmt 1 view .LVU632
 319:sieve_extend.c ****         memcpy(&bitstorage[copy_word], &bitstorage[source_word], (uintmax_t)size*sizeof(bitword_t) 
 2103              		.loc 1 319 11 view .LVU633
 2104 0c82 4C39CB   		cmp	rbx, r9	# destination_stop_word, ivtmp.279
 2105 0c85 0F824D01 		jb	.L144	#,
 2105      0000
 2106 0c8b 4C8D2CC5 		lea	r13, 0[0+rax*8]	# _12,
 2106      00000000 
 2107 0c93 4901FD   		add	r13, rdi	# tmp166, bitstorage
 2108 0c96 4A8D04CD 		lea	rax, 0[0+r9*8]	# tmp167,
 2108      00000000 
 2109              	# sieve_extend.c:320:         memcpy(&bitstorage[copy_word], &bitstorage[source_word], (uintmax_t)s
 320:sieve_extend.c ****         copy_word += size;
 2110              		.loc 1 320 9 is_stmt 0 view .LVU634
 2111 0c9e 4E8D3CE5 		lea	r15, 0[0+r12*8]	# _15,
 2111      00000000 
 2112 0ca6 4929C5   		sub	r13, rax	# _135, tmp167
 2113              	.LVL89:
 2114              	.L145:
 320:sieve_extend.c ****         copy_word += size;
 2115              		.loc 1 320 9 is_stmt 1 view .LVU635
 2116              	.LBB377:
 2117              	.LBI377:
 2118              		.file 2 "/usr/include/x86_64-linux-gnu/bits/string_fortified.h"
   1:/usr/include/x86_64-linux-gnu/bits/string_fortified.h **** /* Copyright (C) 2004-2020 Free Software Foundation, Inc.
   2:/usr/include/x86_64-linux-gnu/bits/string_fortified.h ****    This file is part of the GNU C Library.
GAS LISTING /tmp/ccG38KJh.s 			page 63


   3:/usr/include/x86_64-linux-gnu/bits/string_fortified.h **** 
   4:/usr/include/x86_64-linux-gnu/bits/string_fortified.h ****    The GNU C Library is free software; you can redistribute it and/or
   5:/usr/include/x86_64-linux-gnu/bits/string_fortified.h ****    modify it under the terms of the GNU Lesser General Public
   6:/usr/include/x86_64-linux-gnu/bits/string_fortified.h ****    License as published by the Free Software Foundation; either
   7:/usr/include/x86_64-linux-gnu/bits/string_fortified.h ****    version 2.1 of the License, or (at your option) any later version.
   8:/usr/include/x86_64-linux-gnu/bits/string_fortified.h **** 
   9:/usr/include/x86_64-linux-gnu/bits/string_fortified.h ****    The GNU C Library is distributed in the hope that it will be useful,
  10:/usr/include/x86_64-linux-gnu/bits/string_fortified.h ****    but WITHOUT ANY WARRANTY; without even the implied warranty of
  11:/usr/include/x86_64-linux-gnu/bits/string_fortified.h ****    MERCHANTABILITY or FITNESS FOR A PARTICULAR PURPOSE.  See the GNU
  12:/usr/include/x86_64-linux-gnu/bits/string_fortified.h ****    Lesser General Public License for more details.
  13:/usr/include/x86_64-linux-gnu/bits/string_fortified.h **** 
  14:/usr/include/x86_64-linux-gnu/bits/string_fortified.h ****    You should have received a copy of the GNU Lesser General Public
  15:/usr/include/x86_64-linux-gnu/bits/string_fortified.h ****    License along with the GNU C Library; if not, see
  16:/usr/include/x86_64-linux-gnu/bits/string_fortified.h ****    <https://www.gnu.org/licenses/>.  */
  17:/usr/include/x86_64-linux-gnu/bits/string_fortified.h **** 
  18:/usr/include/x86_64-linux-gnu/bits/string_fortified.h **** #ifndef _BITS_STRING_FORTIFIED_H
  19:/usr/include/x86_64-linux-gnu/bits/string_fortified.h **** #define _BITS_STRING_FORTIFIED_H 1
  20:/usr/include/x86_64-linux-gnu/bits/string_fortified.h **** 
  21:/usr/include/x86_64-linux-gnu/bits/string_fortified.h **** #ifndef _STRING_H
  22:/usr/include/x86_64-linux-gnu/bits/string_fortified.h **** # error "Never use <bits/string_fortified.h> directly; include <string.h> instead."
  23:/usr/include/x86_64-linux-gnu/bits/string_fortified.h **** #endif
  24:/usr/include/x86_64-linux-gnu/bits/string_fortified.h **** 
  25:/usr/include/x86_64-linux-gnu/bits/string_fortified.h **** #if !__GNUC_PREREQ (5,0)
  26:/usr/include/x86_64-linux-gnu/bits/string_fortified.h **** __warndecl (__warn_memset_zero_len,
  27:/usr/include/x86_64-linux-gnu/bits/string_fortified.h **** 	    "memset used with constant zero length parameter; this could be due to transposed parameters")
  28:/usr/include/x86_64-linux-gnu/bits/string_fortified.h **** #endif
  29:/usr/include/x86_64-linux-gnu/bits/string_fortified.h **** 
  30:/usr/include/x86_64-linux-gnu/bits/string_fortified.h **** __fortify_function void *
  31:/usr/include/x86_64-linux-gnu/bits/string_fortified.h **** __NTH (memcpy (void *__restrict __dest, const void *__restrict __src,
 2119              		.loc 2 31 1 view .LVU636
 2120              	.LBB378:
  32:/usr/include/x86_64-linux-gnu/bits/string_fortified.h **** 	       size_t __len))
  33:/usr/include/x86_64-linux-gnu/bits/string_fortified.h **** {
  34:/usr/include/x86_64-linux-gnu/bits/string_fortified.h ****   return __builtin___memcpy_chk (__dest, __src, __len, __bos0 (__dest));
 2121              		.loc 2 34 3 view .LVU637
 2122              	# /usr/include/x86_64-linux-gnu/bits/string_fortified.h:34:   return __builtin___memcpy_chk (__dest
 2123              		.loc 2 34 10 is_stmt 0 view .LVU638
 2124 0ca9 4B8D7CCD 		lea	rdi, 0[r13+r9*8]	# tmp169,
 2124      00
 2125 0cae 4C89FA   		mov	rdx, r15	#, _15
 2126 0cb1 4C89F6   		mov	rsi, r14	#, _5
 2127 0cb4 4C894C24 		mov	QWORD PTR 24[rsp], r9	# %sfp, ivtmp.279
 2127      18
 2128 0cb9 E8000000 		call	memcpy@PLT	#
 2128      00
 2129              	.LVL90:
 2130              		.loc 2 34 10 view .LVU639
 2131              	.LBE378:
 2132              	.LBE377:
 321:sieve_extend.c ****     }
 2133              		.loc 1 321 9 is_stmt 1 view .LVU640
 319:sieve_extend.c ****         memcpy(&bitstorage[copy_word], &bitstorage[source_word], (uintmax_t)size*sizeof(bitword_t) 
 2134              		.loc 1 319 11 view .LVU641
 2135 0cbe 488B4424 		mov	rax, QWORD PTR 24[rsp]	# ivtmp.279, %sfp
 2135      18
 2136 0cc3 4E8D0C20 		lea	r9, [rax+r12]	# ivtmp.279,
 2137 0cc7 4C39CB   		cmp	rbx, r9	# destination_stop_word, ivtmp.279
GAS LISTING /tmp/ccG38KJh.s 			page 64


 2138 0cca 0F820801 		jb	.L144	#,
 2138      0000
 320:sieve_extend.c ****         copy_word += size;
 2139              		.loc 1 320 9 view .LVU642
 2140              	.LVL91:
 2141              	.LBB386:
  31:/usr/include/x86_64-linux-gnu/bits/string_fortified.h **** 	       size_t __len))
 2142              		.loc 2 31 1 view .LVU643
 2143              	.LBB379:
 2144              		.loc 2 34 3 view .LVU644
 2145              	# /usr/include/x86_64-linux-gnu/bits/string_fortified.h:34:   return __builtin___memcpy_chk (__dest
 2146              		.loc 2 34 10 is_stmt 0 view .LVU645
 2147 0cd0 4B8D7CCD 		lea	rdi, 0[r13+r9*8]	# tmp246,
 2147      00
 2148 0cd5 4C89FA   		mov	rdx, r15	#, _15
 2149 0cd8 4C89F6   		mov	rsi, r14	#, _5
 2150 0cdb 4C894C24 		mov	QWORD PTR 24[rsp], r9	# %sfp, ivtmp.279
 2150      18
 2151              	.LVL92:
 2152              		.loc 2 34 10 view .LVU646
 2153 0ce0 E8000000 		call	memcpy@PLT	#
 2153      00
 2154              	.LVL93:
 2155              		.loc 2 34 10 view .LVU647
 2156              	.LBE379:
 2157              	.LBE386:
 321:sieve_extend.c ****     }
 2158              		.loc 1 321 9 is_stmt 1 view .LVU648
 319:sieve_extend.c ****         memcpy(&bitstorage[copy_word], &bitstorage[source_word], (uintmax_t)size*sizeof(bitword_t) 
 2159              		.loc 1 319 11 view .LVU649
 2160 0ce5 488B4424 		mov	rax, QWORD PTR 24[rsp]	# ivtmp.279, %sfp
 2160      18
 2161 0cea 4E8D1420 		lea	r10, [rax+r12]	# ivtmp.279,
 2162 0cee 4C39D3   		cmp	rbx, r10	# destination_stop_word, ivtmp.279
 2163 0cf1 0F82E100 		jb	.L144	#,
 2163      0000
 320:sieve_extend.c ****         copy_word += size;
 2164              		.loc 1 320 9 view .LVU650
 2165              	.LVL94:
 2166              	.LBB387:
  31:/usr/include/x86_64-linux-gnu/bits/string_fortified.h **** 	       size_t __len))
 2167              		.loc 2 31 1 view .LVU651
 2168              	.LBB380:
 2169              		.loc 2 34 3 view .LVU652
 2170              	# /usr/include/x86_64-linux-gnu/bits/string_fortified.h:34:   return __builtin___memcpy_chk (__dest
 2171              		.loc 2 34 10 is_stmt 0 view .LVU653
 2172 0cf7 4B8D7CD5 		lea	rdi, 0[r13+r10*8]	# tmp249,
 2172      00
 2173 0cfc 4C89FA   		mov	rdx, r15	#, _15
 2174 0cff 4C89F6   		mov	rsi, r14	#, _5
 2175 0d02 4C895424 		mov	QWORD PTR 24[rsp], r10	# %sfp, ivtmp.279
 2175      18
 2176 0d07 E8000000 		call	memcpy@PLT	#
 2176      00
 2177              	.LVL95:
 2178              		.loc 2 34 10 view .LVU654
 2179              	.LBE380:
GAS LISTING /tmp/ccG38KJh.s 			page 65


 2180              	.LBE387:
 321:sieve_extend.c ****     }
 2181              		.loc 1 321 9 is_stmt 1 view .LVU655
 319:sieve_extend.c ****         memcpy(&bitstorage[copy_word], &bitstorage[source_word], (uintmax_t)size*sizeof(bitword_t) 
 2182              		.loc 1 319 11 view .LVU656
 2183 0d0c 488B4424 		mov	rax, QWORD PTR 24[rsp]	# ivtmp.279, %sfp
 2183      18
 2184 0d11 4E8D1C20 		lea	r11, [rax+r12]	# ivtmp.279,
 2185 0d15 4C39DB   		cmp	rbx, r11	# destination_stop_word, ivtmp.279
 2186 0d18 0F82BA00 		jb	.L144	#,
 2186      0000
 320:sieve_extend.c ****         copy_word += size;
 2187              		.loc 1 320 9 view .LVU657
 2188              	.LVL96:
 2189              	.LBB388:
  31:/usr/include/x86_64-linux-gnu/bits/string_fortified.h **** 	       size_t __len))
 2190              		.loc 2 31 1 view .LVU658
 2191              	.LBB381:
 2192              		.loc 2 34 3 view .LVU659
 2193              	# /usr/include/x86_64-linux-gnu/bits/string_fortified.h:34:   return __builtin___memcpy_chk (__dest
 2194              		.loc 2 34 10 is_stmt 0 view .LVU660
 2195 0d1e 4B8D7CDD 		lea	rdi, 0[r13+r11*8]	# tmp252,
 2195      00
 2196 0d23 4C89FA   		mov	rdx, r15	#, _15
 2197 0d26 4C89F6   		mov	rsi, r14	#, _5
 2198 0d29 4C895C24 		mov	QWORD PTR 24[rsp], r11	# %sfp, ivtmp.279
 2198      18
 2199 0d2e E8000000 		call	memcpy@PLT	#
 2199      00
 2200              	.LVL97:
 2201              		.loc 2 34 10 view .LVU661
 2202              	.LBE381:
 2203              	.LBE388:
 321:sieve_extend.c ****     }
 2204              		.loc 1 321 9 is_stmt 1 view .LVU662
 319:sieve_extend.c ****         memcpy(&bitstorage[copy_word], &bitstorage[source_word], (uintmax_t)size*sizeof(bitword_t) 
 2205              		.loc 1 319 11 view .LVU663
 2206 0d33 488B4424 		mov	rax, QWORD PTR 24[rsp]	# ivtmp.279, %sfp
 2206      18
 2207 0d38 4A8D0C20 		lea	rcx, [rax+r12]	# ivtmp.279,
 2208 0d3c 4839CB   		cmp	rbx, rcx	# destination_stop_word, ivtmp.279
 2209 0d3f 0F829300 		jb	.L144	#,
 2209      0000
 320:sieve_extend.c ****         copy_word += size;
 2210              		.loc 1 320 9 view .LVU664
 2211              	.LVL98:
 2212              	.LBB389:
  31:/usr/include/x86_64-linux-gnu/bits/string_fortified.h **** 	       size_t __len))
 2213              		.loc 2 31 1 view .LVU665
 2214              	.LBB382:
 2215              		.loc 2 34 3 view .LVU666
 2216              	# /usr/include/x86_64-linux-gnu/bits/string_fortified.h:34:   return __builtin___memcpy_chk (__dest
 2217              		.loc 2 34 10 is_stmt 0 view .LVU667
 2218 0d45 4C89FA   		mov	rdx, r15	#, _15
 2219 0d48 498D7CCD 		lea	rdi, 0[r13+rcx*8]	# tmp255,
 2219      00
 2220 0d4d 4C89F6   		mov	rsi, r14	#, _5
GAS LISTING /tmp/ccG38KJh.s 			page 66


 2221 0d50 48894C24 		mov	QWORD PTR 24[rsp], rcx	# %sfp, ivtmp.279
 2221      18
 2222 0d55 E8000000 		call	memcpy@PLT	#
 2222      00
 2223              	.LVL99:
 2224              		.loc 2 34 10 view .LVU668
 2225              	.LBE382:
 2226              	.LBE389:
 321:sieve_extend.c ****     }
 2227              		.loc 1 321 9 is_stmt 1 view .LVU669
 319:sieve_extend.c ****         memcpy(&bitstorage[copy_word], &bitstorage[source_word], (uintmax_t)size*sizeof(bitword_t) 
 2228              		.loc 1 319 11 view .LVU670
 2229 0d5a 488B4424 		mov	rax, QWORD PTR 24[rsp]	# ivtmp.279, %sfp
 2229      18
 2230 0d5f 4A8D1420 		lea	rdx, [rax+r12]	# ivtmp.279,
 2231 0d63 4839D3   		cmp	rbx, rdx	# destination_stop_word, ivtmp.279
 2232 0d66 7270     		jb	.L144	#,
 320:sieve_extend.c ****         copy_word += size;
 2233              		.loc 1 320 9 view .LVU671
 2234              	.LVL100:
 2235              	.LBB390:
  31:/usr/include/x86_64-linux-gnu/bits/string_fortified.h **** 	       size_t __len))
 2236              		.loc 2 31 1 view .LVU672
 2237              	.LBB383:
 2238              		.loc 2 34 3 view .LVU673
 2239              	# /usr/include/x86_64-linux-gnu/bits/string_fortified.h:34:   return __builtin___memcpy_chk (__dest
 2240              		.loc 2 34 10 is_stmt 0 view .LVU674
 2241 0d68 48895424 		mov	QWORD PTR 24[rsp], rdx	# %sfp, ivtmp.279
 2241      18
 2242 0d6d 498D7CD5 		lea	rdi, 0[r13+rdx*8]	# tmp258,
 2242      00
 2243 0d72 4C89F6   		mov	rsi, r14	#, _5
 2244 0d75 4C89FA   		mov	rdx, r15	#, _15
 2245 0d78 E8000000 		call	memcpy@PLT	#
 2245      00
 2246              	.LVL101:
 2247              		.loc 2 34 10 view .LVU675
 2248              	.LBE383:
 2249              	.LBE390:
 321:sieve_extend.c ****     }
 2250              		.loc 1 321 9 is_stmt 1 view .LVU676
 319:sieve_extend.c ****         memcpy(&bitstorage[copy_word], &bitstorage[source_word], (uintmax_t)size*sizeof(bitword_t) 
 2251              		.loc 1 319 11 view .LVU677
 2252 0d7d 488B4424 		mov	rax, QWORD PTR 24[rsp]	# ivtmp.279, %sfp
 2252      18
 2253 0d82 4A8D3420 		lea	rsi, [rax+r12]	# ivtmp.279,
 2254 0d86 4839F3   		cmp	rbx, rsi	# destination_stop_word, ivtmp.279
 2255 0d89 724D     		jb	.L144	#,
 320:sieve_extend.c ****         copy_word += size;
 2256              		.loc 1 320 9 view .LVU678
 2257              	.LVL102:
 2258              	.LBB391:
  31:/usr/include/x86_64-linux-gnu/bits/string_fortified.h **** 	       size_t __len))
 2259              		.loc 2 31 1 view .LVU679
 2260              	.LBB384:
 2261              		.loc 2 34 3 view .LVU680
 2262              	# /usr/include/x86_64-linux-gnu/bits/string_fortified.h:34:   return __builtin___memcpy_chk (__dest
GAS LISTING /tmp/ccG38KJh.s 			page 67


 2263              		.loc 2 34 10 is_stmt 0 view .LVU681
 2264 0d8b 48897424 		mov	QWORD PTR 24[rsp], rsi	# %sfp, ivtmp.279
 2264      18
 2265 0d90 498D7CF5 		lea	rdi, 0[r13+rsi*8]	# tmp261,
 2265      00
 2266 0d95 4C89FA   		mov	rdx, r15	#, _15
 2267 0d98 4C89F6   		mov	rsi, r14	#, _5
 2268 0d9b E8000000 		call	memcpy@PLT	#
 2268      00
 2269              	.LVL103:
 2270              		.loc 2 34 10 view .LVU682
 2271              	.LBE384:
 2272              	.LBE391:
 321:sieve_extend.c ****     }
 2273              		.loc 1 321 9 is_stmt 1 view .LVU683
 319:sieve_extend.c ****         memcpy(&bitstorage[copy_word], &bitstorage[source_word], (uintmax_t)size*sizeof(bitword_t) 
 2274              		.loc 1 319 11 view .LVU684
 2275 0da0 488B4424 		mov	rax, QWORD PTR 24[rsp]	# ivtmp.279, %sfp
 2275      18
 2276 0da5 4E8D0420 		lea	r8, [rax+r12]	# ivtmp.279,
 2277 0da9 4C39C3   		cmp	rbx, r8	# destination_stop_word, ivtmp.279
 2278 0dac 722A     		jb	.L144	#,
 320:sieve_extend.c ****         copy_word += size;
 2279              		.loc 1 320 9 view .LVU685
 2280              	.LVL104:
 2281              	.LBB392:
  31:/usr/include/x86_64-linux-gnu/bits/string_fortified.h **** 	       size_t __len))
 2282              		.loc 2 31 1 view .LVU686
 2283              	.LBB385:
 2284              		.loc 2 34 3 view .LVU687
 2285              	# /usr/include/x86_64-linux-gnu/bits/string_fortified.h:34:   return __builtin___memcpy_chk (__dest
 2286              		.loc 2 34 10 is_stmt 0 view .LVU688
 2287 0dae 4B8D7CC5 		lea	rdi, 0[r13+r8*8]	# tmp264,
 2287      00
 2288 0db3 4C89FA   		mov	rdx, r15	#, _15
 2289 0db6 4C89F6   		mov	rsi, r14	#, _5
 2290 0db9 4C894424 		mov	QWORD PTR 24[rsp], r8	# %sfp, ivtmp.279
 2290      18
 2291 0dbe E8000000 		call	memcpy@PLT	#
 2291      00
 2292              	.LVL105:
 2293              		.loc 2 34 10 view .LVU689
 2294              	.LBE385:
 2295              	.LBE392:
 321:sieve_extend.c ****     }
 2296              		.loc 1 321 9 is_stmt 1 view .LVU690
 319:sieve_extend.c ****         memcpy(&bitstorage[copy_word], &bitstorage[source_word], (uintmax_t)size*sizeof(bitword_t) 
 2297              		.loc 1 319 11 view .LVU691
 2298 0dc3 488B4424 		mov	rax, QWORD PTR 24[rsp]	# ivtmp.279, %sfp
 2298      18
 2299              	.LVL106:
 319:sieve_extend.c ****         memcpy(&bitstorage[copy_word], &bitstorage[source_word], (uintmax_t)size*sizeof(bitword_t) 
 2300              		.loc 1 319 11 is_stmt 0 view .LVU692
 2301 0dc8 4E8D0C20 		lea	r9, [rax+r12]	# ivtmp.279,
 2302              	.LVL107:
 319:sieve_extend.c ****         memcpy(&bitstorage[copy_word], &bitstorage[source_word], (uintmax_t)size*sizeof(bitword_t) 
 2303              		.loc 1 319 11 view .LVU693
GAS LISTING /tmp/ccG38KJh.s 			page 68


 2304 0dcc 4C39CB   		cmp	rbx, r9	# destination_stop_word, ivtmp.279
 2305 0dcf 0F83D4FE 		jnb	.L145	#,
 2305      FFFF
 2306              	.LVL108:
 2307              		.p2align 4,,10
 2308 0dd5 0F1F00   		.p2align 3
 2309              	.L144:
 324:sieve_extend.c ****         bitstorage[copy_word] = bitstorage[source_word];
 2310              		.loc 1 324 10 is_stmt 1 view .LVU694
 2311 0dd8 4839C3   		cmp	rbx, rax	# destination_stop_word, ivtmp.279
 2312 0ddb 0F86F701 		jbe	.L249	#,
 2312      0000
 2313 0de1 4C8B6C24 		mov	r13, QWORD PTR 8[rsp]	# _4, %sfp
 2313      08
 2314 0de6 4C8D24C5 		lea	r12, 0[0+rax*8]	# _41,
 2314      00000000 
 2315              	.LVL109:
 324:sieve_extend.c ****         bitstorage[copy_word] = bitstorage[source_word];
 2316              		.loc 1 324 10 is_stmt 0 view .LVU695
 2317 0dee 498D7C24 		lea	rdi, 32[r12]	# tmp175,
 2317      20
 2318 0df3 4939FD   		cmp	r13, rdi	# _4, tmp175
 2319 0df6 4D8D5520 		lea	r10, 32[r13]	# tmp178,
 2320 0dfa 410F9DC7 		setge	r15b	#, tmp177
 2321 0dfe 4D39D4   		cmp	r12, r10	# _41, tmp178
 2322 0e01 410F9DC3 		setge	r11b	#, tmp180
 2323 0e05 4508DF   		or	r15b, r11b	# tmp177, tmp180
 2324 0e08 0F84FA01 		je	.L147	#,
 2324      0000
 2325 0e0e 488D4BFF 		lea	rcx, -1[rbx]	# tmp182,
 2326 0e12 4829C1   		sub	rcx, rax	# tmp183, ivtmp.279
 2327 0e15 4883F908 		cmp	rcx, 8	# tmp183,
 2328 0e19 0F86E901 		jbe	.L147	#,
 2328      0000
 2329 0e1f 4989D9   		mov	r9, rbx	# niters.248, destination_stop_word
 2330 0e22 4929C1   		sub	r9, rax	# niters.248, ivtmp.279
 2331 0e25 4C89CE   		mov	rsi, r9	# bnd.249, niters.248
 2332 0e28 48C1EE02 		shr	rsi, 2	# bnd.249,
 2333 0e2c 48C1E605 		sal	rsi, 5	# _128,
 2334 0e30 4C8D46E0 		lea	r8, -32[rsi]	# tmp198,
 2335 0e34 49C1E805 		shr	r8, 5	# tmp196,
 2336 0e38 49FFC0   		inc	r8	# tmp199
 2337 0e3b 4C036424 		add	r12, QWORD PTR 16[rsp]	# vectp.257, %sfp
 2337      10
 2338 0e40 31D2     		xor	edx, edx	# ivtmp.270
 2339 0e42 4183E007 		and	r8d, 7	# tmp200,
 2340 0e46 0F849D00 		je	.L148	#,
 2340      0000
 2341 0e4c 4983F801 		cmp	r8, 1	# tmp200,
 2342 0e50 747E     		je	.L209	#,
 2343 0e52 4983F802 		cmp	r8, 2	# tmp200,
 2344 0e56 7468     		je	.L210	#,
 2345 0e58 4983F803 		cmp	r8, 3	# tmp200,
 2346 0e5c 7452     		je	.L211	#,
 2347 0e5e 4983F804 		cmp	r8, 4	# tmp200,
 2348 0e62 743C     		je	.L212	#,
 2349 0e64 4983F805 		cmp	r8, 5	# tmp200,
GAS LISTING /tmp/ccG38KJh.s 			page 69


 2350 0e68 7426     		je	.L213	#,
 2351 0e6a 4983F806 		cmp	r8, 6	# tmp200,
 2352 0e6e 7410     		je	.L214	#,
 2353              	.LVL110:
 325:sieve_extend.c ****         source_word++;
 2354              		.loc 1 325 9 is_stmt 1 view .LVU696
 2355              	# sieve_extend.c:325:         bitstorage[copy_word] = bitstorage[source_word];
 325:sieve_extend.c ****         source_word++;
 2356              		.loc 1 325 31 is_stmt 0 view .LVU697
 2357 0e70 C4C17E6F 		vmovdqu	ymm1, YMMWORD PTR [r14]	# tmp306, MEM[base: _5, index: ivtmp.270_126, offset: 0B]
 2357      0E
 2358 0e75 BA200000 		mov	edx, 32	# ivtmp.270,
 2358      00
 2359 0e7a C4C17E7F 		vmovdqu	YMMWORD PTR [r12], ymm1	# MEM[base: vectp.257_98, index: ivtmp.270_126, offset: 0B], tmp30
 2359      0C24
 326:sieve_extend.c ****         copy_word++;
 2360              		.loc 1 326 9 is_stmt 1 view .LVU698
 327:sieve_extend.c ****     }
 2361              		.loc 1 327 9 view .LVU699
 324:sieve_extend.c ****         bitstorage[copy_word] = bitstorage[source_word];
 2362              		.loc 1 324 10 view .LVU700
 2363              	.L214:
 325:sieve_extend.c ****         source_word++;
 2364              		.loc 1 325 9 view .LVU701
 2365              	# sieve_extend.c:325:         bitstorage[copy_word] = bitstorage[source_word];
 325:sieve_extend.c ****         source_word++;
 2366              		.loc 1 325 31 is_stmt 0 view .LVU702
 2367 0e80 C4C17E6F 		vmovdqu	ymm7, YMMWORD PTR [r14+rdx]	# tmp307, MEM[base: _5, index: ivtmp.270_126, offset: 0B]
 2367      3C16
 2368 0e86 C4C17E7F 		vmovdqu	YMMWORD PTR [r12+rdx], ymm7	# MEM[base: vectp.257_98, index: ivtmp.270_126, offset: 0B], t
 2368      3C14
 326:sieve_extend.c ****         copy_word++;
 2369              		.loc 1 326 9 is_stmt 1 view .LVU703
 327:sieve_extend.c ****     }
 2370              		.loc 1 327 9 view .LVU704
 324:sieve_extend.c ****         bitstorage[copy_word] = bitstorage[source_word];
 2371              		.loc 1 324 10 view .LVU705
 2372 0e8c 4883C220 		add	rdx, 32	# ivtmp.270,
 2373              	.L213:
 325:sieve_extend.c ****         source_word++;
 2374              		.loc 1 325 9 view .LVU706
 2375              	# sieve_extend.c:325:         bitstorage[copy_word] = bitstorage[source_word];
 325:sieve_extend.c ****         source_word++;
 2376              		.loc 1 325 31 is_stmt 0 view .LVU707
 2377 0e90 C4C17E6F 		vmovdqu	ymm6, YMMWORD PTR [r14+rdx]	# tmp308, MEM[base: _5, index: ivtmp.270_126, offset: 0B]
 2377      3416
 2378 0e96 C4C17E7F 		vmovdqu	YMMWORD PTR [r12+rdx], ymm6	# MEM[base: vectp.257_98, index: ivtmp.270_126, offset: 0B], t
 2378      3414
 326:sieve_extend.c ****         copy_word++;
 2379              		.loc 1 326 9 is_stmt 1 view .LVU708
 327:sieve_extend.c ****     }
 2380              		.loc 1 327 9 view .LVU709
 324:sieve_extend.c ****         bitstorage[copy_word] = bitstorage[source_word];
 2381              		.loc 1 324 10 view .LVU710
 2382 0e9c 4883C220 		add	rdx, 32	# ivtmp.270,
 2383              	.L212:
 325:sieve_extend.c ****         source_word++;
GAS LISTING /tmp/ccG38KJh.s 			page 70


 2384              		.loc 1 325 9 view .LVU711
 2385              	# sieve_extend.c:325:         bitstorage[copy_word] = bitstorage[source_word];
 325:sieve_extend.c ****         source_word++;
 2386              		.loc 1 325 31 is_stmt 0 view .LVU712
 2387 0ea0 C4C17E6F 		vmovdqu	ymm5, YMMWORD PTR [r14+rdx]	# tmp309, MEM[base: _5, index: ivtmp.270_126, offset: 0B]
 2387      2C16
 2388 0ea6 C4C17E7F 		vmovdqu	YMMWORD PTR [r12+rdx], ymm5	# MEM[base: vectp.257_98, index: ivtmp.270_126, offset: 0B], t
 2388      2C14
 326:sieve_extend.c ****         copy_word++;
 2389              		.loc 1 326 9 is_stmt 1 view .LVU713
 327:sieve_extend.c ****     }
