GAS LISTING /tmp/ccEWrfMF.s 			page 1


   1              		.file	"sieve_extend.c"
   2              		.text
   3              	.Ltext0:
   4              		.p2align 4
   6              	extendSieve_smallSize:
   7              	.LVL0:
   8              	.LFB59:
   9              		.file 1 "sieve_extend.c"
   1:sieve_extend.c **** // Serial code prime sieve by Daniel Spangberg
   2:sieve_extend.c **** #include <stdio.h>
   3:sieve_extend.c **** #include <stdlib.h>
   4:sieve_extend.c **** #include <stdint.h>
   5:sieve_extend.c **** #include <time.h>
   6:sieve_extend.c **** #include <math.h>
   7:sieve_extend.c **** #include <string.h>
   8:sieve_extend.c **** 
   9:sieve_extend.c **** #define debug if (0)
  10:sieve_extend.c **** #define default_sieve_limit 1000000
  11:sieve_extend.c **** #define default_blocksize (30*1024*8)
  12:sieve_extend.c **** #define default_sieve_duration 5
  13:sieve_extend.c **** #define default_sample_duration 0.1
  14:sieve_extend.c **** #define default_sample_max 5
  15:sieve_extend.c **** #define default_verbose_level 1
  16:sieve_extend.c **** #define default_tune_level 1
  17:sieve_extend.c **** #define default_check_level 1
  18:sieve_extend.c **** #define option_runonce 0
  19:sieve_extend.c **** 
  20:sieve_extend.c **** #define anticiped_cache_line_bytesize 128
  21:sieve_extend.c **** 
  22:sieve_extend.c **** // 64 bit
  23:sieve_extend.c **** #define TYPE uint64_t
  24:sieve_extend.c **** 
  25:sieve_extend.c **** // calculate the rest dynamically
  26:sieve_extend.c **** #define counter_t int64_t
  27:sieve_extend.c **** #define bitshift_t uint64_t
  28:sieve_extend.c **** #define bitword_t TYPE
  29:sieve_extend.c **** 
  30:sieve_extend.c **** #define WORD_SIZE (sizeof(TYPE)*8)
  31:sieve_extend.c **** #define WORD_SIZE_counter ((counter_t)(sizeof(TYPE)*8))
  32:sieve_extend.c **** #define WORD_SIZE_bitshift ((bitshift_t)(sizeof(TYPE)*8))
  33:sieve_extend.c **** #define pow(base,pow) (pow*((base>>pow)&1U))
  34:sieve_extend.c **** #define SHIFT ((bitshift_t)(pow(WORD_SIZE,1)+pow(WORD_SIZE,2)+pow(WORD_SIZE,3)+pow(WORD_SIZE,4)+pow
  35:sieve_extend.c **** 
  36:sieve_extend.c **** // globals for tuning
  37:sieve_extend.c **** counter_t global_SMALLSTEP_FASTER = WORD_SIZE/4;
  38:sieve_extend.c **** counter_t global_MEDIUMSTEP_FASTER = WORD_SIZE;
  39:sieve_extend.c **** 
  40:sieve_extend.c **** #define SAFE_SHIFTBIT (bitword_t)1U
  41:sieve_extend.c **** #define SAFE_ZERO  (bitword_t)0U
  42:sieve_extend.c **** #define SMALLSTEP_FASTER ((counter_t)global_SMALLSTEP_FASTER)
  43:sieve_extend.c **** #define MEDIUMSTEP_FASTER ((counter_t)global_MEDIUMSTEP_FASTER)
  44:sieve_extend.c **** #define wordindex(index) (((counter_t)index) >> (bitshift_t)SHIFT)
  45:sieve_extend.c **** #define bitindex(index) ((bitshift_t)((counter_t)index)&((bitword_t)(WORD_SIZE-1)))
  46:sieve_extend.c **** #define  markmask(index) (SAFE_SHIFTBIT << bitindex(index))
  47:sieve_extend.c **** #define chopmask(index) ((SAFE_SHIFTBIT << bitindex(index))-SAFE_SHIFTBIT)
  48:sieve_extend.c **** #define chopmask2(index) (((bitword_t)2U << bitindex(index))-SAFE_SHIFTBIT)
  49:sieve_extend.c **** #define min(a,b) ((a<b) ? a : b)
GAS LISTING /tmp/ccEWrfMF.s 			page 2


  50:sieve_extend.c **** 
  51:sieve_extend.c **** counter_t debug_hitpoint[5] = { 0,0,0,0,0};
  52:sieve_extend.c **** 
  53:sieve_extend.c **** struct sieve_state {
  54:sieve_extend.c ****     bitword_t* bitarray;
  55:sieve_extend.c ****     counter_t  bits;
  56:sieve_extend.c ****     counter_t  size;
  57:sieve_extend.c **** };
  58:sieve_extend.c **** 
  59:sieve_extend.c **** // use cache lines as much as possible - alignment might be key
  60:sieve_extend.c **** #define ceiling(x,y) (((x) + (y) - 1) / (y)) // Return the smallest multiple N of y such that:  x <
  61:sieve_extend.c **** static struct sieve_state *create_sieve(counter_t maxints) {
  62:sieve_extend.c ****     struct sieve_state *sieve = aligned_alloc(8, sizeof(struct sieve_state));
  63:sieve_extend.c ****     size_t memSize = ceiling(1+((size_t)maxints/2), anticiped_cache_line_bytesize*8) * anticiped_ca
  64:sieve_extend.c **** 
  65:sieve_extend.c ****     sieve->bitarray = aligned_alloc((size_t)anticiped_cache_line_bytesize, (size_t)memSize );
  66:sieve_extend.c ****     sieve->bits     = maxints >> SAFE_SHIFTBIT;
  67:sieve_extend.c ****     sieve->size     = maxints;
  68:sieve_extend.c **** 
  69:sieve_extend.c ****     // moved clearing the sieve with 0 to the sieve_block_extend
  70:sieve_extend.c ****     // it gave weird malloc problems at this point
  71:sieve_extend.c ****     return sieve;
  72:sieve_extend.c **** }
  73:sieve_extend.c **** 
  74:sieve_extend.c **** static void delete_sieve(struct sieve_state *sieve) {
  75:sieve_extend.c ****     free(sieve->bitarray);
  76:sieve_extend.c ****     free(sieve);
  77:sieve_extend.c **** }
  78:sieve_extend.c **** 
  79:sieve_extend.c **** // not much performance gain at smaller sieves, but its's nice to have an implementation
  80:sieve_extend.c **** static inline counter_t searchBitFalse(bitword_t* bitarray, counter_t index) {
  81:sieve_extend.c ****     counter_t index_word = wordindex(index);
  82:sieve_extend.c ****     bitshift_t index_bit  = bitindex(index);
  83:sieve_extend.c ****     counter_t distance = (counter_t) __builtin_ctzll( ~(bitarray[index_word] >> index_bit));  // ta
  84:sieve_extend.c ****     index += distance;
  85:sieve_extend.c ****     distance += index_bit;
  86:sieve_extend.c **** 
  87:sieve_extend.c ****     while (distance >= WORD_SIZE) {
  88:sieve_extend.c ****         index_word++;
  89:sieve_extend.c ****         distance = __builtin_ctzll(~(bitarray[index_word]));
  90:sieve_extend.c ****         index += distance;
  91:sieve_extend.c ****     }
  92:sieve_extend.c **** 
  93:sieve_extend.c ****     return index;
  94:sieve_extend.c **** }
  95:sieve_extend.c **** 
  96:sieve_extend.c **** static void inline applyMask(bitword_t* bitarray, const counter_t step, const counter_t range_stop,
  97:sieve_extend.c **** //      register const counter_t step_2 = step * 2;
  98:sieve_extend.c **** //      register const counter_t step_3 = step * 3;
  99:sieve_extend.c **** //      register const counter_t step_4 = step * 4;
 100:sieve_extend.c **** //      register const counter_t step_5 = step * 5;
 101:sieve_extend.c **** //      register const counter_t range_stop_word = wordindex(range_stop);
 102:sieve_extend.c **** //      register const counter_t loop_stop_word = (range_stop_word > step_4) ? (range_stop_word - s
 103:sieve_extend.c **** // //     register counter_t index_word = range_start_word;
 104:sieve_extend.c **** 
 105:sieve_extend.c **** //      while (index_word < loop_stop_word) {
 106:sieve_extend.c **** //          bitarray[index_word         ] |= mask;
GAS LISTING /tmp/ccEWrfMF.s 			page 3


 107:sieve_extend.c **** //          bitarray[index_word + step  ] |= mask;
 108:sieve_extend.c **** //          bitarray[index_word + step_2] |= mask;
 109:sieve_extend.c **** //          bitarray[index_word + step_3] |= mask;
 110:sieve_extend.c **** //          bitarray[index_word + step_4] |= mask;
 111:sieve_extend.c **** //          index_word += step_5;
 112:sieve_extend.c **** //      }
 113:sieve_extend.c ****     
 114:sieve_extend.c **** //      while (index_word < range_stop_word) {
 115:sieve_extend.c **** //          bitarray[index_word] |= mask;
 116:sieve_extend.c **** //          index_word += step;
 117:sieve_extend.c **** //      }
 118:sieve_extend.c **** 
 119:sieve_extend.c **** //      if (index_word == wordindex(range_stop)) {
 120:sieve_extend.c **** //          bitarray[wordindex(range_stop)] |= (mask & chopmask2(range_stop));
 121:sieve_extend.c **** //      }
 122:sieve_extend.c **** 
 123:sieve_extend.c **** //    ALTERNATIVE using pointers is faster in gcc
 124:sieve_extend.c ****    const counter_t range_stop_word = wordindex(range_stop);
 125:sieve_extend.c ****    register bitword_t* index_ptr = &bitarray[index_word];
 126:sieve_extend.c ****    register bitword_t* fast_loop_ptr = &bitarray[((range_stop_word>step*5) ? (range_stop_word - ste
 127:sieve_extend.c ****    register bitword_t* range_stop_ptr = &bitarray[(range_stop_word)];//>step_4) ? (range_stop_word 
 128:sieve_extend.c **** 
 129:sieve_extend.c ****    while ( index_ptr < fast_loop_ptr) {
 130:sieve_extend.c ****        *index_ptr |= mask;
 131:sieve_extend.c ****        index_ptr+=step;
 132:sieve_extend.c ****        *index_ptr |= mask;
 133:sieve_extend.c ****        index_ptr+=step;
 134:sieve_extend.c ****        *index_ptr |= mask;
 135:sieve_extend.c ****        index_ptr+=step;
 136:sieve_extend.c ****        *index_ptr |= mask;
 137:sieve_extend.c ****        index_ptr+=step;
 138:sieve_extend.c ****        *index_ptr |= mask;
 139:sieve_extend.c ****        index_ptr+=step;
 140:sieve_extend.c ****    }
 141:sieve_extend.c **** 
 142:sieve_extend.c ****    while ( index_ptr < range_stop_ptr) {
 143:sieve_extend.c ****        *index_ptr |= mask;
 144:sieve_extend.c ****        index_ptr+=step;
 145:sieve_extend.c ****    }
 146:sieve_extend.c **** 
 147:sieve_extend.c ****    if (index_ptr == range_stop_ptr) {
 148:sieve_extend.c ****       *range_stop_ptr |= (mask & chopmask2(range_stop));
 149:sieve_extend.c ****    }
 150:sieve_extend.c **** 
 151:sieve_extend.c **** 
 152:sieve_extend.c **** }
 153:sieve_extend.c **** 
 154:sieve_extend.c **** // set bits by creating a pattern and then extending it to word and range size
 155:sieve_extend.c **** static void inline setBitsTrue_smallStep(bitword_t* bitarray, const counter_t range_start, const bi
 156:sieve_extend.c **** 
 157:sieve_extend.c ****     // build the pattern in a word
 158:sieve_extend.c **** 	bitword_t pattern = SAFE_SHIFTBIT;
 159:sieve_extend.c ****     for (bitshift_t patternsize = step; patternsize <= WORD_SIZE; patternsize += patternsize) {
 160:sieve_extend.c ****         pattern |= (pattern << patternsize);
 161:sieve_extend.c ****     }
 162:sieve_extend.c **** 
 163:sieve_extend.c ****     const counter_t range_stop_word = wordindex(range_stop);
GAS LISTING /tmp/ccEWrfMF.s 			page 4


 164:sieve_extend.c ****     counter_t copy_word = wordindex(range_start);
 165:sieve_extend.c ****  
 166:sieve_extend.c ****     if (copy_word == range_stop_word) { // shortcut
 167:sieve_extend.c ****        bitarray[copy_word] |= ((pattern << bitindex(range_start)) & chopmask2(range_stop)) ;
 168:sieve_extend.c ****        return;
 169:sieve_extend.c ****     }
 170:sieve_extend.c **** 
 171:sieve_extend.c ****     // from now on, we are before range_stop_word
 172:sieve_extend.c ****     // first word is special, because it should not set bits before the range_start_bit
 173:sieve_extend.c ****     bitarray[copy_word] |= (pattern << (bitshift_t)bitindex(range_start));
 174:sieve_extend.c ****     pattern = (pattern << (bitindex(range_start) % step)); // correct for inital offset  
 175:sieve_extend.c **** 
 176:sieve_extend.c ****     bitshift_t pattern_shift = (bitshift_t) WORD_SIZE % step;
 177:sieve_extend.c ****     bitshift_t pattern_shift_flipped = (bitshift_t)WORD_SIZE - pattern_shift - pattern_shift;
 178:sieve_extend.c ****     copy_word++;
 179:sieve_extend.c **** 
 180:sieve_extend.c ****     while (copy_word < range_stop_word) {
 181:sieve_extend.c ****         pattern = (pattern >> pattern_shift) | (pattern << pattern_shift_flipped);
 182:sieve_extend.c ****         bitarray[copy_word] |= pattern;
 183:sieve_extend.c ****         copy_word++;
 184:sieve_extend.c ****     } 
 185:sieve_extend.c **** 
 186:sieve_extend.c ****     pattern = (pattern >> pattern_shift) | (pattern << pattern_shift_flipped);
 187:sieve_extend.c ****     bitarray[copy_word] |= pattern & chopmask2(range_stop);
 188:sieve_extend.c **** }
 189:sieve_extend.c **** 
 190:sieve_extend.c **** // Medium steps could be within the same word.
 191:sieve_extend.c **** // By joining the masks and then writing to memory, we might save some time.
 192:sieve_extend.c **** // This is especially true for longer ranges
 193:sieve_extend.c **** static void inline setBitsTrue_mediumStep(bitword_t* bitarray, const counter_t range_start, const c
 194:sieve_extend.c ****     const counter_t range_stop_unique =  range_start + WORD_SIZE_counter * step;
 195:sieve_extend.c **** 
 196:sieve_extend.c ****     if (range_stop_unique > range_stop) {
 197:sieve_extend.c ****         for (counter_t index = range_start; index <= range_stop;) {
 198:sieve_extend.c ****             counter_t index_word = wordindex(index);
 199:sieve_extend.c ****             bitword_t mask = SAFE_ZERO;
 200:sieve_extend.c ****             do {
 201:sieve_extend.c ****                 mask |= markmask(index);
 202:sieve_extend.c ****                 index += step;
 203:sieve_extend.c ****             } while (index_word == wordindex(index));
 204:sieve_extend.c ****             bitarray[index_word] |= mask;
 205:sieve_extend.c ****         }
 206:sieve_extend.c ****     }
 207:sieve_extend.c ****     else {
 208:sieve_extend.c ****         for (counter_t index = range_start; index <= range_stop_unique;) {
 209:sieve_extend.c ****             counter_t index_word = wordindex(index);
 210:sieve_extend.c ****             bitword_t mask = SAFE_ZERO;
 211:sieve_extend.c ****             do {
 212:sieve_extend.c ****                 mask |= markmask(index);
 213:sieve_extend.c ****                 index += step;
 214:sieve_extend.c ****             } while (index_word == wordindex(index));
 215:sieve_extend.c ****             applyMask(bitarray, step, range_stop, mask, index_word);
 216:sieve_extend.c ****         }
 217:sieve_extend.c ****     }
 218:sieve_extend.c **** }
 219:sieve_extend.c **** 
 220:sieve_extend.c **** // small ranges (< WORD_SIZE * step) mean the mask is unique
GAS LISTING /tmp/ccEWrfMF.s 			page 5


 221:sieve_extend.c **** static inline void setBitsTrue_smallRange(bitword_t* bitarray, const counter_t range_start, const c
 222:sieve_extend.c ****     for (counter_t index = range_start; index <= range_stop; index += step) {
 223:sieve_extend.c ****         bitarray[wordindex(index)] |= markmask(index);
 224:sieve_extend.c ****     }
 225:sieve_extend.c **** }
 226:sieve_extend.c **** 
 227:sieve_extend.c **** // small ranges (< WORD_SIZE * step) mean the mask is unique
 228:sieve_extend.c **** static void setBitsTrue_race(bitword_t* bitarray, counter_t index1, counter_t index2, const counter
 229:sieve_extend.c **** 
 230:sieve_extend.c ****     counter_t index1_word = wordindex(index1);
 231:sieve_extend.c ****     counter_t index2_word = wordindex(index2);
 232:sieve_extend.c ****     
 233:sieve_extend.c ****     while (1) {
 234:sieve_extend.c ****         if (index1_word == index2_word) {
 235:sieve_extend.c ****             bitword_t mask = SAFE_ZERO;
 236:sieve_extend.c ****             counter_t index_word = index1_word;
 237:sieve_extend.c ****             do {
 238:sieve_extend.c ****                 mask |= markmask(index1);
 239:sieve_extend.c ****                 index1 += step1;
 240:sieve_extend.c ****                 index1_word = wordindex(index1);
 241:sieve_extend.c ****             } while (index1_word == index_word);
 242:sieve_extend.c ****             do {
 243:sieve_extend.c ****                 mask |= markmask(index2);
 244:sieve_extend.c ****                 index2 += step2;
 245:sieve_extend.c ****                 index2_word = wordindex(index2);
 246:sieve_extend.c ****             } while (index2_word == index_word);
 247:sieve_extend.c ****             bitarray[index_word] |= mask;
 248:sieve_extend.c ****         }
 249:sieve_extend.c **** 
 250:sieve_extend.c ****         // because step is larger, index2 is the most likely to get out of bounds first
 251:sieve_extend.c ****         if (index2 > range_stop) {
 252:sieve_extend.c ****             while (index1 <= range_stop) {
 253:sieve_extend.c ****                 bitarray[wordindex(index1)] |= markmask(index1);
 254:sieve_extend.c ****                 index1 += step1;
 255:sieve_extend.c ****             }
 256:sieve_extend.c ****             return;
 257:sieve_extend.c ****         }
 258:sieve_extend.c **** 
 259:sieve_extend.c ****         if (index1 > range_stop) {
 260:sieve_extend.c ****             while (index2 <= range_stop) {
 261:sieve_extend.c ****                 bitarray[wordindex(index2)] |= markmask(index2);
 262:sieve_extend.c ****                 index2 += step2;
 263:sieve_extend.c ****             }
 264:sieve_extend.c ****             return;
 265:sieve_extend.c ****         }
 266:sieve_extend.c **** 
 267:sieve_extend.c ****         while (index1_word < index2_word) {
 268:sieve_extend.c ****             bitarray[index1_word] |= markmask(index1);
 269:sieve_extend.c ****             index1 += step1;
 270:sieve_extend.c ****             index1_word = wordindex(index1);
 271:sieve_extend.c ****         }
 272:sieve_extend.c ****         
 273:sieve_extend.c ****         while (index2_word < index1_word){
 274:sieve_extend.c ****             bitarray[index2_word] |= markmask(index2);
 275:sieve_extend.c ****             index2 += step2;
 276:sieve_extend.c ****             index2_word = wordindex(index2);
 277:sieve_extend.c ****         }
GAS LISTING /tmp/ccEWrfMF.s 			page 6


 278:sieve_extend.c **** 
 279:sieve_extend.c ****     }
 280:sieve_extend.c **** }
 281:sieve_extend.c **** 
 282:sieve_extend.c **** // Large ranges (> WORD_SIZE * step) mean the same mask can be reused
 283:sieve_extend.c **** static void setBitsTrue_largeRange(bitword_t* bitarray, const counter_t range_start, const counter_
 284:sieve_extend.c ****     counter_t range_stop_unique =  range_start + WORD_SIZE_counter * step;
 285:sieve_extend.c ****     for (counter_t index = range_start; index <= range_stop_unique; index += step) {
 286:sieve_extend.c ****         bitword_t mask = markmask(index);
 287:sieve_extend.c ****         applyMask(bitarray, step, range_stop, mask, wordindex(index));
 288:sieve_extend.c ****     }
 289:sieve_extend.c **** }
 290:sieve_extend.c **** 
 291:sieve_extend.c **** static void extendSieve_smallSize(bitword_t* bitarray, const counter_t source_start, const counter_
  10              		.loc 1 291 142 view -0
  11              		.cfi_startproc
 292:sieve_extend.c ****     counter_t source_word = wordindex(source_start);
  12              		.loc 1 292 5 view .LVU1
 293:sieve_extend.c ****     bitword_t pattern = ((bitarray[source_word] >> bitindex(source_start)) | (bitarray[source_word+
  13              		.loc 1 293 5 view .LVU2
 291:sieve_extend.c ****     counter_t source_word = wordindex(source_start);
  14              		.loc 1 291 142 is_stmt 0 view .LVU3
  15 0000 4154     		pushq	%r12
  16              		.cfi_def_cfa_offset 16
  17              		.cfi_offset 12, -16
 292:sieve_extend.c ****     counter_t source_word = wordindex(source_start);
  18              		.loc 1 292 15 view .LVU4
  19 0002 4889F0   		movq	%rsi, %rax
 291:sieve_extend.c ****     counter_t source_word = wordindex(source_start);
  20              		.loc 1 291 142 view .LVU5
  21 0005 4989D1   		movq	%rdx, %r9
  22 0008 55       		pushq	%rbp
  23              		.cfi_def_cfa_offset 24
  24              		.cfi_offset 6, -24
 292:sieve_extend.c ****     counter_t source_word = wordindex(source_start);
  25              		.loc 1 292 15 view .LVU6
  26 0009 48C1F806 		sarq	$6, %rax
  27              	.LVL1:
  28              		.loc 1 293 52 view .LVU7
  29 000d 89F2     		movl	%esi, %edx
  30              	.LVL2:
 291:sieve_extend.c ****     counter_t source_word = wordindex(source_start);
  31              		.loc 1 291 142 view .LVU8
  32 000f 53       		pushq	%rbx
  33              		.cfi_def_cfa_offset 32
  34              		.cfi_offset 3, -32
  35              		.loc 1 293 52 view .LVU9
  36 0010 83E23F   		andl	$63, %edx
  37              		.loc 1 293 116 view .LVU10
  38 0013 41B84000 		movl	$64, %r8d
  38      0000
  39              		.loc 1 293 49 view .LVU11
  40 0019 488B1CC7 		movq	(%rdi,%rax,8), %rbx
  41              		.loc 1 293 116 view .LVU12
  42 001d 4129D0   		subl	%edx, %r8d
  43              		.loc 1 293 145 view .LVU13
  44 0020 41BA0200 		movl	$2, %r10d
GAS LISTING /tmp/ccEWrfMF.s 			page 7


  44      0000
  45              		.loc 1 293 103 view .LVU14
  46 0026 C462B9F7 		shlx	%r8, 8(%rdi,%rax,8), %r8
  46      44C708
  47              		.loc 1 293 49 view .LVU15
  48 002d C4E2EBF7 		shrx	%rdx, %rbx, %rbp
  48      EB
  49              		.loc 1 293 145 view .LVU16
  50 0032 C442B1F7 		shlx	%r9, %r10, %r11
  50      DA
  51              		.loc 1 293 76 view .LVU17
  52 0037 4909E8   		orq	%rbp, %r8
  53              		.loc 1 293 145 view .LVU18
  54 003a 49FFCB   		decq	%r11
  55              		.loc 1 293 15 view .LVU19
  56 003d 4D21D8   		andq	%r11, %r8
  57              	.LVL3:
 294:sieve_extend.c ****     for (bitshift_t pattern_size = (bitshift_t)size; pattern_size <= WORD_SIZE_bitshift; pattern_si
  58              		.loc 1 294 5 is_stmt 1 view .LVU20
  59              	.LBB224:
  60              		.loc 1 294 10 view .LVU21
  61              		.loc 1 294 54 view .LVU22
  62              		.loc 1 294 5 is_stmt 0 view .LVU23
  63 0040 4983F940 		cmpq	$64, %r9
  64 0044 0F87B600 		ja	.L2
  64      0000
  65 004a 4D89CC   		movq	%r9, %r12
  66              	.LVL4:
  67              	.L3:
  68              		.loc 1 294 120 is_stmt 1 discriminator 3 view .LVU24
  69              		.loc 1 294 103 is_stmt 0 discriminator 3 view .LVU25
  70 004d 4B8D1424 		leaq	(%r12,%r12), %rdx
  71              		.loc 1 294 140 discriminator 3 view .LVU26
  72 0051 C4C299F7 		shlx	%r12, %r8, %rax
  72      C0
  73              		.loc 1 294 128 discriminator 3 view .LVU27
  74 0056 4909C0   		orq	%rax, %r8
  75              	.LVL5:
  76              		.loc 1 294 90 is_stmt 1 discriminator 3 view .LVU28
  77              		.loc 1 294 54 discriminator 3 view .LVU29
  78              		.loc 1 294 5 is_stmt 0 discriminator 3 view .LVU30
  79 0059 4883FA40 		cmpq	$64, %rdx
  80 005d 0F879D00 		ja	.L2
  80      0000
  81              		.loc 1 294 120 is_stmt 1 view .LVU31
  82              		.loc 1 294 103 is_stmt 0 view .LVU32
  83 0063 4A8D2CA5 		leaq	0(,%r12,4), %rbp
  83      00000000 
  84              		.loc 1 294 140 view .LVU33
  85 006b C4C2E9F7 		shlx	%rdx, %r8, %rbx
  85      D8
  86              		.loc 1 294 128 view .LVU34
  87 0070 4909D8   		orq	%rbx, %r8
  88              	.LVL6:
  89              		.loc 1 294 90 is_stmt 1 view .LVU35
  90              		.loc 1 294 54 view .LVU36
  91              		.loc 1 294 5 is_stmt 0 view .LVU37
GAS LISTING /tmp/ccEWrfMF.s 			page 8


  92 0073 4883FD40 		cmpq	$64, %rbp
  93 0077 0F878300 		ja	.L2
  93      0000
  94              		.loc 1 294 120 is_stmt 1 view .LVU38
  95              		.loc 1 294 103 is_stmt 0 view .LVU39
  96 007d 4E8D1CE5 		leaq	0(,%r12,8), %r11
  96      00000000 
  97              		.loc 1 294 140 view .LVU40
  98 0085 C442D1F7 		shlx	%rbp, %r8, %r10
  98      D0
  99              		.loc 1 294 128 view .LVU41
 100 008a 4D09D0   		orq	%r10, %r8
 101              	.LVL7:
 102              		.loc 1 294 90 is_stmt 1 view .LVU42
 103              		.loc 1 294 54 view .LVU43
 104              		.loc 1 294 5 is_stmt 0 view .LVU44
 105 008d 4983FB40 		cmpq	$64, %r11
 106 0091 776D     		ja	.L2
 107              		.loc 1 294 120 is_stmt 1 view .LVU45
 108              		.loc 1 294 103 is_stmt 0 view .LVU46
 109 0093 4C89E2   		movq	%r12, %rdx
 110 0096 48C1E204 		salq	$4, %rdx
 111              		.loc 1 294 140 view .LVU47
 112 009a C4C2A1F7 		shlx	%r11, %r8, %rax
 112      C0
 113              		.loc 1 294 128 view .LVU48
 114 009f 4909C0   		orq	%rax, %r8
 115              	.LVL8:
 116              		.loc 1 294 90 is_stmt 1 view .LVU49
 117              		.loc 1 294 54 view .LVU50
 118              		.loc 1 294 5 is_stmt 0 view .LVU51
 119 00a2 4883FA40 		cmpq	$64, %rdx
 120 00a6 7758     		ja	.L2
 121              		.loc 1 294 120 is_stmt 1 view .LVU52
 122              		.loc 1 294 103 is_stmt 0 view .LVU53
 123 00a8 4C89E5   		movq	%r12, %rbp
 124 00ab 48C1E505 		salq	$5, %rbp
 125              		.loc 1 294 140 view .LVU54
 126 00af C4C2E9F7 		shlx	%rdx, %r8, %rbx
 126      D8
 127              		.loc 1 294 128 view .LVU55
 128 00b4 4909D8   		orq	%rbx, %r8
 129              	.LVL9:
 130              		.loc 1 294 90 is_stmt 1 view .LVU56
 131              		.loc 1 294 54 view .LVU57
 132              		.loc 1 294 5 is_stmt 0 view .LVU58
 133 00b7 4883FD40 		cmpq	$64, %rbp
 134 00bb 7743     		ja	.L2
 135              		.loc 1 294 120 is_stmt 1 view .LVU59
 136              		.loc 1 294 103 is_stmt 0 view .LVU60
 137 00bd 4D89E3   		movq	%r12, %r11
 138 00c0 49C1E306 		salq	$6, %r11
 139              		.loc 1 294 140 view .LVU61
 140 00c4 C442D1F7 		shlx	%rbp, %r8, %r10
 140      D0
 141              		.loc 1 294 128 view .LVU62
 142 00c9 4D09D0   		orq	%r10, %r8
GAS LISTING /tmp/ccEWrfMF.s 			page 9


 143              	.LVL10:
 144              		.loc 1 294 90 is_stmt 1 view .LVU63
 145              		.loc 1 294 54 view .LVU64
 146              		.loc 1 294 5 is_stmt 0 view .LVU65
 147 00cc 4983FB40 		cmpq	$64, %r11
 148 00d0 772E     		ja	.L2
 149              		.loc 1 294 120 is_stmt 1 view .LVU66
 150              		.loc 1 294 103 is_stmt 0 view .LVU67
 151 00d2 4C89E2   		movq	%r12, %rdx
 152 00d5 48C1E207 		salq	$7, %rdx
 153              		.loc 1 294 140 view .LVU68
 154 00d9 C4C2A1F7 		shlx	%r11, %r8, %rax
 154      C0
 155              		.loc 1 294 128 view .LVU69
 156 00de 4909C0   		orq	%rax, %r8
 157              	.LVL11:
 158              		.loc 1 294 90 is_stmt 1 view .LVU70
 159              		.loc 1 294 54 view .LVU71
 160              		.loc 1 294 5 is_stmt 0 view .LVU72
 161 00e1 4883FA40 		cmpq	$64, %rdx
 162 00e5 7719     		ja	.L2
 163              		.loc 1 294 120 is_stmt 1 view .LVU73
 164              		.loc 1 294 103 is_stmt 0 view .LVU74
 165 00e7 49C1E408 		salq	$8, %r12
 166              		.loc 1 294 140 view .LVU75
 167 00eb C4C2E9F7 		shlx	%rdx, %r8, %rbx
 167      D8
 168              		.loc 1 294 128 view .LVU76
 169 00f0 4909D8   		orq	%rbx, %r8
 170              	.LVL12:
 171              		.loc 1 294 90 is_stmt 1 view .LVU77
 172              		.loc 1 294 54 view .LVU78
 173              		.loc 1 294 5 is_stmt 0 view .LVU79
 174 00f3 4983FC40 		cmpq	$64, %r12
 175 00f7 0F8650FF 		jbe	.L3
 175      FFFF
 176              	.LVL13:
 177 00fd 0F1F00   		.p2align 4,,10
 178              		.p2align 3
 179              	.L2:
 180              		.loc 1 294 5 view .LVU80
 181              	.LBE224:
 295:sieve_extend.c **** 
 296:sieve_extend.c ****     counter_t copy_start = source_start + size;
 182              		.loc 1 296 5 is_stmt 1 view .LVU81
 183              		.loc 1 296 15 is_stmt 0 view .LVU82
 184 0100 4E8D140E 		leaq	(%rsi,%r9), %r10
 185              	.LVL14:
 297:sieve_extend.c ****     counter_t copy_word = wordindex(copy_start);
 186              		.loc 1 297 5 is_stmt 1 view .LVU83
 187              		.loc 1 297 15 is_stmt 0 view .LVU84
 188 0104 4C89D3   		movq	%r10, %rbx
 189 0107 48C1FB06 		sarq	$6, %rbx
 190              	.LVL15:
 298:sieve_extend.c ****     bitarray[copy_word] |= (pattern << bitindex(copy_start));
 191              		.loc 1 298 5 is_stmt 1 view .LVU85
 192              		.loc 1 298 25 is_stmt 0 view .LVU86
GAS LISTING /tmp/ccEWrfMF.s 			page 10


 193 010b 488D2CDD 		leaq	0(,%rbx,8), %rbp
 193      00000000 
 299:sieve_extend.c **** 
 300:sieve_extend.c ****     counter_t destination_stop_word = wordindex(destination_stop);
 194              		.loc 1 300 15 view .LVU87
 195 0113 48C1F906 		sarq	$6, %rcx
 196              	.LVL16:
 298:sieve_extend.c ****     bitarray[copy_word] |= (pattern << bitindex(copy_start));
 197              		.loc 1 298 37 view .LVU88
 198 0117 C4C2A9F7 		shlx	%r10, %r8, %rsi
 198      F0
 199              	.LVL17:
 200              		.loc 1 300 15 view .LVU89
 201 011c 4989CC   		movq	%rcx, %r12
 298:sieve_extend.c ****     bitarray[copy_word] |= (pattern << bitindex(copy_start));
 202              		.loc 1 298 25 view .LVU90
 203 011f 4809342F 		orq	%rsi, (%rdi,%rbp)
 204              		.loc 1 300 5 is_stmt 1 view .LVU91
 205              	.LVL18:
 301:sieve_extend.c ****     if (copy_word == destination_stop_word) return;
 206              		.loc 1 301 5 view .LVU92
 207              		.loc 1 301 8 is_stmt 0 view .LVU93
 208 0123 4839CB   		cmpq	%rcx, %rbx
 209 0126 0F845102 		je	.L58
 209      0000
 302:sieve_extend.c **** 
 303:sieve_extend.c ****     bitshift_t pattern_shift = WORD_SIZE_counter % size;
 210              		.loc 1 303 5 is_stmt 1 view .LVU94
 211              		.loc 1 303 50 is_stmt 0 view .LVU95
 212 012c B9400000 		movl	$64, %ecx
 212      00
 213              	.LVL19:
 214              		.loc 1 303 50 view .LVU96
 215 0131 4889C8   		movq	%rcx, %rax
 216 0134 4899     		cqto
 217 0136 49F7F9   		idivq	%r9
 218              	.LVL20:
 304:sieve_extend.c ****     bitshift_t pattern_size = WORD_SIZE - pattern_shift;
 219              		.loc 1 304 5 is_stmt 1 view .LVU97
 220              		.loc 1 304 16 is_stmt 0 view .LVU98
 221 0139 4989CB   		movq	%rcx, %r11
 305:sieve_extend.c ****     bitshift_t shift = WORD_SIZE_bitshift - bitindex(copy_start);
 222              		.loc 1 305 45 view .LVU99
 223 013c 4183E23F 		andl	$63, %r10d
 224              	.LVL21:
 225              		.loc 1 305 16 view .LVU100
 226 0140 4889CE   		movq	%rcx, %rsi
 227 0143 4C29D6   		subq	%r10, %rsi
 304:sieve_extend.c ****     bitshift_t pattern_size = WORD_SIZE - pattern_shift;
 228              		.loc 1 304 16 view .LVU101
 229 0146 4929D3   		subq	%rdx, %r11
 230              	.LVL22:
 231              		.loc 1 305 5 is_stmt 1 view .LVU102
 306:sieve_extend.c **** 
 307:sieve_extend.c ****     while (copy_word < destination_stop_word) { // = will be handled as well because increment is a
 232              		.loc 1 307 5 view .LVU103
 233              		.loc 1 307 11 view .LVU104
GAS LISTING /tmp/ccEWrfMF.s 			page 11


 234 0149 4C39E3   		cmpq	%r12, %rbx
 235 014c 0F8D2B02 		jge	.L58
 235      0000
 236 0152 488D5C2F 		leaq	8(%rdi,%rbp), %rbx
 236      08
 237              	.LVL23:
 238              		.loc 1 307 11 is_stmt 0 view .LVU105
 239 0157 4A8D7CE7 		leaq	8(%rdi,%r12,8), %rdi
 239      08
 240              	.LVL24:
 241              		.loc 1 307 11 view .LVU106
 242 015c 4989F9   		movq	%rdi, %r9
 243              	.LVL25:
 244              		.loc 1 307 11 view .LVU107
 245 015f 4929D9   		subq	%rbx, %r9
 246 0162 4983E908 		subq	$8, %r9
 247 0166 49C1E903 		shrq	$3, %r9
 248 016a 49FFC1   		incq	%r9
 249 016d 4183E107 		andl	$7, %r9d
 250 0171 0F841601 		je	.L6
 250      0000
 251 0177 4983F901 		cmpq	$1, %r9
 252 017b 0F84E300 		je	.L38
 252      0000
 253 0181 4983F902 		cmpq	$2, %r9
 254 0185 0F84BA00 		je	.L39
 254      0000
 255 018b 4983F903 		cmpq	$3, %r9
 256 018f 0F849000 		je	.L40
 256      0000
 257 0195 4983F904 		cmpq	$4, %r9
 258 0199 746B     		je	.L41
 259 019b 4983F905 		cmpq	$5, %r9
 260 019f 7445     		je	.L42
 261 01a1 4983F906 		cmpq	$6, %r9
 262 01a5 7420     		je	.L43
 263              	.LVL26:
 308:sieve_extend.c ****         copy_word++;
 264              		.loc 1 308 9 is_stmt 1 view .LVU108
 309:sieve_extend.c ****         bitarray[copy_word] = (pattern << (pattern_size-shift)) | (pattern >> shift);
 265              		.loc 1 309 9 view .LVU109
 266              		.loc 1 309 56 is_stmt 0 view .LVU110
 267 01a7 4589DA   		movl	%r11d, %r10d
 268 01aa 4129F2   		subl	%esi, %r10d
 269              		.loc 1 309 76 view .LVU111
 270 01ad C442CBF7 		shrx	%rsi, %r8, %r12
 270      E0
 271              	.LVL27:
 272              		.loc 1 309 40 view .LVU112
 273 01b2 C4C2A9F7 		shlx	%r10, %r8, %rbp
 273      E8
 310:sieve_extend.c ****         shift = (shift + pattern_shift) & ((WORD_SIZE_bitshift-1));  // alternative, but faster
 274              		.loc 1 310 24 view .LVU113
 275 01b7 4801D6   		addq	%rdx, %rsi
 276              	.LVL28:
 309:sieve_extend.c ****         bitarray[copy_word] = (pattern << (pattern_size-shift)) | (pattern >> shift);
 277              		.loc 1 309 65 view .LVU114
GAS LISTING /tmp/ccEWrfMF.s 			page 12


 278 01ba 4C09E5   		orq	%r12, %rbp
 279 01bd 48892B   		movq	%rbp, (%rbx)
 280              		.loc 1 310 9 is_stmt 1 view .LVU115
 281              	.LVL29:
 282              		.loc 1 310 15 is_stmt 0 view .LVU116
 283 01c0 83E63F   		andl	$63, %esi
 284              	.LVL30:
 307:sieve_extend.c ****         copy_word++;
 285              		.loc 1 307 11 is_stmt 1 view .LVU117
 286 01c3 4883C308 		addq	$8, %rbx
 287              	.L43:
 308:sieve_extend.c ****         bitarray[copy_word] = (pattern << (pattern_size-shift)) | (pattern >> shift);
 288              		.loc 1 308 9 view .LVU118
 309:sieve_extend.c ****         shift = (shift + pattern_shift) & ((WORD_SIZE_bitshift-1));  // alternative, but faster
 289              		.loc 1 309 9 view .LVU119
 309:sieve_extend.c ****         shift = (shift + pattern_shift) & ((WORD_SIZE_bitshift-1));  // alternative, but faster
 290              		.loc 1 309 56 is_stmt 0 view .LVU120
 291 01c7 4489D9   		movl	%r11d, %ecx
 292 01ca 29F1     		subl	%esi, %ecx
 309:sieve_extend.c ****         shift = (shift + pattern_shift) & ((WORD_SIZE_bitshift-1));  // alternative, but faster
 293              		.loc 1 309 76 view .LVU121
 294 01cc C442CBF7 		shrx	%rsi, %r8, %r9
 294      C8
 309:sieve_extend.c ****         shift = (shift + pattern_shift) & ((WORD_SIZE_bitshift-1));  // alternative, but faster
 295              		.loc 1 309 40 view .LVU122
 296 01d1 C4C2F1F7 		shlx	%rcx, %r8, %rax
 296      C0
 297              		.loc 1 310 24 view .LVU123
 298 01d6 4801D6   		addq	%rdx, %rsi
 299              	.LVL31:
 309:sieve_extend.c ****         shift = (shift + pattern_shift) & ((WORD_SIZE_bitshift-1));  // alternative, but faster
 300              		.loc 1 309 65 view .LVU124
 301 01d9 4C09C8   		orq	%r9, %rax
 302 01dc 488903   		movq	%rax, (%rbx)
 303              		.loc 1 310 9 is_stmt 1 view .LVU125
 304              	.LVL32:
 305              		.loc 1 310 15 is_stmt 0 view .LVU126
 306 01df 83E63F   		andl	$63, %esi
 307              	.LVL33:
 307:sieve_extend.c ****         copy_word++;
 308              		.loc 1 307 11 is_stmt 1 view .LVU127
 309 01e2 4883C308 		addq	$8, %rbx
 310              	.L42:
 308:sieve_extend.c ****         bitarray[copy_word] = (pattern << (pattern_size-shift)) | (pattern >> shift);
 311              		.loc 1 308 9 view .LVU128
 309:sieve_extend.c ****         shift = (shift + pattern_shift) & ((WORD_SIZE_bitshift-1));  // alternative, but faster
 312              		.loc 1 309 9 view .LVU129
 309:sieve_extend.c ****         shift = (shift + pattern_shift) & ((WORD_SIZE_bitshift-1));  // alternative, but faster
 313              		.loc 1 309 56 is_stmt 0 view .LVU130
 314 01e6 4589DA   		movl	%r11d, %r10d
 315 01e9 4129F2   		subl	%esi, %r10d
 309:sieve_extend.c ****         shift = (shift + pattern_shift) & ((WORD_SIZE_bitshift-1));  // alternative, but faster
 316              		.loc 1 309 76 view .LVU131
 317 01ec C442CBF7 		shrx	%rsi, %r8, %r12
 317      E0
 309:sieve_extend.c ****         shift = (shift + pattern_shift) & ((WORD_SIZE_bitshift-1));  // alternative, but faster
 318              		.loc 1 309 40 view .LVU132
GAS LISTING /tmp/ccEWrfMF.s 			page 13


 319 01f1 C4C2A9F7 		shlx	%r10, %r8, %rbp
 319      E8
 320              		.loc 1 310 24 view .LVU133
 321 01f6 4801D6   		addq	%rdx, %rsi
 322              	.LVL34:
 309:sieve_extend.c ****         shift = (shift + pattern_shift) & ((WORD_SIZE_bitshift-1));  // alternative, but faster
 323              		.loc 1 309 65 view .LVU134
 324 01f9 4C09E5   		orq	%r12, %rbp
 325 01fc 48892B   		movq	%rbp, (%rbx)
 326              		.loc 1 310 9 is_stmt 1 view .LVU135
 327              	.LVL35:
 328              		.loc 1 310 15 is_stmt 0 view .LVU136
 329 01ff 83E63F   		andl	$63, %esi
 330              	.LVL36:
 307:sieve_extend.c ****         copy_word++;
 331              		.loc 1 307 11 is_stmt 1 view .LVU137
 332 0202 4883C308 		addq	$8, %rbx
 333              	.L41:
 308:sieve_extend.c ****         bitarray[copy_word] = (pattern << (pattern_size-shift)) | (pattern >> shift);
 334              		.loc 1 308 9 view .LVU138
 309:sieve_extend.c ****         shift = (shift + pattern_shift) & ((WORD_SIZE_bitshift-1));  // alternative, but faster
 335              		.loc 1 309 9 view .LVU139
 309:sieve_extend.c ****         shift = (shift + pattern_shift) & ((WORD_SIZE_bitshift-1));  // alternative, but faster
 336              		.loc 1 309 56 is_stmt 0 view .LVU140
 337 0206 4489D9   		movl	%r11d, %ecx
 338 0209 29F1     		subl	%esi, %ecx
 309:sieve_extend.c ****         shift = (shift + pattern_shift) & ((WORD_SIZE_bitshift-1));  // alternative, but faster
 339              		.loc 1 309 76 view .LVU141
 340 020b C442CBF7 		shrx	%rsi, %r8, %r9
 340      C8
 309:sieve_extend.c ****         shift = (shift + pattern_shift) & ((WORD_SIZE_bitshift-1));  // alternative, but faster
 341              		.loc 1 309 40 view .LVU142
 342 0210 C4C2F1F7 		shlx	%rcx, %r8, %rax
 342      C0
 343              		.loc 1 310 24 view .LVU143
 344 0215 4801D6   		addq	%rdx, %rsi
 345              	.LVL37:
 309:sieve_extend.c ****         shift = (shift + pattern_shift) & ((WORD_SIZE_bitshift-1));  // alternative, but faster
 346              		.loc 1 309 65 view .LVU144
 347 0218 4C09C8   		orq	%r9, %rax
 348 021b 488903   		movq	%rax, (%rbx)
 349              		.loc 1 310 9 is_stmt 1 view .LVU145
 350              	.LVL38:
 351              		.loc 1 310 15 is_stmt 0 view .LVU146
 352 021e 83E63F   		andl	$63, %esi
 353              	.LVL39:
 307:sieve_extend.c ****         copy_word++;
 354              		.loc 1 307 11 is_stmt 1 view .LVU147
 355 0221 4883C308 		addq	$8, %rbx
 356              	.L40:
 308:sieve_extend.c ****         bitarray[copy_word] = (pattern << (pattern_size-shift)) | (pattern >> shift);
 357              		.loc 1 308 9 view .LVU148
 309:sieve_extend.c ****         shift = (shift + pattern_shift) & ((WORD_SIZE_bitshift-1));  // alternative, but faster
 358              		.loc 1 309 9 view .LVU149
 309:sieve_extend.c ****         shift = (shift + pattern_shift) & ((WORD_SIZE_bitshift-1));  // alternative, but faster
 359              		.loc 1 309 56 is_stmt 0 view .LVU150
 360 0225 4589DA   		movl	%r11d, %r10d
GAS LISTING /tmp/ccEWrfMF.s 			page 14


 361 0228 4129F2   		subl	%esi, %r10d
 309:sieve_extend.c ****         shift = (shift + pattern_shift) & ((WORD_SIZE_bitshift-1));  // alternative, but faster
 362              		.loc 1 309 76 view .LVU151
 363 022b C442CBF7 		shrx	%rsi, %r8, %r12
 363      E0
 309:sieve_extend.c ****         shift = (shift + pattern_shift) & ((WORD_SIZE_bitshift-1));  // alternative, but faster
 364              		.loc 1 309 40 view .LVU152
 365 0230 C4C2A9F7 		shlx	%r10, %r8, %rbp
 365      E8
 366              		.loc 1 310 24 view .LVU153
 367 0235 4801D6   		addq	%rdx, %rsi
 368              	.LVL40:
 309:sieve_extend.c ****         shift = (shift + pattern_shift) & ((WORD_SIZE_bitshift-1));  // alternative, but faster
 369              		.loc 1 309 65 view .LVU154
 370 0238 4C09E5   		orq	%r12, %rbp
 371 023b 48892B   		movq	%rbp, (%rbx)
 372              		.loc 1 310 9 is_stmt 1 view .LVU155
 373              	.LVL41:
 374              		.loc 1 310 15 is_stmt 0 view .LVU156
 375 023e 83E63F   		andl	$63, %esi
 376              	.LVL42:
 307:sieve_extend.c ****         copy_word++;
 377              		.loc 1 307 11 is_stmt 1 view .LVU157
 378 0241 4883C308 		addq	$8, %rbx
 379              	.L39:
 308:sieve_extend.c ****         bitarray[copy_word] = (pattern << (pattern_size-shift)) | (pattern >> shift);
 380              		.loc 1 308 9 view .LVU158
 309:sieve_extend.c ****         shift = (shift + pattern_shift) & ((WORD_SIZE_bitshift-1));  // alternative, but faster
 381              		.loc 1 309 9 view .LVU159
 309:sieve_extend.c ****         shift = (shift + pattern_shift) & ((WORD_SIZE_bitshift-1));  // alternative, but faster
 382              		.loc 1 309 56 is_stmt 0 view .LVU160
 383 0245 4489D9   		movl	%r11d, %ecx
 384 0248 29F1     		subl	%esi, %ecx
 309:sieve_extend.c ****         shift = (shift + pattern_shift) & ((WORD_SIZE_bitshift-1));  // alternative, but faster
 385              		.loc 1 309 76 view .LVU161
 386 024a C442CBF7 		shrx	%rsi, %r8, %r9
 386      C8
 309:sieve_extend.c ****         shift = (shift + pattern_shift) & ((WORD_SIZE_bitshift-1));  // alternative, but faster
 387              		.loc 1 309 40 view .LVU162
 388 024f C4C2F1F7 		shlx	%rcx, %r8, %rax
 388      C0
 389              		.loc 1 310 24 view .LVU163
 390 0254 4801D6   		addq	%rdx, %rsi
 391              	.LVL43:
 309:sieve_extend.c ****         shift = (shift + pattern_shift) & ((WORD_SIZE_bitshift-1));  // alternative, but faster
 392              		.loc 1 309 65 view .LVU164
 393 0257 4C09C8   		orq	%r9, %rax
 394 025a 488903   		movq	%rax, (%rbx)
 395              		.loc 1 310 9 is_stmt 1 view .LVU165
 396              	.LVL44:
 397              		.loc 1 310 15 is_stmt 0 view .LVU166
 398 025d 83E63F   		andl	$63, %esi
 399              	.LVL45:
 307:sieve_extend.c ****         copy_word++;
 400              		.loc 1 307 11 is_stmt 1 view .LVU167
 401 0260 4883C308 		addq	$8, %rbx
 402              	.L38:
GAS LISTING /tmp/ccEWrfMF.s 			page 15


 308:sieve_extend.c ****         bitarray[copy_word] = (pattern << (pattern_size-shift)) | (pattern >> shift);
 403              		.loc 1 308 9 view .LVU168
 309:sieve_extend.c ****         shift = (shift + pattern_shift) & ((WORD_SIZE_bitshift-1));  // alternative, but faster
 404              		.loc 1 309 9 view .LVU169
 309:sieve_extend.c ****         shift = (shift + pattern_shift) & ((WORD_SIZE_bitshift-1));  // alternative, but faster
 405              		.loc 1 309 56 is_stmt 0 view .LVU170
 406 0264 4589DA   		movl	%r11d, %r10d
 407 0267 4129F2   		subl	%esi, %r10d
 309:sieve_extend.c ****         shift = (shift + pattern_shift) & ((WORD_SIZE_bitshift-1));  // alternative, but faster
 408              		.loc 1 309 76 view .LVU171
 409 026a C442CBF7 		shrx	%rsi, %r8, %r12
 409      E0
 309:sieve_extend.c ****         shift = (shift + pattern_shift) & ((WORD_SIZE_bitshift-1));  // alternative, but faster
 410              		.loc 1 309 40 view .LVU172
 411 026f C4C2A9F7 		shlx	%r10, %r8, %rbp
 411      E8
 309:sieve_extend.c ****         shift = (shift + pattern_shift) & ((WORD_SIZE_bitshift-1));  // alternative, but faster
 412              		.loc 1 309 65 view .LVU173
 413 0274 4C09E5   		orq	%r12, %rbp
 414 0277 48892B   		movq	%rbp, (%rbx)
 415              		.loc 1 310 9 is_stmt 1 view .LVU174
 416              		.loc 1 310 24 is_stmt 0 view .LVU175
 417 027a 4801D6   		addq	%rdx, %rsi
 418              	.LVL46:
 419              		.loc 1 310 24 view .LVU176
 420 027d 4883C308 		addq	$8, %rbx
 421              		.loc 1 310 15 view .LVU177
 422 0281 83E63F   		andl	$63, %esi
 423              	.LVL47:
 307:sieve_extend.c ****         copy_word++;
 424              		.loc 1 307 11 is_stmt 1 view .LVU178
 425 0284 4839DF   		cmpq	%rbx, %rdi
 426 0287 0F84F000 		je	.L58
 426      0000
 427              	.L6:
 308:sieve_extend.c ****         bitarray[copy_word] = (pattern << (pattern_size-shift)) | (pattern >> shift);
 428              		.loc 1 308 9 view .LVU179
 309:sieve_extend.c ****         shift = (shift + pattern_shift) & ((WORD_SIZE_bitshift-1));  // alternative, but faster
 429              		.loc 1 309 9 view .LVU180
 309:sieve_extend.c ****         shift = (shift + pattern_shift) & ((WORD_SIZE_bitshift-1));  // alternative, but faster
 430              		.loc 1 309 56 is_stmt 0 view .LVU181
 431 028d 4489D9   		movl	%r11d, %ecx
 432 0290 29F1     		subl	%esi, %ecx
 309:sieve_extend.c ****         shift = (shift + pattern_shift) & ((WORD_SIZE_bitshift-1));  // alternative, but faster
 433              		.loc 1 309 76 view .LVU182
 434 0292 C442CBF7 		shrx	%rsi, %r8, %r9
 434      C8
 435              		.loc 1 310 24 view .LVU183
 436 0297 4801D6   		addq	%rdx, %rsi
 437              	.LVL48:
 438              		.loc 1 310 15 view .LVU184
 439 029a 83E63F   		andl	$63, %esi
 309:sieve_extend.c ****         shift = (shift + pattern_shift) & ((WORD_SIZE_bitshift-1));  // alternative, but faster
 440              		.loc 1 309 56 view .LVU185
 441 029d 4589DA   		movl	%r11d, %r10d
 442 02a0 4129F2   		subl	%esi, %r10d
 309:sieve_extend.c ****         shift = (shift + pattern_shift) & ((WORD_SIZE_bitshift-1));  // alternative, but faster
GAS LISTING /tmp/ccEWrfMF.s 			page 16


 443              		.loc 1 309 76 view .LVU186
 444 02a3 C442CBF7 		shrx	%rsi, %r8, %r12
 444      E0
 445              		.loc 1 310 24 view .LVU187
 446 02a8 4801D6   		addq	%rdx, %rsi
 447              		.loc 1 310 15 view .LVU188
 448 02ab 83E63F   		andl	$63, %esi
 309:sieve_extend.c ****         shift = (shift + pattern_shift) & ((WORD_SIZE_bitshift-1));  // alternative, but faster
 449              		.loc 1 309 40 view .LVU189
 450 02ae C4C2F1F7 		shlx	%rcx, %r8, %rax
 450      C0
 309:sieve_extend.c ****         shift = (shift + pattern_shift) & ((WORD_SIZE_bitshift-1));  // alternative, but faster
 451              		.loc 1 309 56 view .LVU190
 452 02b3 4489D9   		movl	%r11d, %ecx
 309:sieve_extend.c ****         shift = (shift + pattern_shift) & ((WORD_SIZE_bitshift-1));  // alternative, but faster
 453              		.loc 1 309 65 view .LVU191
 454 02b6 4C09C8   		orq	%r9, %rax
 309:sieve_extend.c ****         shift = (shift + pattern_shift) & ((WORD_SIZE_bitshift-1));  // alternative, but faster
 455              		.loc 1 309 56 view .LVU192
 456 02b9 29F1     		subl	%esi, %ecx
 309:sieve_extend.c ****         shift = (shift + pattern_shift) & ((WORD_SIZE_bitshift-1));  // alternative, but faster
 457              		.loc 1 309 76 view .LVU193
 458 02bb C442CBF7 		shrx	%rsi, %r8, %r9
 458      C8
 459              		.loc 1 310 24 view .LVU194
 460 02c0 4801D6   		addq	%rdx, %rsi
 461              		.loc 1 310 15 view .LVU195
 462 02c3 83E63F   		andl	$63, %esi
 309:sieve_extend.c ****         shift = (shift + pattern_shift) & ((WORD_SIZE_bitshift-1));  // alternative, but faster
 463              		.loc 1 309 40 view .LVU196
 464 02c6 C4C2A9F7 		shlx	%r10, %r8, %rbp
 464      E8
 309:sieve_extend.c ****         shift = (shift + pattern_shift) & ((WORD_SIZE_bitshift-1));  // alternative, but faster
 465              		.loc 1 309 56 view .LVU197
 466 02cb 4589DA   		movl	%r11d, %r10d
 309:sieve_extend.c ****         shift = (shift + pattern_shift) & ((WORD_SIZE_bitshift-1));  // alternative, but faster
 467              		.loc 1 309 65 view .LVU198
 468 02ce 4C09E5   		orq	%r12, %rbp
 309:sieve_extend.c ****         shift = (shift + pattern_shift) & ((WORD_SIZE_bitshift-1));  // alternative, but faster
 469              		.loc 1 309 56 view .LVU199
 470 02d1 4129F2   		subl	%esi, %r10d
 309:sieve_extend.c ****         shift = (shift + pattern_shift) & ((WORD_SIZE_bitshift-1));  // alternative, but faster
 471              		.loc 1 309 76 view .LVU200
 472 02d4 C442CBF7 		shrx	%rsi, %r8, %r12
 472      E0
 473              		.loc 1 310 24 view .LVU201
 474 02d9 4801D6   		addq	%rdx, %rsi
 475              		.loc 1 310 15 view .LVU202
 476 02dc 83E63F   		andl	$63, %esi
 309:sieve_extend.c ****         shift = (shift + pattern_shift) & ((WORD_SIZE_bitshift-1));  // alternative, but faster
 477              		.loc 1 309 65 view .LVU203
 478 02df 488903   		movq	%rax, (%rbx)
 479              		.loc 1 310 9 is_stmt 1 view .LVU204
 307:sieve_extend.c ****         copy_word++;
 480              		.loc 1 307 11 view .LVU205
 308:sieve_extend.c ****         bitarray[copy_word] = (pattern << (pattern_size-shift)) | (pattern >> shift);
 481              		.loc 1 308 9 view .LVU206
GAS LISTING /tmp/ccEWrfMF.s 			page 17


 309:sieve_extend.c ****         shift = (shift + pattern_shift) & ((WORD_SIZE_bitshift-1));  // alternative, but faster
 482              		.loc 1 309 9 view .LVU207
 309:sieve_extend.c ****         shift = (shift + pattern_shift) & ((WORD_SIZE_bitshift-1));  // alternative, but faster
 483              		.loc 1 309 40 is_stmt 0 view .LVU208
 484 02e2 C4C2F1F7 		shlx	%rcx, %r8, %rax
 484      C0
 309:sieve_extend.c ****         shift = (shift + pattern_shift) & ((WORD_SIZE_bitshift-1));  // alternative, but faster
 485              		.loc 1 309 56 view .LVU209
 486 02e7 4489D9   		movl	%r11d, %ecx
 309:sieve_extend.c ****         shift = (shift + pattern_shift) & ((WORD_SIZE_bitshift-1));  // alternative, but faster
 487              		.loc 1 309 65 view .LVU210
 488 02ea 4C09C8   		orq	%r9, %rax
 309:sieve_extend.c ****         shift = (shift + pattern_shift) & ((WORD_SIZE_bitshift-1));  // alternative, but faster
 489              		.loc 1 309 56 view .LVU211
 490 02ed 29F1     		subl	%esi, %ecx
 309:sieve_extend.c ****         shift = (shift + pattern_shift) & ((WORD_SIZE_bitshift-1));  // alternative, but faster
 491              		.loc 1 309 76 view .LVU212
 492 02ef C442CBF7 		shrx	%rsi, %r8, %r9
 492      C8
 493              		.loc 1 310 24 view .LVU213
 494 02f4 4801D6   		addq	%rdx, %rsi
 495              		.loc 1 310 15 view .LVU214
 496 02f7 83E63F   		andl	$63, %esi
 309:sieve_extend.c ****         shift = (shift + pattern_shift) & ((WORD_SIZE_bitshift-1));  // alternative, but faster
 497              		.loc 1 309 65 view .LVU215
 498 02fa 48896B08 		movq	%rbp, 8(%rbx)
 499              		.loc 1 310 9 is_stmt 1 view .LVU216
 307:sieve_extend.c ****         copy_word++;
 500              		.loc 1 307 11 view .LVU217
 308:sieve_extend.c ****         bitarray[copy_word] = (pattern << (pattern_size-shift)) | (pattern >> shift);
 501              		.loc 1 308 9 view .LVU218
 309:sieve_extend.c ****         shift = (shift + pattern_shift) & ((WORD_SIZE_bitshift-1));  // alternative, but faster
 502              		.loc 1 309 9 view .LVU219
 309:sieve_extend.c ****         shift = (shift + pattern_shift) & ((WORD_SIZE_bitshift-1));  // alternative, but faster
 503              		.loc 1 309 40 is_stmt 0 view .LVU220
 504 02fe C4C2A9F7 		shlx	%r10, %r8, %rbp
 504      E8
 309:sieve_extend.c ****         shift = (shift + pattern_shift) & ((WORD_SIZE_bitshift-1));  // alternative, but faster
 505              		.loc 1 309 56 view .LVU221
 506 0303 4589DA   		movl	%r11d, %r10d
 309:sieve_extend.c ****         shift = (shift + pattern_shift) & ((WORD_SIZE_bitshift-1));  // alternative, but faster
 507              		.loc 1 309 65 view .LVU222
 508 0306 4C09E5   		orq	%r12, %rbp
 309:sieve_extend.c ****         shift = (shift + pattern_shift) & ((WORD_SIZE_bitshift-1));  // alternative, but faster
 509              		.loc 1 309 56 view .LVU223
 510 0309 4129F2   		subl	%esi, %r10d
 309:sieve_extend.c ****         shift = (shift + pattern_shift) & ((WORD_SIZE_bitshift-1));  // alternative, but faster
 511              		.loc 1 309 76 view .LVU224
 512 030c C442CBF7 		shrx	%rsi, %r8, %r12
 512      E0
 513              		.loc 1 310 24 view .LVU225
 514 0311 4801D6   		addq	%rdx, %rsi
 515              		.loc 1 310 15 view .LVU226
 516 0314 83E63F   		andl	$63, %esi
 309:sieve_extend.c ****         shift = (shift + pattern_shift) & ((WORD_SIZE_bitshift-1));  // alternative, but faster
 517              		.loc 1 309 65 view .LVU227
 518 0317 48894310 		movq	%rax, 16(%rbx)
GAS LISTING /tmp/ccEWrfMF.s 			page 18


 519              		.loc 1 310 9 is_stmt 1 view .LVU228
 307:sieve_extend.c ****         copy_word++;
 520              		.loc 1 307 11 view .LVU229
 308:sieve_extend.c ****         bitarray[copy_word] = (pattern << (pattern_size-shift)) | (pattern >> shift);
 521              		.loc 1 308 9 view .LVU230
 309:sieve_extend.c ****         shift = (shift + pattern_shift) & ((WORD_SIZE_bitshift-1));  // alternative, but faster
 522              		.loc 1 309 9 view .LVU231
 309:sieve_extend.c ****         shift = (shift + pattern_shift) & ((WORD_SIZE_bitshift-1));  // alternative, but faster
 523              		.loc 1 309 40 is_stmt 0 view .LVU232
 524 031b C4C2F1F7 		shlx	%rcx, %r8, %rax
 524      C0
 309:sieve_extend.c ****         shift = (shift + pattern_shift) & ((WORD_SIZE_bitshift-1));  // alternative, but faster
 525              		.loc 1 309 56 view .LVU233
 526 0320 4489D9   		movl	%r11d, %ecx
 309:sieve_extend.c ****         shift = (shift + pattern_shift) & ((WORD_SIZE_bitshift-1));  // alternative, but faster
 527              		.loc 1 309 65 view .LVU234
 528 0323 4C09C8   		orq	%r9, %rax
 309:sieve_extend.c ****         shift = (shift + pattern_shift) & ((WORD_SIZE_bitshift-1));  // alternative, but faster
 529              		.loc 1 309 56 view .LVU235
 530 0326 29F1     		subl	%esi, %ecx
 309:sieve_extend.c ****         shift = (shift + pattern_shift) & ((WORD_SIZE_bitshift-1));  // alternative, but faster
 531              		.loc 1 309 76 view .LVU236
 532 0328 C442CBF7 		shrx	%rsi, %r8, %r9
 532      C8
 533              		.loc 1 310 24 view .LVU237
 534 032d 4801D6   		addq	%rdx, %rsi
 535              		.loc 1 310 15 view .LVU238
 536 0330 83E63F   		andl	$63, %esi
 309:sieve_extend.c ****         shift = (shift + pattern_shift) & ((WORD_SIZE_bitshift-1));  // alternative, but faster
 537              		.loc 1 309 65 view .LVU239
 538 0333 48896B18 		movq	%rbp, 24(%rbx)
 539              		.loc 1 310 9 is_stmt 1 view .LVU240
 307:sieve_extend.c ****         copy_word++;
 540              		.loc 1 307 11 view .LVU241
 308:sieve_extend.c ****         bitarray[copy_word] = (pattern << (pattern_size-shift)) | (pattern >> shift);
 541              		.loc 1 308 9 view .LVU242
 309:sieve_extend.c ****         shift = (shift + pattern_shift) & ((WORD_SIZE_bitshift-1));  // alternative, but faster
 542              		.loc 1 309 9 view .LVU243
 309:sieve_extend.c ****         shift = (shift + pattern_shift) & ((WORD_SIZE_bitshift-1));  // alternative, but faster
 543              		.loc 1 309 40 is_stmt 0 view .LVU244
 544 0337 C4C2A9F7 		shlx	%r10, %r8, %rbp
 544      E8
 309:sieve_extend.c ****         shift = (shift + pattern_shift) & ((WORD_SIZE_bitshift-1));  // alternative, but faster
 545              		.loc 1 309 56 view .LVU245
 546 033c 4589DA   		movl	%r11d, %r10d
 309:sieve_extend.c ****         shift = (shift + pattern_shift) & ((WORD_SIZE_bitshift-1));  // alternative, but faster
 547              		.loc 1 309 65 view .LVU246
 548 033f 4C09E5   		orq	%r12, %rbp
 309:sieve_extend.c ****         shift = (shift + pattern_shift) & ((WORD_SIZE_bitshift-1));  // alternative, but faster
 549              		.loc 1 309 56 view .LVU247
 550 0342 4129F2   		subl	%esi, %r10d
 309:sieve_extend.c ****         shift = (shift + pattern_shift) & ((WORD_SIZE_bitshift-1));  // alternative, but faster
 551              		.loc 1 309 65 view .LVU248
 552 0345 48894320 		movq	%rax, 32(%rbx)
 553              		.loc 1 310 9 is_stmt 1 view .LVU249
 307:sieve_extend.c ****         copy_word++;
 554              		.loc 1 307 11 view .LVU250
GAS LISTING /tmp/ccEWrfMF.s 			page 19


 308:sieve_extend.c ****         bitarray[copy_word] = (pattern << (pattern_size-shift)) | (pattern >> shift);
 555              		.loc 1 308 9 view .LVU251
 309:sieve_extend.c ****         shift = (shift + pattern_shift) & ((WORD_SIZE_bitshift-1));  // alternative, but faster
 556              		.loc 1 309 9 view .LVU252
 309:sieve_extend.c ****         shift = (shift + pattern_shift) & ((WORD_SIZE_bitshift-1));  // alternative, but faster
 557              		.loc 1 309 65 is_stmt 0 view .LVU253
 558 0349 48896B28 		movq	%rbp, 40(%rbx)
 559              		.loc 1 310 9 is_stmt 1 view .LVU254
 307:sieve_extend.c ****         copy_word++;
 560              		.loc 1 307 11 view .LVU255
 308:sieve_extend.c ****         bitarray[copy_word] = (pattern << (pattern_size-shift)) | (pattern >> shift);
 561              		.loc 1 308 9 view .LVU256
 309:sieve_extend.c ****         shift = (shift + pattern_shift) & ((WORD_SIZE_bitshift-1));  // alternative, but faster
 562              		.loc 1 309 9 view .LVU257
 309:sieve_extend.c ****         shift = (shift + pattern_shift) & ((WORD_SIZE_bitshift-1));  // alternative, but faster
 563              		.loc 1 309 76 is_stmt 0 view .LVU258
 564 034d C442CBF7 		shrx	%rsi, %r8, %r12
 564      E0
 309:sieve_extend.c ****         shift = (shift + pattern_shift) & ((WORD_SIZE_bitshift-1));  // alternative, but faster
 565              		.loc 1 309 40 view .LVU259
 566 0352 C4C2F1F7 		shlx	%rcx, %r8, %rax
 566      C0
 567              		.loc 1 310 24 view .LVU260
 568 0357 4801D6   		addq	%rdx, %rsi
 309:sieve_extend.c ****         shift = (shift + pattern_shift) & ((WORD_SIZE_bitshift-1));  // alternative, but faster
 569              		.loc 1 309 65 view .LVU261
 570 035a 4C09C8   		orq	%r9, %rax
 309:sieve_extend.c ****         shift = (shift + pattern_shift) & ((WORD_SIZE_bitshift-1));  // alternative, but faster
 571              		.loc 1 309 40 view .LVU262
 572 035d C4C2A9F7 		shlx	%r10, %r8, %rbp
 572      E8
 309:sieve_extend.c ****         shift = (shift + pattern_shift) & ((WORD_SIZE_bitshift-1));  // alternative, but faster
 573              		.loc 1 309 65 view .LVU263
 574 0362 4C09E5   		orq	%r12, %rbp
 575 0365 48894330 		movq	%rax, 48(%rbx)
 576              		.loc 1 310 9 is_stmt 1 view .LVU264
 307:sieve_extend.c ****         copy_word++;
 577              		.loc 1 307 11 view .LVU265
 308:sieve_extend.c ****         bitarray[copy_word] = (pattern << (pattern_size-shift)) | (pattern >> shift);
 578              		.loc 1 308 9 view .LVU266
 309:sieve_extend.c ****         shift = (shift + pattern_shift) & ((WORD_SIZE_bitshift-1));  // alternative, but faster
 579              		.loc 1 309 9 view .LVU267
 309:sieve_extend.c ****         shift = (shift + pattern_shift) & ((WORD_SIZE_bitshift-1));  // alternative, but faster
 580              		.loc 1 309 65 is_stmt 0 view .LVU268
 581 0369 48896B38 		movq	%rbp, 56(%rbx)
 582              		.loc 1 310 9 is_stmt 1 view .LVU269
 583              	.LVL49:
 584              		.loc 1 310 15 is_stmt 0 view .LVU270
 585 036d 83E63F   		andl	$63, %esi
 586              	.LVL50:
 307:sieve_extend.c ****         copy_word++;
 587              		.loc 1 307 11 is_stmt 1 view .LVU271
 588 0370 4883C340 		addq	$64, %rbx
 589 0374 4839DF   		cmpq	%rbx, %rdi
 590 0377 0F8510FF 		jne	.L6
 590      FFFF
 591              	.LVL51:
GAS LISTING /tmp/ccEWrfMF.s 			page 20


 592              	.L58:
 311:sieve_extend.c ****     }
 312:sieve_extend.c **** }
 593              		.loc 1 312 1 is_stmt 0 view .LVU272
 594 037d 5B       		popq	%rbx
 595              		.cfi_def_cfa_offset 24
 596 037e 5D       		popq	%rbp
 597              		.cfi_def_cfa_offset 16
 598 037f 415C     		popq	%r12
 599              		.cfi_def_cfa_offset 8
 600 0381 C3       		ret
 601              		.cfi_endproc
 602              	.LFE59:
 604 0382 66662E0F 		.p2align 4
 604      1F840000 
 604      0000000F 
 604      1F00
 605              		.globl	compare_tuning_result
 607              	compare_tuning_result:
 608              	.LVL52:
 609              	.LFB74:
 313:sieve_extend.c **** 
 314:sieve_extend.c **** static void extendSieve_aligned(bitword_t* bitarray, const counter_t source_start, const counter_t 
 315:sieve_extend.c ****     const counter_t destination_stop_word = wordindex(destination_stop);
 316:sieve_extend.c ****     const counter_t copy_start = source_start + size;
 317:sieve_extend.c ****     counter_t source_word = wordindex(source_start);
 318:sieve_extend.c ****     counter_t copy_word = wordindex(copy_start);
 319:sieve_extend.c ****     
 320:sieve_extend.c ****     bitarray[copy_word] = bitarray[source_word] & ~chopmask(bitindex(copy_start));
 321:sieve_extend.c **** 
 322:sieve_extend.c ****     while (copy_word + size <= destination_stop_word) {
 323:sieve_extend.c ****         memcpy(&bitarray[copy_word], &bitarray[source_word], (uintmax_t)size*sizeof(bitword_t) );
 324:sieve_extend.c ****         copy_word += size;
 325:sieve_extend.c ****     }
 326:sieve_extend.c **** 
 327:sieve_extend.c ****    while (copy_word < destination_stop_word) {
 328:sieve_extend.c ****         bitarray[copy_word] = bitarray[source_word];
 329:sieve_extend.c ****         source_word++;
 330:sieve_extend.c ****         copy_word++;
 331:sieve_extend.c ****     }
 332:sieve_extend.c **** 
 333:sieve_extend.c **** }
 334:sieve_extend.c **** 
 335:sieve_extend.c **** static void extendSieve_shiftright(bitword_t* bitarray, const counter_t source_start, const counter
 336:sieve_extend.c ****     const counter_t destination_stop_word = wordindex(destination_stop);
 337:sieve_extend.c ****     const counter_t copy_start = source_start + size;
 338:sieve_extend.c ****     const bitshift_t shift = bitindex(copy_start) - bitindex(source_start);
 339:sieve_extend.c ****     const bitshift_t shift_flipped = WORD_SIZE-shift;
 340:sieve_extend.c ****     counter_t source_word = wordindex(source_start);
 341:sieve_extend.c ****     counter_t copy_word = wordindex(copy_start);
 342:sieve_extend.c ****     counter_t source_lastword = wordindex(copy_start);
 343:sieve_extend.c ****     bitarray[copy_word] |= ((bitarray[source_word] << shift)  // or the start in to not lose data
 344:sieve_extend.c ****                                 | (bitarray[source_lastword] >> shift_flipped))
 345:sieve_extend.c ****                                 & ~chopmask(bitindex(copy_start));
 346:sieve_extend.c ****     copy_word++;
 347:sieve_extend.c ****     source_word++;
 348:sieve_extend.c **** 
GAS LISTING /tmp/ccEWrfMF.s 			page 21


 349:sieve_extend.c ****     const counter_t aligned_copy_word = min(source_word + size, destination_stop_word); // after <<
 350:sieve_extend.c ****     const counter_t fast_loop_stop_word = (aligned_copy_word>2) ? (aligned_copy_word - 2) : 0; // s
 351:sieve_extend.c ****     while (copy_word < fast_loop_stop_word) {
 352:sieve_extend.c ****             bitword_t sourcen = bitarray[source_word-1];
 353:sieve_extend.c ****             bitword_t source0 = bitarray[source_word  ];
 354:sieve_extend.c **** 
 355:sieve_extend.c ****             bitarray[copy_word  ] = (source0 << shift) | (sourcen >> shift_flipped);
 356:sieve_extend.c ****             bitword_t source1 = bitarray[source_word+1];
 357:sieve_extend.c ****             bitarray[copy_word+1] = (source1 << shift) | (source0 >> shift_flipped);
 358:sieve_extend.c ****             copy_word += 2;
 359:sieve_extend.c ****             source_word += 2;
 360:sieve_extend.c ****     }
 361:sieve_extend.c **** 
 362:sieve_extend.c ****     while (copy_word <= aligned_copy_word) {
 363:sieve_extend.c ****         bitarray[copy_word] = (bitarray[source_word-1] >> shift_flipped) | (bitarray[source_word] <
 364:sieve_extend.c ****         copy_word++;
 365:sieve_extend.c ****         source_word++;
 366:sieve_extend.c ****     }
 367:sieve_extend.c ****     
 368:sieve_extend.c ****     if (copy_word >= destination_stop_word) return;
 369:sieve_extend.c **** 
 370:sieve_extend.c ****     source_word = copy_word - size;
 371:sieve_extend.c ****     while (copy_word + size <= destination_stop_word) {
 372:sieve_extend.c ****         memcpy(&bitarray[copy_word], &bitarray[source_word], (uintmax_t)size*sizeof(bitword_t) );
 373:sieve_extend.c ****         copy_word += size;
 374:sieve_extend.c ****     }
 375:sieve_extend.c **** 
 376:sieve_extend.c ****     while (copy_word <= destination_stop_word) {
 377:sieve_extend.c ****         bitarray[copy_word] = bitarray[source_word];
 378:sieve_extend.c ****         copy_word++;
 379:sieve_extend.c ****         source_word++;
 380:sieve_extend.c ****     }
 381:sieve_extend.c **** 
 382:sieve_extend.c **** }
 383:sieve_extend.c **** 
 384:sieve_extend.c **** 
 385:sieve_extend.c **** // static inline counter_t extendSieve_shiftleft_unrolled(bitword_t* bitarray, const counter_t alig
 386:sieve_extend.c **** //     const bitshift_t shift_flipped = WORD_SIZE-shift;
 387:sieve_extend.c **** //     const counter_t fast_loop_stop_word = (aligned_copy_word>2) ? (aligned_copy_word - 2) : 0; /
 388:sieve_extend.c **** //     while (copy_word < fast_loop_stop_word) {
 389:sieve_extend.c **** //         bitword_t source0 = bitarray[source_word  ];
 390:sieve_extend.c **** //         bitword_t source1 = bitarray[source_word+1];
 391:sieve_extend.c **** //         bitarray[copy_word  ] = (source0 >>= shift) | (source1 << shift_flipped);
 392:sieve_extend.c **** //         bitword_t source2 = bitarray[source_word+2];
 393:sieve_extend.c **** //         bitarray[copy_word+1] = (source1 >>= shift) | (source2 <<= shift_flipped);
 394:sieve_extend.c **** //         copy_word += 2;
 395:sieve_extend.c **** //         source_word += 2;
 396:sieve_extend.c **** //     }
 397:sieve_extend.c **** //     return copy_word;
 398:sieve_extend.c **** // }
 399:sieve_extend.c **** 
 400:sieve_extend.c **** static inline counter_t extendSieve_shiftleft_unrolled(bitword_t* bitarray, const counter_t aligned
 401:sieve_extend.c ****     const counter_t fast_loop_stop_word = (aligned_copy_word>2) ? (aligned_copy_word - 2) : 0; // s
 402:sieve_extend.c ****     register const bitshift_t shift_flipped = WORD_SIZE-shift;
 403:sieve_extend.c ****     counter_t distance = 0;
 404:sieve_extend.c ****     while (copy_word < fast_loop_stop_word) {
 405:sieve_extend.c ****         bitword_t source0 = bitarray[source_word  ];
GAS LISTING /tmp/ccEWrfMF.s 			page 22


 406:sieve_extend.c ****         bitword_t source1 = bitarray[source_word+1];
 407:sieve_extend.c ****         bitarray[copy_word  ] = (source0 >> shift) | (source1 << shift_flipped);
 408:sieve_extend.c ****         bitword_t source2 = bitarray[source_word+2];
 409:sieve_extend.c ****         bitarray[copy_word+1] = (source1 >> shift) | (source2 << shift_flipped);
 410:sieve_extend.c ****         copy_word += 2;
 411:sieve_extend.c ****         source_word += 2;
 412:sieve_extend.c ****         distance += 2;
 413:sieve_extend.c ****     }
 414:sieve_extend.c ****     return distance;
 415:sieve_extend.c **** }
 416:sieve_extend.c **** 
 417:sieve_extend.c **** // static void extendSieve_shiftleft(bitword_t* bitarray, const counter_t source_start, const count
 418:sieve_extend.c **** //     const bitword_t* destination_stop_ptr = &bitarray[wordindex(destination_stop)];
 419:sieve_extend.c **** //     const counter_t copy_start = source_start + size;
 420:sieve_extend.c **** //     register const bitshift_t shift = bitindex(source_start) - bitindex(copy_start);
 421:sieve_extend.c **** //     register const bitshift_t shift_flipped = WORD_SIZE-shift;
 422:sieve_extend.c **** //     register bitword_t* source_ptr = &bitarray[wordindex(source_start)];
 423:sieve_extend.c **** //     register bitword_t* copy_ptr = &bitarray[wordindex(copy_start)];
 424:sieve_extend.c **** //     const bitword_t* aligned_copy_ptr = min(source_ptr + size, destination_stop_ptr); // after <
 425:sieve_extend.c **** 
 426:sieve_extend.c **** //     *copy_ptr |= ((*source_ptr >> shift) | (*(source_ptr+1) << shift_flipped)) & ~chopmask(bitin
 427:sieve_extend.c **** //     copy_ptr++;
 428:sieve_extend.c **** //     *source_ptr++;
 429:sieve_extend.c **** 
 430:sieve_extend.c **** //     // while (copy_ptr+2 < aligned_copy_ptr) {
 431:sieve_extend.c **** //     //     register bitword_t source0 = *source_ptr;
 432:sieve_extend.c **** //     //     source_ptr++;
 433:sieve_extend.c **** //     //     register bitword_t source1 = *source_ptr;
 434:sieve_extend.c **** //     //     *copy_ptr = (source0 >> shift) | (source1 << shift_flipped);
 435:sieve_extend.c **** //     //     copy_ptr++;
 436:sieve_extend.c **** //     //     source_ptr++;
 437:sieve_extend.c **** //     //     register bitword_t source2 = *source_ptr << shift_flipped;
 438:sieve_extend.c **** //     //     copy_ptr++;
 439:sieve_extend.c **** //     //     *copy_ptr = (source1 >> shift) | (source2 << shift_flipped);
 440:sieve_extend.c **** //     // }
 441:sieve_extend.c **** 
 442:sieve_extend.c **** //     // const counter_t distance  = extendSieve_shiftleft_unrolled(bitarray, aligned_copy_word, s
 443:sieve_extend.c **** //     // source_word += distance;
 444:sieve_extend.c **** //     // copy_word += distance;
 445:sieve_extend.c **** 
 446:sieve_extend.c **** //     while (copy_ptr <= aligned_copy_ptr) {
 447:sieve_extend.c **** //         register bitword_t source0 = *source_ptr >> shift;
 448:sieve_extend.c **** //         source_ptr++;
 449:sieve_extend.c **** //         register bitword_t source1 = *source_ptr << shift_flipped;
 450:sieve_extend.c **** //         *copy_ptr = source0 | source1;
 451:sieve_extend.c **** //          copy_ptr++;
 452:sieve_extend.c **** //     }
 453:sieve_extend.c **** 
 454:sieve_extend.c **** //     if (copy_ptr >= destination_stop_ptr) return;
 455:sieve_extend.c **** 
 456:sieve_extend.c **** //     source_ptr = copy_ptr - size; // recalibrate
 457:sieve_extend.c **** //     const size_t memsize = size*sizeof(bitword_t);
 458:sieve_extend.c **** //     // while (copy_ptr + size <= destination_stop_ptr) {
 459:sieve_extend.c **** //     //     memcpy(copy_ptr, source_ptr, memsize );
 460:sieve_extend.c **** //     //     copy_ptr += size;
 461:sieve_extend.c **** //     // }
 462:sieve_extend.c **** 
GAS LISTING /tmp/ccEWrfMF.s 			page 23


 463:sieve_extend.c **** //     while (copy_ptr <= destination_stop_ptr) {
 464:sieve_extend.c **** //         // *copy_ptr++ = *source_ptr++;
 465:sieve_extend.c **** //         *copy_ptr = *source_ptr;
 466:sieve_extend.c **** //         copy_ptr++;
 467:sieve_extend.c **** //         source_ptr++;
 468:sieve_extend.c **** //     }
 469:sieve_extend.c **** 
 470:sieve_extend.c **** // }
 471:sieve_extend.c **** 
 472:sieve_extend.c **** static void extendSieve_shiftleft(bitword_t* bitarray, const counter_t source_start, const counter_
 473:sieve_extend.c ****     const counter_t destination_stop_word = wordindex(destination_stop);
 474:sieve_extend.c ****     const counter_t copy_start = source_start + size;
 475:sieve_extend.c ****     register const bitshift_t shift = bitindex(source_start) - bitindex(copy_start);
 476:sieve_extend.c ****     register const bitshift_t shift_flipped = WORD_SIZE-shift;
 477:sieve_extend.c ****     register counter_t source_word = wordindex(source_start);
 478:sieve_extend.c ****     register counter_t copy_word = wordindex(copy_start);
 479:sieve_extend.c ****     bitarray[copy_word] |= ((bitarray[source_word] >> shift)
 480:sieve_extend.c ****                                 | (bitarray[source_word+1] << shift_flipped))
 481:sieve_extend.c ****                                 & ~chopmask(bitindex(copy_start)); // because this is the first wor
 482:sieve_extend.c **** 
 483:sieve_extend.c ****     copy_word++;
 484:sieve_extend.c ****     source_word++;
 485:sieve_extend.c **** 
 486:sieve_extend.c ****     const counter_t aligned_copy_word = min(source_word + size, destination_stop_word); // after <<
 487:sieve_extend.c ****     // const counter_t distance  = extendSieve_shiftleft_unrolled(bitarray, aligned_copy_word, shif
 488:sieve_extend.c ****     // source_word += distance;
 489:sieve_extend.c ****     // copy_word += distance;
 490:sieve_extend.c **** 
 491:sieve_extend.c ****     while (copy_word <= aligned_copy_word) {
 492:sieve_extend.c ****         register bitword_t source0 = bitarray[source_word  ] >> shift;
 493:sieve_extend.c ****         source_word++;
 494:sieve_extend.c ****         register bitword_t source1 = bitarray[source_word  ] << shift_flipped;
 495:sieve_extend.c ****         bitarray[copy_word] = source0 | source1;
 496:sieve_extend.c ****         copy_word++;
 497:sieve_extend.c ****     }
 498:sieve_extend.c **** 
 499:sieve_extend.c ****     if (copy_word >= destination_stop_word) return;
 500:sieve_extend.c **** 
 501:sieve_extend.c ****     source_word = copy_word - size; // recalibrate
 502:sieve_extend.c ****     const size_t memsize = size*sizeof(bitword_t);
 503:sieve_extend.c ****     while (copy_word + size <= destination_stop_word) {
 504:sieve_extend.c ****         // memcpy(&bitarray[copy_word], &bitarray[source_word], (size_t)size*sizeof(bitword_t) );
 505:sieve_extend.c ****         memcpy(&bitarray[copy_word], &bitarray[source_word],memsize );
 506:sieve_extend.c ****         copy_word += size;
 507:sieve_extend.c ****     }
 508:sieve_extend.c **** 
 509:sieve_extend.c ****     while (copy_word <= destination_stop_word) {
 510:sieve_extend.c ****         bitarray[copy_word] = bitarray[source_word];
 511:sieve_extend.c ****         copy_word++;
 512:sieve_extend.c ****         source_word++;
 513:sieve_extend.c ****     }
 514:sieve_extend.c **** 
 515:sieve_extend.c **** }
 516:sieve_extend.c **** 
 517:sieve_extend.c **** static inline void extendSieve(bitword_t* bitarray, const counter_t source_start, const counter_t s
 518:sieve_extend.c ****     if (size < WORD_SIZE)           extendSieve_smallSize (bitarray, source_start, size, destinatio
 519:sieve_extend.c **** 
GAS LISTING /tmp/ccEWrfMF.s 			page 24


 520:sieve_extend.c ****     const counter_t copy_start  = source_start + size;
 521:sieve_extend.c ****     const bitshift_t copy_bit   = bitindex(copy_start);
 522:sieve_extend.c ****     const bitshift_t source_bit = bitindex(source_start);
 523:sieve_extend.c **** 
 524:sieve_extend.c ****     if      (source_bit > copy_bit) extendSieve_shiftleft (bitarray, source_start, size, destinatio
 525:sieve_extend.c ****     else if (source_bit < copy_bit) extendSieve_shiftright(bitarray, source_start, size, destinatio
 526:sieve_extend.c ****     else                            extendSieve_aligned   (bitarray, source_start, size, destinatio
 527:sieve_extend.c **** }
 528:sieve_extend.c **** 
 529:sieve_extend.c **** static void sieve_block_stripe(struct sieve_state *sieve, const counter_t block_start, const counte
 530:sieve_extend.c ****     counter_t prime = prime_start;
 531:sieve_extend.c ****     counter_t start = prime * prime * 2 + prime * 2;
 532:sieve_extend.c ****     counter_t step  = prime * 2 + 1;
 533:sieve_extend.c ****     bitword_t* bitarray = sieve->bitarray;
 534:sieve_extend.c ****     
 535:sieve_extend.c ****     while (start <= block_stop) {
 536:sieve_extend.c ****         step  = prime * 2 + 1;
 537:sieve_extend.c ****         if (step > SMALLSTEP_FASTER) break;
 538:sieve_extend.c ****         if (block_start >= (prime + 1)) start = block_start + prime + prime - ((block_start + prime
 539:sieve_extend.c ****         setBitsTrue_smallStep(bitarray, start, (bitshift_t)step, block_stop);
 540:sieve_extend.c ****         prime = searchBitFalse(bitarray, prime+1 );
 541:sieve_extend.c ****         start = prime * prime * 2 + prime * 2;
 542:sieve_extend.c ****     }
 543:sieve_extend.c ****     
 544:sieve_extend.c ****     while (start <= block_stop) {
 545:sieve_extend.c ****         step  = prime * 2 + 1;
 546:sieve_extend.c ****         if (step > MEDIUMSTEP_FASTER) break;
 547:sieve_extend.c ****         if (block_start >= (prime + 1)) start = block_start + prime + prime - ((block_start + prime
 548:sieve_extend.c ****         setBitsTrue_mediumStep(bitarray, start, step, block_stop);
 549:sieve_extend.c ****         prime = searchBitFalse(bitarray, prime+1 );
 550:sieve_extend.c ****         start = prime * prime * 2 + prime * 2;
 551:sieve_extend.c ****     }
 552:sieve_extend.c **** 
 553:sieve_extend.c ****     counter_t start1 = 0; // save value
 554:sieve_extend.c ****     counter_t step1 = 0; // save value
 555:sieve_extend.c ****     while (start <= block_stop) {
 556:sieve_extend.c ****         step  = prime * 2 + 1;
 557:sieve_extend.c ****         if (step > 64) break;
 558:sieve_extend.c ****         if (block_start >= (prime + 1)) start = block_start + prime + prime - ((block_start + prime
 559:sieve_extend.c ****         start1 = start; // save value
 560:sieve_extend.c ****         step1 = step; // save value
 561:sieve_extend.c ****         prime = searchBitFalse(bitarray, prime+1 );
 562:sieve_extend.c ****         start = prime * prime * 2 + prime * 2;
 563:sieve_extend.c ****         step  = prime * 2 + 1;
 564:sieve_extend.c ****         if (block_start >= (prime + 1)) start = block_start + prime + prime - ((block_start + prime
 565:sieve_extend.c ****         if (start <= block_stop) setBitsTrue_race(bitarray, start1, start, step1, step, block_stop)
 566:sieve_extend.c ****         else                     setBitsTrue_smallRange(bitarray, start1, step1, block_stop);
 567:sieve_extend.c ****         prime = searchBitFalse(bitarray, prime+1 );
 568:sieve_extend.c ****         start = prime * prime * 2 + prime * 2;
 569:sieve_extend.c ****     }
 570:sieve_extend.c ****     
 571:sieve_extend.c ****     while (start <= block_stop) {
 572:sieve_extend.c ****         step  = prime * 2 + 1;
 573:sieve_extend.c ****         if (block_start >= (prime + 1)) start = block_start + prime + prime - ((block_start + prime
 574:sieve_extend.c ****         if (start + step * WORD_SIZE_counter > block_stop) break;
 575:sieve_extend.c ****         setBitsTrue_largeRange(bitarray, start, step, block_stop);
 576:sieve_extend.c ****         prime = searchBitFalse(bitarray, prime+1 );
GAS LISTING /tmp/ccEWrfMF.s 			page 25


 577:sieve_extend.c ****         start = prime * prime * 2 + prime * 2;
 578:sieve_extend.c ****     }
 579:sieve_extend.c **** 
 580:sieve_extend.c ****     while (start <= block_stop) {
 581:sieve_extend.c ****         step  = prime * 2 + 1;
 582:sieve_extend.c ****         if (block_start >= (prime + 1)) start = block_start + prime + prime - ((block_start + prime
 583:sieve_extend.c ****         setBitsTrue_smallRange(bitarray, start, step, block_stop);
 584:sieve_extend.c ****         prime = searchBitFalse(bitarray, prime+1 );
 585:sieve_extend.c ****         start = prime * prime * 2 + prime * 2;
 586:sieve_extend.c ****     }
 587:sieve_extend.c **** }
 588:sieve_extend.c **** 
 589:sieve_extend.c **** struct block {
 590:sieve_extend.c ****     counter_t pattern_size; // size of pattern applied 
 591:sieve_extend.c ****     counter_t pattern_start; // start of pattern
 592:sieve_extend.c ****     counter_t prime; // next prime to be striped
 593:sieve_extend.c **** };
 594:sieve_extend.c **** 
 595:sieve_extend.c **** // returns prime that could not be handled:
 596:sieve_extend.c **** // start is too large
 597:sieve_extend.c **** // range is too big
 598:sieve_extend.c **** static struct block sieve_block_extend(struct sieve_state *sieve, const counter_t block_start, cons
 599:sieve_extend.c ****     counter_t prime            = 0;
 600:sieve_extend.c ****     counter_t patternsize_bits = 1;
 601:sieve_extend.c ****     counter_t pattern_start    = 0;
 602:sieve_extend.c ****     counter_t range_stop       = block_stop;
 603:sieve_extend.c ****     bitword_t* bitarray        = sieve->bitarray;
 604:sieve_extend.c ****     struct block block = { .prime = 0, .pattern_start = 0, .pattern_size = 0 };
 605:sieve_extend.c **** 
 606:sieve_extend.c ****     sieve->bitarray[0] = SAFE_ZERO; // only the first word has to be cleared; the rest is populated
 607:sieve_extend.c ****     
 608:sieve_extend.c ****     do {
 609:sieve_extend.c ****         prime = searchBitFalse(bitarray, prime+1);
 610:sieve_extend.c ****         counter_t start = prime * prime * 2 + prime * 2;
 611:sieve_extend.c ****         if (start > block_stop) break;
 612:sieve_extend.c **** 
 613:sieve_extend.c ****         const counter_t step  = prime * 2 + 1;
 614:sieve_extend.c ****         if (block_start >= (prime + 1)) start = block_start + prime + prime - ((block_start + prime
 615:sieve_extend.c **** 
 616:sieve_extend.c ****         range_stop = block_start + patternsize_bits * step * 2;  // range is x2 so the second block
 617:sieve_extend.c ****         block.pattern_size = patternsize_bits;
 618:sieve_extend.c ****         block.pattern_start = pattern_start;
 619:sieve_extend.c ****         if (range_stop > block_stop) return block; //range_stop = block_stop;
 620:sieve_extend.c **** 
 621:sieve_extend.c ****         if (patternsize_bits>1) {
 622:sieve_extend.c ****             pattern_start = block_start | patternsize_bits;
 623:sieve_extend.c ****             extendSieve(bitarray, pattern_start, patternsize_bits, range_stop);
 624:sieve_extend.c ****         }
 625:sieve_extend.c ****         patternsize_bits *= step;
 626:sieve_extend.c **** 
 627:sieve_extend.c ****         if      (step < SMALLSTEP_FASTER)  setBitsTrue_smallStep (bitarray, start, (bitshift_t)step
 628:sieve_extend.c ****         else if (step < MEDIUMSTEP_FASTER) setBitsTrue_mediumStep(bitarray, start, step, range_stop
 629:sieve_extend.c ****         else                               setBitsTrue_largeRange(bitarray, start, step, range_stop
 630:sieve_extend.c ****         block.prime = prime;
 631:sieve_extend.c ****     } while (range_stop < block_stop);
 632:sieve_extend.c **** 
 633:sieve_extend.c ****     return block;
GAS LISTING /tmp/ccEWrfMF.s 			page 26


 634:sieve_extend.c **** }
 635:sieve_extend.c **** 
 636:sieve_extend.c **** static struct sieve_state *sieve(const counter_t maxints, const counter_t blocksize) {
 637:sieve_extend.c ****     struct sieve_state *sieve = create_sieve(maxints);
 638:sieve_extend.c ****     counter_t prime         = 0;
 639:sieve_extend.c ****     counter_t block_start   = 0;
 640:sieve_extend.c ****     counter_t block_stop    = blocksize-1;
 641:sieve_extend.c ****     bitword_t* bitarray        = sieve->bitarray;
 642:sieve_extend.c **** 
 643:sieve_extend.c ****     // fill the whole sieve bij adding en copying incrementally
 644:sieve_extend.c ****     struct block block = sieve_block_extend(sieve, 0, sieve->bits);
 645:sieve_extend.c ****     extendSieve(bitarray, block.pattern_start, block.pattern_size, sieve->bits);
 646:sieve_extend.c ****     prime = block.prime;
 647:sieve_extend.c **** 
 648:sieve_extend.c ****     do {
 649:sieve_extend.c ****         if (block_stop > sieve->bits) block_stop = sieve->bits;
 650:sieve_extend.c ****         prime = searchBitFalse(bitarray, prime);
 651:sieve_extend.c ****         sieve_block_stripe(sieve, block_start, block_stop, prime);
 652:sieve_extend.c ****         // sieve_block_stripe(bitarray, block_start, block_stop, prime+1);
 653:sieve_extend.c ****         block_start += blocksize;
 654:sieve_extend.c ****         block_stop += blocksize;
 655:sieve_extend.c ****     } while (block_start <= sieve->bits);
 656:sieve_extend.c **** 
 657:sieve_extend.c ****     return sieve;
 658:sieve_extend.c **** }
 659:sieve_extend.c **** 
 660:sieve_extend.c **** // https://stackoverflow.com/questions/31117497/fastest-integer-square-root-in-the-least-amount-of-
 661:sieve_extend.c **** static inline counter_t isqrt(counter_t val) {
 662:sieve_extend.c ****     counter_t temp, g=0, b = 0x8000, bshft = 15;
 663:sieve_extend.c ****     do {
 664:sieve_extend.c ****         if (val >= (temp = (((g << 1) + b)<<bshft--))) {
 665:sieve_extend.c ****            g += b;
 666:sieve_extend.c ****            val -= temp;
 667:sieve_extend.c ****         }
 668:sieve_extend.c ****     } while (b >>= 1);
 669:sieve_extend.c ****     return g;
 670:sieve_extend.c **** }
 671:sieve_extend.c **** 
 672:sieve_extend.c **** static void show_primes(struct sieve_state *sieve) {
 673:sieve_extend.c ****     counter_t       bits = sieve->bits;
 674:sieve_extend.c ****     bitword_t  *bitarray = sieve->bitarray;
 675:sieve_extend.c ****     counter_t primecount = 1;    // We already have 2
 676:sieve_extend.c ****     for (counter_t factor=1; factor < bits; factor++) {
 677:sieve_extend.c ****         if ((bitarray[wordindex(factor)] & markmask(factor))==0) {
 678:sieve_extend.c ****             if (primecount < 100) {
 679:sieve_extend.c ****                 printf("%3ju ",(uintmax_t)factor*2+1);
 680:sieve_extend.c ****                 if (primecount % 10 == 0) printf("\n");
 681:sieve_extend.c ****                 printf(" \b"); 
 682:sieve_extend.c ****             }
 683:sieve_extend.c ****             primecount++;
 684:sieve_extend.c ****         }
 685:sieve_extend.c ****     }
 686:sieve_extend.c ****     puts("");
 687:sieve_extend.c **** }
 688:sieve_extend.c **** 
 689:sieve_extend.c **** static counter_t count_primes(struct sieve_state *sieve) {
 690:sieve_extend.c ****     counter_t       bits = sieve->bits;
GAS LISTING /tmp/ccEWrfMF.s 			page 27


 691:sieve_extend.c ****     bitword_t  *bitarray = sieve->bitarray;
 692:sieve_extend.c ****     counter_t primecount = 1;    // We already have 2
 693:sieve_extend.c ****     for (counter_t factor=1; factor < bits; factor++) {
 694:sieve_extend.c ****         if ((bitarray[wordindex(factor)] & markmask(factor))==0) {
 695:sieve_extend.c ****             primecount++;
 696:sieve_extend.c ****         }
 697:sieve_extend.c ****     }
 698:sieve_extend.c ****     return primecount;
 699:sieve_extend.c **** }
 700:sieve_extend.c **** 
 701:sieve_extend.c **** static void deepAnalyzePrimes(struct sieve_state *sieve) {
 702:sieve_extend.c ****     printf("DeepAnalyzing\n");
 703:sieve_extend.c ****     counter_t range_to =  sieve->bits;
 704:sieve_extend.c ****     counter_t warn_prime = 0;
 705:sieve_extend.c ****     counter_t warn_nonprime = 0;
 706:sieve_extend.c ****     for (counter_t prime = 1; prime < range_to; prime++ ) {
 707:sieve_extend.c ****         if ((sieve->bitarray[wordindex(prime)] & markmask(prime))==0) { // is this a prime?
 708:sieve_extend.c ****             counter_t q = (isqrt(prime*2+1)|1)*2+1;
 709:sieve_extend.c ****             for(counter_t c=1; c<=q; c++) {
 710:sieve_extend.c ****                 if ((prime*2+1) % (c*2+1) == 0 && (c*2+1) != (prime*2+1)) {
 711:sieve_extend.c ****                     if (warn_prime++ < 30) {
 712:sieve_extend.c ****                         printf("Number %ju (%ju) was marked prime, but %ju * %ju = %ju\n", (uintmax
 713:sieve_extend.c ****                     }
 714:sieve_extend.c ****                 }
 715:sieve_extend.c ****             }
 716:sieve_extend.c ****         }
 717:sieve_extend.c ****         else {
 718:sieve_extend.c ****             counter_t q = (isqrt(prime*2+1)|1)*2+1;
 719:sieve_extend.c ****             counter_t c_prime = 0;
 720:sieve_extend.c ****             for(counter_t c=1; c<=q; c++) {
 721:sieve_extend.c ****                 if ((prime*2+1) % (c*2+1) == 0 && (c*2+1) != (prime*2+1)) {
 722:sieve_extend.c ****                     c_prime++;
 723:sieve_extend.c ****                     break;
 724:sieve_extend.c ****                 }
 725:sieve_extend.c ****             }
 726:sieve_extend.c ****             if (c_prime==0) {
 727:sieve_extend.c ****                 if (warn_nonprime++ < 30) {
 728:sieve_extend.c ****                     printf("Number %ju (%ju) was marked non-prime, but no factors found. So it is p
 729:sieve_extend.c ****                 }
 730:sieve_extend.c ****             }
 731:sieve_extend.c ****         }
 732:sieve_extend.c ****     }
 733:sieve_extend.c **** }
 734:sieve_extend.c **** 
 735:sieve_extend.c **** 
 736:sieve_extend.c **** int validatePrimeCount(struct sieve_state *sieve, int option_verboselevel) {
 737:sieve_extend.c **** 
 738:sieve_extend.c ****     counter_t primecount = count_primes(sieve);
 739:sieve_extend.c ****     counter_t valid_primes;
 740:sieve_extend.c ****     switch(sieve->size) {
 741:sieve_extend.c ****         case 10:            valid_primes = 4;        break;
 742:sieve_extend.c ****         case 100:           valid_primes = 25;       break;
 743:sieve_extend.c ****         case 1000:          valid_primes = 168;      break;
 744:sieve_extend.c ****         case 10000:         valid_primes = 1229;     break;
 745:sieve_extend.c ****         case 100000:        valid_primes = 9592;     break;
 746:sieve_extend.c ****         case 1000000:       valid_primes = 78498;    break;
 747:sieve_extend.c ****         case 10000000:      valid_primes = 664579;   break;
GAS LISTING /tmp/ccEWrfMF.s 			page 28


 748:sieve_extend.c ****         case 100000000:     valid_primes = 5761455;  break;
 749:sieve_extend.c ****         case 1000000000:    valid_primes = 50847534; break;
 750:sieve_extend.c ****         default:            valid_primes=-1;
 751:sieve_extend.c ****     }
 752:sieve_extend.c **** 
 753:sieve_extend.c ****     int valid = (valid_primes == primecount);
 754:sieve_extend.c ****     if (valid  && option_verboselevel >= 4) printf("Result: Sievesize %ju is expected to have %ju p
 755:sieve_extend.c ****     if (!valid && option_verboselevel >= 1) {
 756:sieve_extend.c ****         printf("No valid result. Sievesize %ju was expected to have %ju primes, but algorithm produ
 757:sieve_extend.c ****         if (!valid && option_verboselevel >= 2) show_primes(sieve);
 758:sieve_extend.c ****     }
 759:sieve_extend.c ****     if (!valid && option_verboselevel >= 3) deepAnalyzePrimes(sieve);
 760:sieve_extend.c ****     return (valid);
 761:sieve_extend.c **** }
 762:sieve_extend.c **** 
 763:sieve_extend.c **** void usage(char *name) {
 764:sieve_extend.c ****     fprintf(stderr, "Usage: %s [options] [maximum]\n", name);
 765:sieve_extend.c ****     fprintf(stderr, "Options:\n");
 766:sieve_extend.c ****     fprintf(stderr, "  --verbose <level> Show more output to a certain level:\n");
 767:sieve_extend.c ****     fprintf(stderr, "                    1 - show phase progress\n");
 768:sieve_extend.c ****     fprintf(stderr, "                    2 - show general progress within the phase\n");
 769:sieve_extend.c ****     fprintf(stderr, "                    3 - show actual work\n");
 770:sieve_extend.c ****     fprintf(stderr, "  --check           check the correctness of the algorithm\n");
 771:sieve_extend.c ****     fprintf(stderr, "  --tune  <level>   find the best settings for the current os and hardware\n")
 772:sieve_extend.c ****     fprintf(stderr, "                    1 - fast tuning\n");
 773:sieve_extend.c ****     fprintf(stderr, "                    2 - refined tuning\n");
 774:sieve_extend.c ****     fprintf(stderr, "                    3 - maximum tuning (takes long)\n");
 775:sieve_extend.c ****     exit(1);
 776:sieve_extend.c **** }
 777:sieve_extend.c **** 
 778:sieve_extend.c **** typedef struct  {
 779:sieve_extend.c ****     counter_t maxints;
 780:sieve_extend.c ****     counter_t blocksize_bits;
 781:sieve_extend.c ****     counter_t blocksize_kb;
 782:sieve_extend.c ****     counter_t free_bits;
 783:sieve_extend.c ****     counter_t smallstep_faster;
 784:sieve_extend.c ****     counter_t mediumstep_faster;
 785:sieve_extend.c ****     counter_t sample_max;
 786:sieve_extend.c ****     double    sample_duration;
 787:sieve_extend.c ****     counter_t passes;
 788:sieve_extend.c ****     double    elapsed_time;
 789:sieve_extend.c ****     double    avg;
 790:sieve_extend.c **** } tuning_result_type;
 791:sieve_extend.c **** 
 792:sieve_extend.c **** int compare_tuning_result(const void *a, const void *b) {
 610              		.loc 1 792 57 is_stmt 1 view -0
 611              		.cfi_startproc
 612              		.loc 1 792 57 is_stmt 0 view .LVU274
 613 0390 F30F1EFA 		endbr64
 793:sieve_extend.c ****     tuning_result_type *resultA = (tuning_result_type *)a;
 614              		.loc 1 793 5 is_stmt 1 view .LVU275
 615              	.LVL53:
 794:sieve_extend.c ****     tuning_result_type *resultB = (tuning_result_type *)b;
 616              		.loc 1 794 5 view .LVU276
 795:sieve_extend.c ****     return (resultB->avg > resultA->avg ? 1 : -1);
 617              		.loc 1 795 5 view .LVU277
 618              		.loc 1 795 45 is_stmt 0 view .LVU278
GAS LISTING /tmp/ccEWrfMF.s 			page 29


 619 0394 C5FB1046 		vmovsd	80(%rsi), %xmm0
 619      50
 620 0399 31C0     		xorl	%eax, %eax
 621 039b C5F92F47 		vcomisd	80(%rdi), %xmm0
 621      50
 622 03a0 0F97C0   		seta	%al
 623 03a3 8D4400FF 		leal	-1(%rax,%rax), %eax
 796:sieve_extend.c **** }
 624              		.loc 1 796 1 view .LVU279
 625 03a7 C3       		ret
 626              		.cfi_endproc
 627              	.LFE74:
 629 03a8 0F1F8400 		.p2align 4
 629      00000000 
 631              	extendSieve_aligned:
 632              	.LVL54:
 633              	.LFB60:
 314:sieve_extend.c ****     const counter_t destination_stop_word = wordindex(destination_stop);
 634              		.loc 1 314 140 is_stmt 1 view -0
 635              		.cfi_startproc
 315:sieve_extend.c ****     const counter_t copy_start = source_start + size;
 636              		.loc 1 315 5 view .LVU281
 314:sieve_extend.c ****     const counter_t destination_stop_word = wordindex(destination_stop);
 637              		.loc 1 314 140 is_stmt 0 view .LVU282
 638 03b0 55       		pushq	%rbp
 639              		.cfi_def_cfa_offset 16
 640              		.cfi_offset 6, -16
 317:sieve_extend.c ****     counter_t copy_word = wordindex(copy_start);
 641              		.loc 1 317 15 view .LVU283
 642 03b1 4889F0   		movq	%rsi, %rax
 643 03b4 48C1F806 		sarq	$6, %rax
 314:sieve_extend.c ****     const counter_t destination_stop_word = wordindex(destination_stop);
 644              		.loc 1 314 140 view .LVU284
 645 03b8 4889E5   		movq	%rsp, %rbp
 646              		.cfi_def_cfa_register 6
 647 03bb 4157     		pushq	%r15
 315:sieve_extend.c ****     const counter_t copy_start = source_start + size;
 648              		.loc 1 315 21 view .LVU285
 649 03bd 48C1F906 		sarq	$6, %rcx
 650              	.LVL55:
 314:sieve_extend.c ****     const counter_t destination_stop_word = wordindex(destination_stop);
 651              		.loc 1 314 140 view .LVU286
 652 03c1 4156     		pushq	%r14
 653              		.cfi_offset 15, -24
 654              		.cfi_offset 14, -32
 320:sieve_extend.c **** 
 655              		.loc 1 320 35 view .LVU287
 656 03c3 4989FE   		movq	%rdi, %r14
 314:sieve_extend.c ****     const counter_t destination_stop_word = wordindex(destination_stop);
 657              		.loc 1 314 140 view .LVU288
 658 03c6 4155     		pushq	%r13
 659 03c8 4154     		pushq	%r12
 660              		.cfi_offset 13, -40
 661              		.cfi_offset 12, -48
 662 03ca 4989D4   		movq	%rdx, %r12
 316:sieve_extend.c ****     counter_t source_word = wordindex(source_start);
 663              		.loc 1 316 21 view .LVU289
GAS LISTING /tmp/ccEWrfMF.s 			page 30


 664 03cd 4801F2   		addq	%rsi, %rdx
 665              	.LVL56:
 314:sieve_extend.c ****     const counter_t destination_stop_word = wordindex(destination_stop);
 666              		.loc 1 314 140 view .LVU290
 667 03d0 53       		pushq	%rbx
 320:sieve_extend.c **** 
 668              		.loc 1 320 52 view .LVU291
 669 03d1 BE010000 		movl	$1, %esi
 669      00
 670              	.LVL57:
 671              		.cfi_offset 3, -56
 318:sieve_extend.c ****     
 672              		.loc 1 318 15 view .LVU292
 673 03d6 4889D3   		movq	%rdx, %rbx
 314:sieve_extend.c ****     const counter_t destination_stop_word = wordindex(destination_stop);
 674              		.loc 1 314 140 view .LVU293
 675 03d9 4883E4E0 		andq	$-32, %rsp
 676 03dd 4883EC20 		subq	$32, %rsp
 317:sieve_extend.c ****     counter_t copy_word = wordindex(copy_start);
 677              		.loc 1 317 15 view .LVU294
 678 03e1 48890424 		movq	%rax, (%rsp)
 320:sieve_extend.c **** 
 679              		.loc 1 320 35 view .LVU295
 680 03e5 48C1E003 		salq	$3, %rax
 681 03e9 4901C6   		addq	%rax, %r14
 320:sieve_extend.c **** 
 682              		.loc 1 320 52 view .LVU296
 683 03ec C4E2E9F7 		shlx	%rdx, %rsi, %rdx
 683      D6
 320:sieve_extend.c **** 
 684              		.loc 1 320 51 view .LVU297
 685 03f1 48F7DA   		negq	%rdx
 318:sieve_extend.c ****     
 686              		.loc 1 318 15 view .LVU298
 687 03f4 48C1FB06 		sarq	$6, %rbx
 320:sieve_extend.c **** 
 688              		.loc 1 320 49 view .LVU299
 689 03f8 492316   		andq	(%r14), %rdx
 320:sieve_extend.c **** 
 690              		.loc 1 320 25 view .LVU300
 691 03fb 488914DF 		movq	%rdx, (%rdi,%rbx,8)
 322:sieve_extend.c ****         memcpy(&bitarray[copy_word], &bitarray[source_word], (uintmax_t)size*sizeof(bitword_t) );
 692              		.loc 1 322 22 view .LVU301
 693 03ff 498D141C 		leaq	(%r12,%rbx), %rdx
 314:sieve_extend.c ****     const counter_t destination_stop_word = wordindex(destination_stop);
 694              		.loc 1 314 140 view .LVU302
 695 0403 48897C24 		movq	%rdi, 16(%rsp)
 695      10
 315:sieve_extend.c ****     const counter_t copy_start = source_start + size;
 696              		.loc 1 315 21 view .LVU303
 697 0408 48894C24 		movq	%rcx, 24(%rsp)
 697      18
 698              	.LVL58:
 316:sieve_extend.c ****     counter_t source_word = wordindex(source_start);
 699              		.loc 1 316 5 is_stmt 1 view .LVU304
 317:sieve_extend.c ****     counter_t copy_word = wordindex(copy_start);
 700              		.loc 1 317 5 view .LVU305
GAS LISTING /tmp/ccEWrfMF.s 			page 31


 318:sieve_extend.c ****     
 701              		.loc 1 318 5 view .LVU306
 320:sieve_extend.c **** 
 702              		.loc 1 320 5 view .LVU307
 322:sieve_extend.c ****         memcpy(&bitarray[copy_word], &bitarray[source_word], (uintmax_t)size*sizeof(bitword_t) );
 703              		.loc 1 322 5 view .LVU308
 322:sieve_extend.c ****         memcpy(&bitarray[copy_word], &bitarray[source_word], (uintmax_t)size*sizeof(bitword_t) );
 704              		.loc 1 322 11 view .LVU309
 320:sieve_extend.c **** 
 705              		.loc 1 320 35 is_stmt 0 view .LVU310
 706 040d 48894424 		movq	%rax, 8(%rsp)
 706      08
 322:sieve_extend.c ****         memcpy(&bitarray[copy_word], &bitarray[source_word], (uintmax_t)size*sizeof(bitword_t) );
 707              		.loc 1 322 11 view .LVU311
 708 0412 4839D1   		cmpq	%rdx, %rcx
 709 0415 0F8C2501 		jl	.L65
 709      0000
 710 041b 4C8D2CDD 		leaq	0(,%rbx,8), %r13
 710      00000000 
 711 0423 4901FD   		addq	%rdi, %r13
 712 0426 488D0CD5 		leaq	0(,%rdx,8), %rcx
 712      00000000 
 713              	.LVL59:
 323:sieve_extend.c ****         copy_word += size;
 714              		.loc 1 323 9 view .LVU312
 715 042e 4E8D3CE5 		leaq	0(,%r12,8), %r15
 715      00000000 
 716 0436 4929CD   		subq	%rcx, %r13
 717              	.LVL60:
 718              	.L66:
 719              	.LBB225:
 720              	.LBB226:
 721              		.file 2 "/usr/include/x86_64-linux-gnu/bits/string_fortified.h"
   1:/usr/include/x86_64-linux-gnu/bits/string_fortified.h **** /* Copyright (C) 2004-2020 Free Software Foundation, Inc.
   2:/usr/include/x86_64-linux-gnu/bits/string_fortified.h ****    This file is part of the GNU C Library.
   3:/usr/include/x86_64-linux-gnu/bits/string_fortified.h **** 
   4:/usr/include/x86_64-linux-gnu/bits/string_fortified.h ****    The GNU C Library is free software; you can redistribute it and/or
   5:/usr/include/x86_64-linux-gnu/bits/string_fortified.h ****    modify it under the terms of the GNU Lesser General Public
   6:/usr/include/x86_64-linux-gnu/bits/string_fortified.h ****    License as published by the Free Software Foundation; either
   7:/usr/include/x86_64-linux-gnu/bits/string_fortified.h ****    version 2.1 of the License, or (at your option) any later version.
   8:/usr/include/x86_64-linux-gnu/bits/string_fortified.h **** 
   9:/usr/include/x86_64-linux-gnu/bits/string_fortified.h ****    The GNU C Library is distributed in the hope that it will be useful,
  10:/usr/include/x86_64-linux-gnu/bits/string_fortified.h ****    but WITHOUT ANY WARRANTY; without even the implied warranty of
  11:/usr/include/x86_64-linux-gnu/bits/string_fortified.h ****    MERCHANTABILITY or FITNESS FOR A PARTICULAR PURPOSE.  See the GNU
  12:/usr/include/x86_64-linux-gnu/bits/string_fortified.h ****    Lesser General Public License for more details.
  13:/usr/include/x86_64-linux-gnu/bits/string_fortified.h **** 
  14:/usr/include/x86_64-linux-gnu/bits/string_fortified.h ****    You should have received a copy of the GNU Lesser General Public
  15:/usr/include/x86_64-linux-gnu/bits/string_fortified.h ****    License along with the GNU C Library; if not, see
  16:/usr/include/x86_64-linux-gnu/bits/string_fortified.h ****    <https://www.gnu.org/licenses/>.  */
  17:/usr/include/x86_64-linux-gnu/bits/string_fortified.h **** 
  18:/usr/include/x86_64-linux-gnu/bits/string_fortified.h **** #ifndef _BITS_STRING_FORTIFIED_H
  19:/usr/include/x86_64-linux-gnu/bits/string_fortified.h **** #define _BITS_STRING_FORTIFIED_H 1
  20:/usr/include/x86_64-linux-gnu/bits/string_fortified.h **** 
  21:/usr/include/x86_64-linux-gnu/bits/string_fortified.h **** #ifndef _STRING_H
  22:/usr/include/x86_64-linux-gnu/bits/string_fortified.h **** # error "Never use <bits/string_fortified.h> directly; include <string.h> instead."
  23:/usr/include/x86_64-linux-gnu/bits/string_fortified.h **** #endif
  24:/usr/include/x86_64-linux-gnu/bits/string_fortified.h **** 
GAS LISTING /tmp/ccEWrfMF.s 			page 32


  25:/usr/include/x86_64-linux-gnu/bits/string_fortified.h **** #if !__GNUC_PREREQ (5,0)
  26:/usr/include/x86_64-linux-gnu/bits/string_fortified.h **** __warndecl (__warn_memset_zero_len,
  27:/usr/include/x86_64-linux-gnu/bits/string_fortified.h **** 	    "memset used with constant zero length parameter; this could be due to transposed parameters")
  28:/usr/include/x86_64-linux-gnu/bits/string_fortified.h **** #endif
  29:/usr/include/x86_64-linux-gnu/bits/string_fortified.h **** 
  30:/usr/include/x86_64-linux-gnu/bits/string_fortified.h **** __fortify_function void *
  31:/usr/include/x86_64-linux-gnu/bits/string_fortified.h **** __NTH (memcpy (void *__restrict __dest, const void *__restrict __src,
  32:/usr/include/x86_64-linux-gnu/bits/string_fortified.h **** 	       size_t __len))
  33:/usr/include/x86_64-linux-gnu/bits/string_fortified.h **** {
  34:/usr/include/x86_64-linux-gnu/bits/string_fortified.h ****   return __builtin___memcpy_chk (__dest, __src, __len, __bos0 (__dest));
 722              		.loc 2 34 10 view .LVU313
 723 0439 498D7CD5 		leaq	0(%r13,%rdx,8), %rdi
 723      00
 724 043e 4889D3   		movq	%rdx, %rbx
 725              	.LVL61:
 726              		.loc 2 34 10 view .LVU314
 727              	.LBE226:
 728              	.LBE225:
 323:sieve_extend.c ****         copy_word += size;
 729              		.loc 1 323 9 is_stmt 1 view .LVU315
 730              	.LBB235:
 731              	.LBI225:
  31:/usr/include/x86_64-linux-gnu/bits/string_fortified.h **** 	       size_t __len))
 732              		.loc 2 31 1 view .LVU316
 733              	.LBB227:
 734              		.loc 2 34 3 view .LVU317
 735              		.loc 2 34 10 is_stmt 0 view .LVU318
 736 0441 4C89F6   		movq	%r14, %rsi
 737 0444 4C89FA   		movq	%r15, %rdx
 738              	.LVL62:
 739              		.loc 2 34 10 view .LVU319
 740 0447 E8000000 		call	memcpy@PLT
 740      00
 741              	.LVL63:
 742              		.loc 2 34 10 view .LVU320
 743              	.LBE227:
 744              	.LBE235:
 324:sieve_extend.c ****     }
 745              		.loc 1 324 9 is_stmt 1 view .LVU321
 322:sieve_extend.c ****         memcpy(&bitarray[copy_word], &bitarray[source_word], (uintmax_t)size*sizeof(bitword_t) );
 746              		.loc 1 322 11 view .LVU322
 747 044c 4A8D3C23 		leaq	(%rbx,%r12), %rdi
 748 0450 48397C24 		cmpq	%rdi, 24(%rsp)
 748      18
 749 0455 0F8CE500 		jl	.L65
 749      0000
 750 045b 4889FB   		movq	%rdi, %rbx
 751              	.LVL64:
 323:sieve_extend.c ****         copy_word += size;
 752              		.loc 1 323 9 view .LVU323
 753              	.LBB236:
  31:/usr/include/x86_64-linux-gnu/bits/string_fortified.h **** 	       size_t __len))
 754              		.loc 2 31 1 view .LVU324
 755              	.LBB228:
 756              		.loc 2 34 3 view .LVU325
 757              		.loc 2 34 10 is_stmt 0 view .LVU326
 758 045e 4C89FA   		movq	%r15, %rdx
GAS LISTING /tmp/ccEWrfMF.s 			page 33


 759 0461 498D7CFD 		leaq	0(%r13,%rdi,8), %rdi
 759      00
 760 0466 4C89F6   		movq	%r14, %rsi
 761 0469 E8000000 		call	memcpy@PLT
 761      00
 762              	.LVL65:
 763              		.loc 2 34 10 view .LVU327
 764              	.LBE228:
 765              	.LBE236:
 324:sieve_extend.c ****     }
 766              		.loc 1 324 9 is_stmt 1 view .LVU328
 322:sieve_extend.c ****         memcpy(&bitarray[copy_word], &bitarray[source_word], (uintmax_t)size*sizeof(bitword_t) );
 767              		.loc 1 322 11 view .LVU329
 768 046e 4E8D0423 		leaq	(%rbx,%r12), %r8
 769 0472 4C394424 		cmpq	%r8, 24(%rsp)
 769      18
 770 0477 0F8CC300 		jl	.L65
 770      0000
 771 047d 4C89C3   		movq	%r8, %rbx
 323:sieve_extend.c ****         copy_word += size;
 772              		.loc 1 323 9 view .LVU330
 773              	.LVL66:
 774              	.LBB237:
  31:/usr/include/x86_64-linux-gnu/bits/string_fortified.h **** 	       size_t __len))
 775              		.loc 2 31 1 view .LVU331
 776              	.LBB229:
 777              		.loc 2 34 3 view .LVU332
 778              		.loc 2 34 10 is_stmt 0 view .LVU333
 779 0480 4B8D7CC5 		leaq	0(%r13,%r8,8), %rdi
 779      00
 780 0485 4C89FA   		movq	%r15, %rdx
 781 0488 4C89F6   		movq	%r14, %rsi
 782 048b E8000000 		call	memcpy@PLT
 782      00
 783              	.LVL67:
 784              		.loc 2 34 10 view .LVU334
 785              	.LBE229:
 786              	.LBE237:
 324:sieve_extend.c ****     }
 787              		.loc 1 324 9 is_stmt 1 view .LVU335
 322:sieve_extend.c ****         memcpy(&bitarray[copy_word], &bitarray[source_word], (uintmax_t)size*sizeof(bitword_t) );
 788              		.loc 1 322 11 view .LVU336
 789 0490 4E8D0C23 		leaq	(%rbx,%r12), %r9
 790 0494 4C394C24 		cmpq	%r9, 24(%rsp)
 790      18
 791 0499 0F8CA100 		jl	.L65
 791      0000
 792 049f 4C89CB   		movq	%r9, %rbx
 323:sieve_extend.c ****         copy_word += size;
 793              		.loc 1 323 9 view .LVU337
 794              	.LVL68:
 795              	.LBB238:
  31:/usr/include/x86_64-linux-gnu/bits/string_fortified.h **** 	       size_t __len))
 796              		.loc 2 31 1 view .LVU338
 797              	.LBB230:
 798              		.loc 2 34 3 view .LVU339
 799              		.loc 2 34 10 is_stmt 0 view .LVU340
GAS LISTING /tmp/ccEWrfMF.s 			page 34


 800 04a2 4B8D7CCD 		leaq	0(%r13,%r9,8), %rdi
 800      00
 801 04a7 4C89FA   		movq	%r15, %rdx
 802 04aa 4C89F6   		movq	%r14, %rsi
 803 04ad E8000000 		call	memcpy@PLT
 803      00
 804              	.LVL69:
 805              		.loc 2 34 10 view .LVU341
 806              	.LBE230:
 807              	.LBE238:
 324:sieve_extend.c ****     }
 808              		.loc 1 324 9 is_stmt 1 view .LVU342
 322:sieve_extend.c ****         memcpy(&bitarray[copy_word], &bitarray[source_word], (uintmax_t)size*sizeof(bitword_t) );
 809              		.loc 1 322 11 view .LVU343
 810 04b2 4E8D1423 		leaq	(%rbx,%r12), %r10
 811 04b6 4C395424 		cmpq	%r10, 24(%rsp)
 811      18
 812 04bb 0F8C7F00 		jl	.L65
 812      0000
 813 04c1 4C89D3   		movq	%r10, %rbx
 323:sieve_extend.c ****         copy_word += size;
 814              		.loc 1 323 9 view .LVU344
 815              	.LVL70:
 816              	.LBB239:
  31:/usr/include/x86_64-linux-gnu/bits/string_fortified.h **** 	       size_t __len))
 817              		.loc 2 31 1 view .LVU345
 818              	.LBB231:
 819              		.loc 2 34 3 view .LVU346
 820              		.loc 2 34 10 is_stmt 0 view .LVU347
 821 04c4 4B8D7CD5 		leaq	0(%r13,%r10,8), %rdi
 821      00
 822 04c9 4C89FA   		movq	%r15, %rdx
 823 04cc 4C89F6   		movq	%r14, %rsi
 824 04cf E8000000 		call	memcpy@PLT
 824      00
 825              	.LVL71:
 826              		.loc 2 34 10 view .LVU348
 827              	.LBE231:
 828              	.LBE239:
 324:sieve_extend.c ****     }
 829              		.loc 1 324 9 is_stmt 1 view .LVU349
 322:sieve_extend.c ****         memcpy(&bitarray[copy_word], &bitarray[source_word], (uintmax_t)size*sizeof(bitword_t) );
 830              		.loc 1 322 11 view .LVU350
 831 04d4 4E8D1C23 		leaq	(%rbx,%r12), %r11
 832 04d8 4C395C24 		cmpq	%r11, 24(%rsp)
 832      18
 833 04dd 7C61     		jl	.L65
 834 04df 4C89DB   		movq	%r11, %rbx
 323:sieve_extend.c ****         copy_word += size;
 835              		.loc 1 323 9 view .LVU351
 836              	.LVL72:
 837              	.LBB240:
  31:/usr/include/x86_64-linux-gnu/bits/string_fortified.h **** 	       size_t __len))
 838              		.loc 2 31 1 view .LVU352
 839              	.LBB232:
 840              		.loc 2 34 3 view .LVU353
 841              		.loc 2 34 10 is_stmt 0 view .LVU354
GAS LISTING /tmp/ccEWrfMF.s 			page 35


 842 04e2 4B8D7CDD 		leaq	0(%r13,%r11,8), %rdi
 842      00
 843 04e7 4C89FA   		movq	%r15, %rdx
 844 04ea 4C89F6   		movq	%r14, %rsi
 845 04ed E8000000 		call	memcpy@PLT
 845      00
 846              	.LVL73:
 847              		.loc 2 34 10 view .LVU355
 848              	.LBE232:
 849              	.LBE240:
 324:sieve_extend.c ****     }
 850              		.loc 1 324 9 is_stmt 1 view .LVU356
 322:sieve_extend.c ****         memcpy(&bitarray[copy_word], &bitarray[source_word], (uintmax_t)size*sizeof(bitword_t) );
 851              		.loc 1 322 11 view .LVU357
 852 04f2 4A8D0423 		leaq	(%rbx,%r12), %rax
 853 04f6 48394424 		cmpq	%rax, 24(%rsp)
 853      18
 854 04fb 7C43     		jl	.L65
 855 04fd 4889C3   		movq	%rax, %rbx
 323:sieve_extend.c ****         copy_word += size;
 856              		.loc 1 323 9 view .LVU358
 857              	.LVL74:
 858              	.LBB241:
  31:/usr/include/x86_64-linux-gnu/bits/string_fortified.h **** 	       size_t __len))
 859              		.loc 2 31 1 view .LVU359
 860              	.LBB233:
 861              		.loc 2 34 3 view .LVU360
 862              		.loc 2 34 10 is_stmt 0 view .LVU361
 863 0500 4C89F6   		movq	%r14, %rsi
 864 0503 498D7CC5 		leaq	0(%r13,%rax,8), %rdi
 864      00
 865 0508 4C89FA   		movq	%r15, %rdx
 866 050b E8000000 		call	memcpy@PLT
 866      00
 867              	.LVL75:
 868              		.loc 2 34 10 view .LVU362
 869              	.LBE233:
 870              	.LBE241:
 324:sieve_extend.c ****     }
 871              		.loc 1 324 9 is_stmt 1 view .LVU363
 322:sieve_extend.c ****         memcpy(&bitarray[copy_word], &bitarray[source_word], (uintmax_t)size*sizeof(bitword_t) );
 872              		.loc 1 322 11 view .LVU364
 873 0510 4A8D3423 		leaq	(%rbx,%r12), %rsi
 874 0514 48397424 		cmpq	%rsi, 24(%rsp)
 874      18
 875 0519 7C25     		jl	.L65
 876 051b 4889F3   		movq	%rsi, %rbx
 323:sieve_extend.c ****         copy_word += size;
 877              		.loc 1 323 9 view .LVU365
 878              	.LVL76:
 879              	.LBB242:
  31:/usr/include/x86_64-linux-gnu/bits/string_fortified.h **** 	       size_t __len))
 880              		.loc 2 31 1 view .LVU366
 881              	.LBB234:
 882              		.loc 2 34 3 view .LVU367
 883              		.loc 2 34 10 is_stmt 0 view .LVU368
 884 051e 498D7CF5 		leaq	0(%r13,%rsi,8), %rdi
GAS LISTING /tmp/ccEWrfMF.s 			page 36


 884      00
 885 0523 4C89FA   		movq	%r15, %rdx
 886 0526 4C89F6   		movq	%r14, %rsi
 887 0529 E8000000 		call	memcpy@PLT
 887      00
 888              	.LVL77:
 889              		.loc 2 34 10 view .LVU369
 890              	.LBE234:
 891              	.LBE242:
 324:sieve_extend.c ****     }
 892              		.loc 1 324 9 is_stmt 1 view .LVU370
 322:sieve_extend.c ****         memcpy(&bitarray[copy_word], &bitarray[source_word], (uintmax_t)size*sizeof(bitword_t) );
 893              		.loc 1 322 11 view .LVU371
 322:sieve_extend.c ****         memcpy(&bitarray[copy_word], &bitarray[source_word], (uintmax_t)size*sizeof(bitword_t) );
 894              		.loc 1 322 11 is_stmt 0 view .LVU372
 895 052e 4A8D1423 		leaq	(%rbx,%r12), %rdx
 896              	.LVL78:
 322:sieve_extend.c ****         memcpy(&bitarray[copy_word], &bitarray[source_word], (uintmax_t)size*sizeof(bitword_t) );
 897              		.loc 1 322 11 view .LVU373
 898 0532 48395424 		cmpq	%rdx, 24(%rsp)
 898      18
 899 0537 0F8DFCFE 		jge	.L66
 899      FFFF
 900              	.LVL79:
 901 053d 0F1F00   		.p2align 4,,10
 902              		.p2align 3
 903              	.L65:
 327:sieve_extend.c ****         bitarray[copy_word] = bitarray[source_word];
 904              		.loc 1 327 10 is_stmt 1 view .LVU374
 905 0540 4C8B6424 		movq	24(%rsp), %r12
 905      18
 906              	.LVL80:
 327:sieve_extend.c ****         bitarray[copy_word] = bitarray[source_word];
 907              		.loc 1 327 10 is_stmt 0 view .LVU375
 908 0545 4939DC   		cmpq	%rbx, %r12
 909 0548 0F8E0102 		jle	.L170
 909      0000
 910 054e 4C8B7C24 		movq	8(%rsp), %r15
 910      08
 911 0553 4C8D2CDD 		leaq	0(,%rbx,8), %r13
 911      00000000 
 912 055b 498D4F20 		leaq	32(%r15), %rcx
 913 055f 4939CD   		cmpq	%rcx, %r13
 914 0562 4D8D4520 		leaq	32(%r13), %r8
 915 0566 400F9DC7 		setge	%dil
 916 056a 4D39F8   		cmpq	%r15, %r8
 917 056d 410F9EC1 		setle	%r9b
 918 0571 4408CF   		orb	%r9b, %dil
 919 0574 0F84FE01 		je	.L68
 919      0000
 920 057a 4D8D5424 		leaq	-1(%r12), %r10
 920      FF
 921 057f 4929DA   		subq	%rbx, %r10
 922 0582 4983FA08 		cmpq	$8, %r10
 923 0586 0F86EC01 		jbe	.L68
 923      0000
 924 058c 4929DC   		subq	%rbx, %r12
GAS LISTING /tmp/ccEWrfMF.s 			page 37


 925 058f 4C89E6   		movq	%r12, %rsi
 926 0592 48C1EE02 		shrq	$2, %rsi
 927 0596 48C1E605 		salq	$5, %rsi
 928 059a 488D56E0 		leaq	-32(%rsi), %rdx
 929 059e 48C1EA05 		shrq	$5, %rdx
 930 05a2 48FFC2   		incq	%rdx
 931 05a5 4D89E3   		movq	%r12, %r11
 932 05a8 4C036C24 		addq	16(%rsp), %r13
 932      10
 933 05ad 31C0     		xorl	%eax, %eax
 934 05af 83E207   		andl	$7, %edx
 935 05b2 0F84A700 		je	.L69
 935      0000
 936 05b8 4883FA01 		cmpq	$1, %rdx
 937 05bc 0F848300 		je	.L130
 937      0000
 938 05c2 4883FA02 		cmpq	$2, %rdx
 939 05c6 746C     		je	.L131
 940 05c8 4883FA03 		cmpq	$3, %rdx
 941 05cc 7455     		je	.L132
 942 05ce 4883FA04 		cmpq	$4, %rdx
 943 05d2 743E     		je	.L133
 944 05d4 4883FA05 		cmpq	$5, %rdx
 945 05d8 7427     		je	.L134
 946 05da 4883FA06 		cmpq	$6, %rdx
 947 05de 7410     		je	.L135
 948              	.LVL81:
 328:sieve_extend.c ****         source_word++;
 949              		.loc 1 328 9 is_stmt 1 view .LVU376
 328:sieve_extend.c ****         source_word++;
 950              		.loc 1 328 29 is_stmt 0 view .LVU377
 951 05e0 C4C17E6F 		vmovdqu	(%r14), %ymm1
 951      0E
 952 05e5 B8200000 		movl	$32, %eax
 952      00
 953 05ea C4C17E7F 		vmovdqu	%ymm1, 0(%r13)
 953      4D00
 329:sieve_extend.c ****         copy_word++;
 954              		.loc 1 329 9 is_stmt 1 view .LVU378
 330:sieve_extend.c ****     }
 955              		.loc 1 330 9 view .LVU379
 327:sieve_extend.c ****         bitarray[copy_word] = bitarray[source_word];
 956              		.loc 1 327 10 view .LVU380
 957              	.L135:
 328:sieve_extend.c ****         source_word++;
 958              		.loc 1 328 9 view .LVU381
 328:sieve_extend.c ****         source_word++;
 959              		.loc 1 328 29 is_stmt 0 view .LVU382
 960 05f0 C4C17E6F 		vmovdqu	(%r14,%rax), %ymm7
 960      3C06
 961 05f6 C4C17E7F 		vmovdqu	%ymm7, 0(%r13,%rax)
 961      7C0500
 329:sieve_extend.c ****         copy_word++;
 962              		.loc 1 329 9 is_stmt 1 view .LVU383
 330:sieve_extend.c ****     }
 963              		.loc 1 330 9 view .LVU384
 327:sieve_extend.c ****         bitarray[copy_word] = bitarray[source_word];
GAS LISTING /tmp/ccEWrfMF.s 			page 38


 964              		.loc 1 327 10 view .LVU385
 965 05fd 4883C020 		addq	$32, %rax
 966              	.L134:
 328:sieve_extend.c ****         source_word++;
 967              		.loc 1 328 9 view .LVU386
 328:sieve_extend.c ****         source_word++;
 968              		.loc 1 328 29 is_stmt 0 view .LVU387
 969 0601 C4C17E6F 		vmovdqu	(%r14,%rax), %ymm6
 969      3406
 970 0607 C4C17E7F 		vmovdqu	%ymm6, 0(%r13,%rax)
 970      740500
 329:sieve_extend.c ****         copy_word++;
 971              		.loc 1 329 9 is_stmt 1 view .LVU388
 330:sieve_extend.c ****     }
 972              		.loc 1 330 9 view .LVU389
 327:sieve_extend.c ****         bitarray[copy_word] = bitarray[source_word];
 973              		.loc 1 327 10 view .LVU390
 974 060e 4883C020 		addq	$32, %rax
 975              	.L133:
 328:sieve_extend.c ****         source_word++;
 976              		.loc 1 328 9 view .LVU391
 328:sieve_extend.c ****         source_word++;
 977              		.loc 1 328 29 is_stmt 0 view .LVU392
 978 0612 C4C17E6F 		vmovdqu	(%r14,%rax), %ymm5
 978      2C06
 979 0618 C4C17E7F 		vmovdqu	%ymm5, 0(%r13,%rax)
 979      6C0500
 329:sieve_extend.c ****         copy_word++;
 980              		.loc 1 329 9 is_stmt 1 view .LVU393
 330:sieve_extend.c ****     }
 981              		.loc 1 330 9 view .LVU394
 327:sieve_extend.c ****         bitarray[copy_word] = bitarray[source_word];
 982              		.loc 1 327 10 view .LVU395
 983 061f 4883C020 		addq	$32, %rax
 984              	.L132:
 328:sieve_extend.c ****         source_word++;
 985              		.loc 1 328 9 view .LVU396
 328:sieve_extend.c ****         source_word++;
 986              		.loc 1 328 29 is_stmt 0 view .LVU397
 987 0623 C4C17E6F 		vmovdqu	(%r14,%rax), %ymm4
 987      2406
 988 0629 C4C17E7F 		vmovdqu	%ymm4, 0(%r13,%rax)
 988      640500
 329:sieve_extend.c ****         copy_word++;
 989              		.loc 1 329 9 is_stmt 1 view .LVU398
 330:sieve_extend.c ****     }
 990              		.loc 1 330 9 view .LVU399
 327:sieve_extend.c ****         bitarray[copy_word] = bitarray[source_word];
 991              		.loc 1 327 10 view .LVU400
 992 0630 4883C020 		addq	$32, %rax
 993              	.L131:
 328:sieve_extend.c ****         source_word++;
 994              		.loc 1 328 9 view .LVU401
 328:sieve_extend.c ****         source_word++;
 995              		.loc 1 328 29 is_stmt 0 view .LVU402
 996 0634 C4C17E6F 		vmovdqu	(%r14,%rax), %ymm0
 996      0406
GAS LISTING /tmp/ccEWrfMF.s 			page 39


 997 063a C4C17E7F 		vmovdqu	%ymm0, 0(%r13,%rax)
 997      440500
 329:sieve_extend.c ****         copy_word++;
 998              		.loc 1 329 9 is_stmt 1 view .LVU403
 330:sieve_extend.c ****     }
 999              		.loc 1 330 9 view .LVU404
 327:sieve_extend.c ****         bitarray[copy_word] = bitarray[source_word];
 1000              		.loc 1 327 10 view .LVU405
 1001 0641 4883C020 		addq	$32, %rax
 1002              	.L130:
 328:sieve_extend.c ****         source_word++;
 1003              		.loc 1 328 9 view .LVU406
 328:sieve_extend.c ****         source_word++;
 1004              		.loc 1 328 29 is_stmt 0 view .LVU407
 1005 0645 C4C17E6F 		vmovdqu	(%r14,%rax), %ymm2
 1005      1406
 1006 064b C4C17E7F 		vmovdqu	%ymm2, 0(%r13,%rax)
 1006      540500
 329:sieve_extend.c ****         copy_word++;
 1007              		.loc 1 329 9 is_stmt 1 view .LVU408
 330:sieve_extend.c ****     }
 1008              		.loc 1 330 9 view .LVU409
 327:sieve_extend.c ****         bitarray[copy_word] = bitarray[source_word];
 1009              		.loc 1 327 10 view .LVU410
 1010 0652 4883C020 		addq	$32, %rax
 1011 0656 4839F0   		cmpq	%rsi, %rax
 1012 0659 0F849600 		je	.L166
 1012      0000
 1013              	.L69:
 328:sieve_extend.c ****         source_word++;
 1014              		.loc 1 328 9 view .LVU411
 328:sieve_extend.c ****         source_word++;
 1015              		.loc 1 328 29 is_stmt 0 view .LVU412
 1016 065f C4C17E6F 		vmovdqu	(%r14,%rax), %ymm3
 1016      1C06
 1017 0665 C4C17E7F 		vmovdqu	%ymm3, 0(%r13,%rax)
 1017      5C0500
 329:sieve_extend.c ****         copy_word++;
 1018              		.loc 1 329 9 is_stmt 1 view .LVU413
 330:sieve_extend.c ****     }
 1019              		.loc 1 330 9 view .LVU414
 327:sieve_extend.c ****         bitarray[copy_word] = bitarray[source_word];
 1020              		.loc 1 327 10 view .LVU415
 328:sieve_extend.c ****         source_word++;
 1021              		.loc 1 328 9 view .LVU416
 328:sieve_extend.c ****         source_word++;
 1022              		.loc 1 328 29 is_stmt 0 view .LVU417
 1023 066c C4417E6F 		vmovdqu	32(%r14,%rax), %ymm8
 1023      440620
 1024 0673 C4417E7F 		vmovdqu	%ymm8, 32(%r13,%rax)
 1024      440520
 329:sieve_extend.c ****         copy_word++;
 1025              		.loc 1 329 9 is_stmt 1 view .LVU418
 330:sieve_extend.c ****     }
 1026              		.loc 1 330 9 view .LVU419
 327:sieve_extend.c ****         bitarray[copy_word] = bitarray[source_word];
 1027              		.loc 1 327 10 view .LVU420
GAS LISTING /tmp/ccEWrfMF.s 			page 40


 328:sieve_extend.c ****         source_word++;
 1028              		.loc 1 328 9 view .LVU421
 328:sieve_extend.c ****         source_word++;
 1029              		.loc 1 328 29 is_stmt 0 view .LVU422
 1030 067a C4417E6F 		vmovdqu	64(%r14,%rax), %ymm9
 1030      4C0640
 1031 0681 C4417E7F 		vmovdqu	%ymm9, 64(%r13,%rax)
 1031      4C0540
 329:sieve_extend.c ****         copy_word++;
 1032              		.loc 1 329 9 is_stmt 1 view .LVU423
 330:sieve_extend.c ****     }
 1033              		.loc 1 330 9 view .LVU424
 327:sieve_extend.c ****         bitarray[copy_word] = bitarray[source_word];
 1034              		.loc 1 327 10 view .LVU425
 328:sieve_extend.c ****         source_word++;
 1035              		.loc 1 328 9 view .LVU426
 328:sieve_extend.c ****         source_word++;
 1036              		.loc 1 328 29 is_stmt 0 view .LVU427
 1037 0688 C4417E6F 		vmovdqu	96(%r14,%rax), %ymm10
 1037      540660
 1038 068f C4417E7F 		vmovdqu	%ymm10, 96(%r13,%rax)
 1038      540560
 329:sieve_extend.c ****         copy_word++;
 1039              		.loc 1 329 9 is_stmt 1 view .LVU428
 330:sieve_extend.c ****     }
 1040              		.loc 1 330 9 view .LVU429
 327:sieve_extend.c ****         bitarray[copy_word] = bitarray[source_word];
 1041              		.loc 1 327 10 view .LVU430
 328:sieve_extend.c ****         source_word++;
 1042              		.loc 1 328 9 view .LVU431
 328:sieve_extend.c ****         source_word++;
 1043              		.loc 1 328 29 is_stmt 0 view .LVU432
 1044 0696 C4417E6F 		vmovdqu	128(%r14,%rax), %ymm11
 1044      9C068000 
 1044      0000
 1045 06a0 C4417E7F 		vmovdqu	%ymm11, 128(%r13,%rax)
 1045      9C058000 
 1045      0000
 329:sieve_extend.c ****         copy_word++;
 1046              		.loc 1 329 9 is_stmt 1 view .LVU433
 330:sieve_extend.c ****     }
 1047              		.loc 1 330 9 view .LVU434
 327:sieve_extend.c ****         bitarray[copy_word] = bitarray[source_word];
 1048              		.loc 1 327 10 view .LVU435
 328:sieve_extend.c ****         source_word++;
 1049              		.loc 1 328 9 view .LVU436
 328:sieve_extend.c ****         source_word++;
 1050              		.loc 1 328 29 is_stmt 0 view .LVU437
 1051 06aa C4417E6F 		vmovdqu	160(%r14,%rax), %ymm12
 1051      A406A000 
 1051      0000
 1052 06b4 C4417E7F 		vmovdqu	%ymm12, 160(%r13,%rax)
 1052      A405A000 
 1052      0000
 329:sieve_extend.c ****         copy_word++;
 1053              		.loc 1 329 9 is_stmt 1 view .LVU438
 330:sieve_extend.c ****     }
GAS LISTING /tmp/ccEWrfMF.s 			page 41


 1054              		.loc 1 330 9 view .LVU439
 327:sieve_extend.c ****         bitarray[copy_word] = bitarray[source_word];
 1055              		.loc 1 327 10 view .LVU440
 328:sieve_extend.c ****         source_word++;
 1056              		.loc 1 328 9 view .LVU441
 328:sieve_extend.c ****         source_word++;
 1057              		.loc 1 328 29 is_stmt 0 view .LVU442
 1058 06be C4417E6F 		vmovdqu	192(%r14,%rax), %ymm13
 1058      AC06C000 
 1058      0000
 1059 06c8 C4417E7F 		vmovdqu	%ymm13, 192(%r13,%rax)
 1059      AC05C000 
 1059      0000
 329:sieve_extend.c ****         copy_word++;
 1060              		.loc 1 329 9 is_stmt 1 view .LVU443
 330:sieve_extend.c ****     }
 1061              		.loc 1 330 9 view .LVU444
 327:sieve_extend.c ****         bitarray[copy_word] = bitarray[source_word];
 1062              		.loc 1 327 10 view .LVU445
 328:sieve_extend.c ****         source_word++;
 1063              		.loc 1 328 9 view .LVU446
 328:sieve_extend.c ****         source_word++;
 1064              		.loc 1 328 29 is_stmt 0 view .LVU447
 1065 06d2 C4417E6F 		vmovdqu	224(%r14,%rax), %ymm14
 1065      B406E000 
 1065      0000
 1066 06dc C4417E7F 		vmovdqu	%ymm14, 224(%r13,%rax)
 1066      B405E000 
 1066      0000
 329:sieve_extend.c ****         copy_word++;
 1067              		.loc 1 329 9 is_stmt 1 view .LVU448
 330:sieve_extend.c ****     }
 1068              		.loc 1 330 9 view .LVU449
 327:sieve_extend.c ****         bitarray[copy_word] = bitarray[source_word];
 1069              		.loc 1 327 10 view .LVU450
 1070 06e6 48050001 		addq	$256, %rax
 1070      0000
 1071 06ec 4839F0   		cmpq	%rsi, %rax
 1072 06ef 0F856AFF 		jne	.L69
 1072      FFFF
 1073              	.L166:
 1074 06f5 4C8B2424 		movq	(%rsp), %r12
 1075 06f9 4D89DE   		movq	%r11, %r14
 1076 06fc 4983E6FC 		andq	$-4, %r14
 1077 0700 4D01F4   		addq	%r14, %r12
 1078 0703 4E8D2C33 		leaq	(%rbx,%r14), %r13
 1079 0707 4D39F3   		cmpq	%r14, %r11
 1080 070a 7454     		je	.L169
 1081              	.LVL82:
 328:sieve_extend.c ****         source_word++;
 1082              		.loc 1 328 9 view .LVU451
 328:sieve_extend.c ****         source_word++;
 1083              		.loc 1 328 39 is_stmt 0 view .LVU452
 1084 070c 4C8B7C24 		movq	16(%rsp), %r15
 1084      10
 327:sieve_extend.c ****         bitarray[copy_word] = bitarray[source_word];
 1085              		.loc 1 327 10 view .LVU453
GAS LISTING /tmp/ccEWrfMF.s 			page 42


 1086 0711 4C8B4C24 		movq	24(%rsp), %r9
 1086      18
 328:sieve_extend.c ****         source_word++;
 1087              		.loc 1 328 39 view .LVU454
 1088 0716 4B8B0CE7 		movq	(%r15,%r12,8), %rcx
 330:sieve_extend.c ****     }
 1089              		.loc 1 330 18 view .LVU455
 1090 071a 4D8D4501 		leaq	1(%r13), %r8
 328:sieve_extend.c ****         source_word++;
 1091              		.loc 1 328 29 view .LVU456
 1092 071e 4B890CEF 		movq	%rcx, (%r15,%r13,8)
 329:sieve_extend.c ****         copy_word++;
 1093              		.loc 1 329 9 is_stmt 1 view .LVU457
 329:sieve_extend.c ****         copy_word++;
 1094              		.loc 1 329 20 is_stmt 0 view .LVU458
 1095 0722 49FFC4   		incq	%r12
 1096              	.LVL83:
 330:sieve_extend.c ****     }
 1097              		.loc 1 330 9 is_stmt 1 view .LVU459
 327:sieve_extend.c ****         bitarray[copy_word] = bitarray[source_word];
 1098              		.loc 1 327 10 view .LVU460
 1099 0725 4D39C1   		cmpq	%r8, %r9
 1100 0728 7E36     		jle	.L169
 328:sieve_extend.c ****         source_word++;
 1101              		.loc 1 328 9 view .LVU461
 328:sieve_extend.c ****         source_word++;
 1102              		.loc 1 328 39 is_stmt 0 view .LVU462
 1103 072a 4F8B14E7 		movq	(%r15,%r12,8), %r10
 330:sieve_extend.c ****     }
 1104              		.loc 1 330 18 view .LVU463
 1105 072e 4983C502 		addq	$2, %r13
 328:sieve_extend.c ****         source_word++;
 1106              		.loc 1 328 29 view .LVU464
 1107 0732 4F8914C7 		movq	%r10, (%r15,%r8,8)
 329:sieve_extend.c ****         copy_word++;
 1108              		.loc 1 329 9 is_stmt 1 view .LVU465
 1109              	.LVL84:
 330:sieve_extend.c ****     }
 1110              		.loc 1 330 9 view .LVU466
 327:sieve_extend.c ****         bitarray[copy_word] = bitarray[source_word];
 1111              		.loc 1 327 10 view .LVU467
 328:sieve_extend.c ****         source_word++;
 1112              		.loc 1 328 39 is_stmt 0 view .LVU468
 1113 0736 4A8D3CE5 		leaq	0(,%r12,8), %rdi
 1113      00000000 
 327:sieve_extend.c ****         bitarray[copy_word] = bitarray[source_word];
 1114              		.loc 1 327 10 view .LVU469
 1115 073e 4D39E9   		cmpq	%r13, %r9
 1116 0741 7E1D     		jle	.L169
 328:sieve_extend.c ****         source_word++;
 1117              		.loc 1 328 9 is_stmt 1 view .LVU470
 328:sieve_extend.c ****         source_word++;
 1118              		.loc 1 328 39 is_stmt 0 view .LVU471
 1119 0743 4D8B5C3F 		movq	8(%r15,%rdi), %r11
 1119      08
 328:sieve_extend.c ****         source_word++;
 1120              		.loc 1 328 29 view .LVU472
GAS LISTING /tmp/ccEWrfMF.s 			page 43


 1121 0748 4F891CEF 		movq	%r11, (%r15,%r13,8)
 329:sieve_extend.c ****         copy_word++;
 1122              		.loc 1 329 9 is_stmt 1 view .LVU473
 1123              	.LVL85:
 330:sieve_extend.c ****     }
 1124              		.loc 1 330 9 view .LVU474
 327:sieve_extend.c ****         bitarray[copy_word] = bitarray[source_word];
 1125              		.loc 1 327 10 view .LVU475
 1126 074c C5F877   		vzeroupper
 1127              	.LVL86:
 1128              	.L170:
 333:sieve_extend.c **** 
 1129              		.loc 1 333 1 is_stmt 0 view .LVU476
 1130 074f 488D65D8 		leaq	-40(%rbp), %rsp
 1131              	.LVL87:
 333:sieve_extend.c **** 
 1132              		.loc 1 333 1 view .LVU477
 1133 0753 5B       		popq	%rbx
 1134 0754 415C     		popq	%r12
 1135 0756 415D     		popq	%r13
 1136 0758 415E     		popq	%r14
 1137 075a 415F     		popq	%r15
 1138 075c 5D       		popq	%rbp
 1139              		.cfi_remember_state
 1140              		.cfi_def_cfa 7, 8
 1141              	.LVL88:
 333:sieve_extend.c **** 
 1142              		.loc 1 333 1 view .LVU478
 1143 075d C3       		ret
 1144              	.LVL89:
 1145 075e 6690     		.p2align 4,,10
 1146              		.p2align 3
 1147              	.L169:
 1148              		.cfi_restore_state
 333:sieve_extend.c **** 
 1149              		.loc 1 333 1 view .LVU479
 1150 0760 C5F877   		vzeroupper
 1151 0763 488D65D8 		leaq	-40(%rbp), %rsp
 1152              	.LVL90:
 333:sieve_extend.c **** 
 1153              		.loc 1 333 1 view .LVU480
 1154 0767 5B       		popq	%rbx
 1155 0768 415C     		popq	%r12
 1156 076a 415D     		popq	%r13
 1157 076c 415E     		popq	%r14
 1158 076e 415F     		popq	%r15
 1159 0770 5D       		popq	%rbp
 1160              		.cfi_remember_state
 1161              		.cfi_def_cfa 7, 8
 1162              	.LVL91:
 333:sieve_extend.c **** 
 1163              		.loc 1 333 1 view .LVU481
 1164 0771 C3       		ret
 1165              	.LVL92:
 1166              		.p2align 4,,10
 1167 0772 660F1F44 		.p2align 3
 1167      0000
GAS LISTING /tmp/ccEWrfMF.s 			page 44


 1168              	.L68:
 1169              		.cfi_restore_state
 333:sieve_extend.c **** 
 1170              		.loc 1 333 1 view .LVU482
 1171 0778 488B7424 		movq	16(%rsp), %rsi
 1171      10
 1172 077d 488B5424 		movq	24(%rsp), %rdx
 1172      18
 1173 0782 4901F5   		addq	%rsi, %r13
 1174 0785 4C8D34D6 		leaq	(%rsi,%rdx,8), %r14
 1175 0789 4C89F0   		movq	%r14, %rax
 1176 078c 4C29E8   		subq	%r13, %rax
 1177 078f 4883E808 		subq	$8, %rax
 328:sieve_extend.c ****         source_word++;
 1178              		.loc 1 328 39 view .LVU483
 1179 0793 4C8B2424 		movq	(%rsp), %r12
 1180 0797 48C1E803 		shrq	$3, %rax
 1181 079b 48FFC0   		incq	%rax
 1182 079e 4929DC   		subq	%rbx, %r12
 1183 07a1 83E007   		andl	$7, %eax
 1184 07a4 0F848800 		je	.L71
 1184      0000
 1185 07aa 4883F801 		cmpq	$1, %rax
 1186 07ae 746C     		je	.L136
 1187 07b0 4883F802 		cmpq	$2, %rax
 1188 07b4 7459     		je	.L137
 1189 07b6 4883F803 		cmpq	$3, %rax
 1190 07ba 7446     		je	.L138
 1191 07bc 4883F804 		cmpq	$4, %rax
 1192 07c0 7433     		je	.L139
 1193 07c2 4883F805 		cmpq	$5, %rax
 1194 07c6 7420     		je	.L140
 1195 07c8 4883F806 		cmpq	$6, %rax
 1196 07cc 740D     		je	.L141
 1197              	.LVL93:
 328:sieve_extend.c ****         source_word++;
 1198              		.loc 1 328 9 is_stmt 1 view .LVU484
 328:sieve_extend.c ****         source_word++;
 1199              		.loc 1 328 39 is_stmt 0 view .LVU485
 1200 07ce 4F8B7CE5 		movq	0(%r13,%r12,8), %r15
 1200      00
 1201 07d3 4983C508 		addq	$8, %r13
 328:sieve_extend.c ****         source_word++;
 1202              		.loc 1 328 29 view .LVU486
 1203 07d7 4D897DF8 		movq	%r15, -8(%r13)
 329:sieve_extend.c ****         copy_word++;
 1204              		.loc 1 329 9 is_stmt 1 view .LVU487
 330:sieve_extend.c ****     }
 1205              		.loc 1 330 9 view .LVU488
 327:sieve_extend.c ****         bitarray[copy_word] = bitarray[source_word];
 1206              		.loc 1 327 10 view .LVU489
 1207              	.L141:
 328:sieve_extend.c ****         source_word++;
 1208              		.loc 1 328 9 view .LVU490
 328:sieve_extend.c ****         source_word++;
 1209              		.loc 1 328 39 is_stmt 0 view .LVU491
 1210 07db 4B8B4CE5 		movq	0(%r13,%r12,8), %rcx
GAS LISTING /tmp/ccEWrfMF.s 			page 45


 1210      00
 1211 07e0 4983C508 		addq	$8, %r13
 328:sieve_extend.c ****         source_word++;
 1212              		.loc 1 328 29 view .LVU492
 1213 07e4 49894DF8 		movq	%rcx, -8(%r13)
 329:sieve_extend.c ****         copy_word++;
 1214              		.loc 1 329 9 is_stmt 1 view .LVU493
 330:sieve_extend.c ****     }
 1215              		.loc 1 330 9 view .LVU494
 327:sieve_extend.c ****         bitarray[copy_word] = bitarray[source_word];
 1216              		.loc 1 327 10 view .LVU495
 1217              	.L140:
 328:sieve_extend.c ****         source_word++;
 1218              		.loc 1 328 9 view .LVU496
 328:sieve_extend.c ****         source_word++;
 1219              		.loc 1 328 39 is_stmt 0 view .LVU497
 1220 07e8 4F8B44E5 		movq	0(%r13,%r12,8), %r8
 1220      00
 1221 07ed 4983C508 		addq	$8, %r13
 328:sieve_extend.c ****         source_word++;
 1222              		.loc 1 328 29 view .LVU498
 1223 07f1 4D8945F8 		movq	%r8, -8(%r13)
 329:sieve_extend.c ****         copy_word++;
 1224              		.loc 1 329 9 is_stmt 1 view .LVU499
 330:sieve_extend.c ****     }
 1225              		.loc 1 330 9 view .LVU500
 327:sieve_extend.c ****         bitarray[copy_word] = bitarray[source_word];
 1226              		.loc 1 327 10 view .LVU501
 1227              	.L139:
 328:sieve_extend.c ****         source_word++;
 1228              		.loc 1 328 9 view .LVU502
 328:sieve_extend.c ****         source_word++;
 1229              		.loc 1 328 39 is_stmt 0 view .LVU503
 1230 07f5 4F8B4CE5 		movq	0(%r13,%r12,8), %r9
 1230      00
 1231 07fa 4983C508 		addq	$8, %r13
 328:sieve_extend.c ****         source_word++;
 1232              		.loc 1 328 29 view .LVU504
 1233 07fe 4D894DF8 		movq	%r9, -8(%r13)
 329:sieve_extend.c ****         copy_word++;
 1234              		.loc 1 329 9 is_stmt 1 view .LVU505
 330:sieve_extend.c ****     }
 1235              		.loc 1 330 9 view .LVU506
 327:sieve_extend.c ****         bitarray[copy_word] = bitarray[source_word];
 1236              		.loc 1 327 10 view .LVU507
 1237              	.L138:
 328:sieve_extend.c ****         source_word++;
 1238              		.loc 1 328 9 view .LVU508
 328:sieve_extend.c ****         source_word++;
 1239              		.loc 1 328 39 is_stmt 0 view .LVU509
 1240 0802 4B8B7CE5 		movq	0(%r13,%r12,8), %rdi
 1240      00
 1241 0807 4983C508 		addq	$8, %r13
 328:sieve_extend.c ****         source_word++;
 1242              		.loc 1 328 29 view .LVU510
 1243 080b 49897DF8 		movq	%rdi, -8(%r13)
 329:sieve_extend.c ****         copy_word++;
GAS LISTING /tmp/ccEWrfMF.s 			page 46


 1244              		.loc 1 329 9 is_stmt 1 view .LVU511
 330:sieve_extend.c ****     }
 1245              		.loc 1 330 9 view .LVU512
 327:sieve_extend.c ****         bitarray[copy_word] = bitarray[source_word];
 1246              		.loc 1 327 10 view .LVU513
 1247              	.L137:
 328:sieve_extend.c ****         source_word++;
 1248              		.loc 1 328 9 view .LVU514
 328:sieve_extend.c ****         source_word++;
 1249              		.loc 1 328 39 is_stmt 0 view .LVU515
 1250 080f 4F8B54E5 		movq	0(%r13,%r12,8), %r10
 1250      00
 1251 0814 4983C508 		addq	$8, %r13
 328:sieve_extend.c ****         source_word++;
 1252              		.loc 1 328 29 view .LVU516
 1253 0818 4D8955F8 		movq	%r10, -8(%r13)
 329:sieve_extend.c ****         copy_word++;
 1254              		.loc 1 329 9 is_stmt 1 view .LVU517
 330:sieve_extend.c ****     }
 1255              		.loc 1 330 9 view .LVU518
 327:sieve_extend.c ****         bitarray[copy_word] = bitarray[source_word];
 1256              		.loc 1 327 10 view .LVU519
 1257              	.L136:
 328:sieve_extend.c ****         source_word++;
 1258              		.loc 1 328 9 view .LVU520
 328:sieve_extend.c ****         source_word++;
 1259              		.loc 1 328 39 is_stmt 0 view .LVU521
 1260 081c 4B8B5CE5 		movq	0(%r13,%r12,8), %rbx
 1260      00
 1261 0821 4983C508 		addq	$8, %r13
 328:sieve_extend.c ****         source_word++;
 1262              		.loc 1 328 29 view .LVU522
 1263 0825 49895DF8 		movq	%rbx, -8(%r13)
 329:sieve_extend.c ****         copy_word++;
 1264              		.loc 1 329 9 is_stmt 1 view .LVU523
 330:sieve_extend.c ****     }
 1265              		.loc 1 330 9 view .LVU524
 327:sieve_extend.c ****         bitarray[copy_word] = bitarray[source_word];
 1266              		.loc 1 327 10 view .LVU525
 1267 0829 4D39F5   		cmpq	%r14, %r13
 1268 082c 0F841DFF 		je	.L170
 1268      FFFF
 1269              	.L71:
 328:sieve_extend.c ****         source_word++;
 1270              		.loc 1 328 9 view .LVU526
 328:sieve_extend.c ****         source_word++;
 1271              		.loc 1 328 39 is_stmt 0 view .LVU527
 1272 0832 4F8B5CE5 		movq	0(%r13,%r12,8), %r11
 1272      00
 328:sieve_extend.c ****         source_word++;
 1273              		.loc 1 328 29 view .LVU528
 1274 0837 4D895D00 		movq	%r11, 0(%r13)
 329:sieve_extend.c ****         copy_word++;
 1275              		.loc 1 329 9 is_stmt 1 view .LVU529
 330:sieve_extend.c ****     }
 1276              		.loc 1 330 9 view .LVU530
 327:sieve_extend.c ****         bitarray[copy_word] = bitarray[source_word];
GAS LISTING /tmp/ccEWrfMF.s 			page 47


 1277              		.loc 1 327 10 view .LVU531
 328:sieve_extend.c ****         source_word++;
 1278              		.loc 1 328 9 view .LVU532
 328:sieve_extend.c ****         source_word++;
 1279              		.loc 1 328 39 is_stmt 0 view .LVU533
 1280 083b 4B8B74E5 		movq	8(%r13,%r12,8), %rsi
 1280      08
 328:sieve_extend.c ****         source_word++;
 1281              		.loc 1 328 29 view .LVU534
 1282 0840 49897508 		movq	%rsi, 8(%r13)
 329:sieve_extend.c ****         copy_word++;
 1283              		.loc 1 329 9 is_stmt 1 view .LVU535
 330:sieve_extend.c ****     }
 1284              		.loc 1 330 9 view .LVU536
 327:sieve_extend.c ****         bitarray[copy_word] = bitarray[source_word];
 1285              		.loc 1 327 10 view .LVU537
 328:sieve_extend.c ****         source_word++;
 1286              		.loc 1 328 9 view .LVU538
 328:sieve_extend.c ****         source_word++;
 1287              		.loc 1 328 39 is_stmt 0 view .LVU539
 1288 0844 4B8B54E5 		movq	16(%r13,%r12,8), %rdx
 1288      10
 328:sieve_extend.c ****         source_word++;
 1289              		.loc 1 328 29 view .LVU540
 1290 0849 49895510 		movq	%rdx, 16(%r13)
 329:sieve_extend.c ****         copy_word++;
 1291              		.loc 1 329 9 is_stmt 1 view .LVU541
 330:sieve_extend.c ****     }
 1292              		.loc 1 330 9 view .LVU542
 327:sieve_extend.c ****         bitarray[copy_word] = bitarray[source_word];
 1293              		.loc 1 327 10 view .LVU543
 328:sieve_extend.c ****         source_word++;
 1294              		.loc 1 328 9 view .LVU544
 328:sieve_extend.c ****         source_word++;
 1295              		.loc 1 328 39 is_stmt 0 view .LVU545
 1296 084d 4B8B44E5 		movq	24(%r13,%r12,8), %rax
 1296      18
 328:sieve_extend.c ****         source_word++;
 1297              		.loc 1 328 29 view .LVU546
 1298 0852 49894518 		movq	%rax, 24(%r13)
 329:sieve_extend.c ****         copy_word++;
 1299              		.loc 1 329 9 is_stmt 1 view .LVU547
 330:sieve_extend.c ****     }
 1300              		.loc 1 330 9 view .LVU548
 327:sieve_extend.c ****         bitarray[copy_word] = bitarray[source_word];
 1301              		.loc 1 327 10 view .LVU549
 328:sieve_extend.c ****         source_word++;
 1302              		.loc 1 328 9 view .LVU550
 328:sieve_extend.c ****         source_word++;
 1303              		.loc 1 328 39 is_stmt 0 view .LVU551
 1304 0856 4F8B7CE5 		movq	32(%r13,%r12,8), %r15
 1304      20
 328:sieve_extend.c ****         source_word++;
 1305              		.loc 1 328 29 view .LVU552
 1306 085b 4D897D20 		movq	%r15, 32(%r13)
 329:sieve_extend.c ****         copy_word++;
 1307              		.loc 1 329 9 is_stmt 1 view .LVU553
GAS LISTING /tmp/ccEWrfMF.s 			page 48


 330:sieve_extend.c ****     }
 1308              		.loc 1 330 9 view .LVU554
 327:sieve_extend.c ****         bitarray[copy_word] = bitarray[source_word];
 1309              		.loc 1 327 10 view .LVU555
 328:sieve_extend.c ****         source_word++;
 1310              		.loc 1 328 9 view .LVU556
 328:sieve_extend.c ****         source_word++;
 1311              		.loc 1 328 39 is_stmt 0 view .LVU557
 1312 085f 4B8B4CE5 		movq	40(%r13,%r12,8), %rcx
 1312      28
 328:sieve_extend.c ****         source_word++;
 1313              		.loc 1 328 29 view .LVU558
 1314 0864 49894D28 		movq	%rcx, 40(%r13)
 329:sieve_extend.c ****         copy_word++;
 1315              		.loc 1 329 9 is_stmt 1 view .LVU559
 330:sieve_extend.c ****     }
 1316              		.loc 1 330 9 view .LVU560
 327:sieve_extend.c ****         bitarray[copy_word] = bitarray[source_word];
 1317              		.loc 1 327 10 view .LVU561
 328:sieve_extend.c ****         source_word++;
 1318              		.loc 1 328 9 view .LVU562
 328:sieve_extend.c ****         source_word++;
 1319              		.loc 1 328 39 is_stmt 0 view .LVU563
 1320 0868 4F8B44E5 		movq	48(%r13,%r12,8), %r8
 1320      30
 328:sieve_extend.c ****         source_word++;
 1321              		.loc 1 328 29 view .LVU564
 1322 086d 4D894530 		movq	%r8, 48(%r13)
 329:sieve_extend.c ****         copy_word++;
 1323              		.loc 1 329 9 is_stmt 1 view .LVU565
 330:sieve_extend.c ****     }
 1324              		.loc 1 330 9 view .LVU566
 327:sieve_extend.c ****         bitarray[copy_word] = bitarray[source_word];
 1325              		.loc 1 327 10 view .LVU567
 328:sieve_extend.c ****         source_word++;
 1326              		.loc 1 328 9 view .LVU568
 328:sieve_extend.c ****         source_word++;
 1327              		.loc 1 328 39 is_stmt 0 view .LVU569
 1328 0871 4F8B4CE5 		movq	56(%r13,%r12,8), %r9
 1328      38
 1329 0876 4983C540 		addq	$64, %r13
 328:sieve_extend.c ****         source_word++;
 1330              		.loc 1 328 29 view .LVU570
 1331 087a 4D894DF8 		movq	%r9, -8(%r13)
 329:sieve_extend.c ****         copy_word++;
 1332              		.loc 1 329 9 is_stmt 1 view .LVU571
 330:sieve_extend.c ****     }
 1333              		.loc 1 330 9 view .LVU572
 327:sieve_extend.c ****         bitarray[copy_word] = bitarray[source_word];
 1334              		.loc 1 327 10 view .LVU573
 1335 087e 4D39F5   		cmpq	%r14, %r13
 1336 0881 75AF     		jne	.L71
 1337 0883 E9C7FEFF 		jmp	.L170
 1337      FF
 1338              		.cfi_endproc
 1339              	.LFE60:
 1341 0888 0F1F8400 		.p2align 4
GAS LISTING /tmp/ccEWrfMF.s 			page 49


 1341      00000000 
 1343              	extendSieve_shiftright:
 1344              	.LVL94:
 1345              	.LFB61:
 335:sieve_extend.c ****     const counter_t destination_stop_word = wordindex(destination_stop);
 1346              		.loc 1 335 143 view -0
 1347              		.cfi_startproc
 336:sieve_extend.c ****     const counter_t copy_start = source_start + size;
 1348              		.loc 1 336 5 view .LVU575
 335:sieve_extend.c ****     const counter_t destination_stop_word = wordindex(destination_stop);
 1349              		.loc 1 335 143 is_stmt 0 view .LVU576
 1350 0890 55       		pushq	%rbp
 1351              		.cfi_def_cfa_offset 16
 1352              		.cfi_offset 6, -16
 336:sieve_extend.c ****     const counter_t copy_start = source_start + size;
 1353              		.loc 1 336 21 view .LVU577
 1354 0891 48C1F906 		sarq	$6, %rcx
 1355              	.LVL95:
 338:sieve_extend.c ****     const bitshift_t shift_flipped = WORD_SIZE-shift;
 1356              		.loc 1 338 53 view .LVU578
 1357 0895 4889F0   		movq	%rsi, %rax
 335:sieve_extend.c ****     const counter_t destination_stop_word = wordindex(destination_stop);
 1358              		.loc 1 335 143 view .LVU579
 1359 0898 4889E5   		movq	%rsp, %rbp
 1360              		.cfi_def_cfa_register 6
 1361 089b 4157     		pushq	%r15
 338:sieve_extend.c ****     const bitshift_t shift_flipped = WORD_SIZE-shift;
 1362              		.loc 1 338 53 view .LVU580
 1363 089d 83E03F   		andl	$63, %eax
 335:sieve_extend.c ****     const counter_t destination_stop_word = wordindex(destination_stop);
 1364              		.loc 1 335 143 view .LVU581
 1365 08a0 4989F8   		movq	%rdi, %r8
 1366 08a3 4156     		pushq	%r14
 1367              		.cfi_offset 15, -24
 1368              		.cfi_offset 14, -32
 338:sieve_extend.c ****     const bitshift_t shift_flipped = WORD_SIZE-shift;
 1369              		.loc 1 338 53 view .LVU582
 1370 08a5 4989C7   		movq	%rax, %r15
 339:sieve_extend.c ****     counter_t source_word = wordindex(source_start);
 1371              		.loc 1 339 22 view .LVU583
 1372 08a8 4983C740 		addq	$64, %r15
 335:sieve_extend.c ****     const counter_t destination_stop_word = wordindex(destination_stop);
 1373              		.loc 1 335 143 view .LVU584
 1374 08ac 4155     		pushq	%r13
 1375 08ae 4154     		pushq	%r12
 1376 08b0 53       		pushq	%rbx
 1377 08b1 4883E4E0 		andq	$-32, %rsp
 1378 08b5 4883EC60 		subq	$96, %rsp
 1379              		.cfi_offset 13, -40
 1380              		.cfi_offset 12, -48
 1381              		.cfi_offset 3, -56
 1382              	.LVL96:
 337:sieve_extend.c ****     const bitshift_t shift = bitindex(copy_start) - bitindex(source_start);
 1383              		.loc 1 337 5 is_stmt 1 view .LVU585
 336:sieve_extend.c ****     const counter_t copy_start = source_start + size;
 1384              		.loc 1 336 21 is_stmt 0 view .LVU586
 1385 08b9 48894C24 		movq	%rcx, 88(%rsp)
GAS LISTING /tmp/ccEWrfMF.s 			page 50


 1385      58
 1386              	.LVL97:
 337:sieve_extend.c ****     const bitshift_t shift = bitindex(copy_start) - bitindex(source_start);
 1387              		.loc 1 337 21 view .LVU587
 1388 08be 488D0C16 		leaq	(%rsi,%rdx), %rcx
 1389              	.LVL98:
 338:sieve_extend.c ****     const bitshift_t shift_flipped = WORD_SIZE-shift;
 1390              		.loc 1 338 5 is_stmt 1 view .LVU588
 337:sieve_extend.c ****     const bitshift_t shift = bitindex(copy_start) - bitindex(source_start);
 1391              		.loc 1 337 21 is_stmt 0 view .LVU589
 1392 08c2 48895424 		movq	%rdx, 40(%rsp)
 1392      28
 338:sieve_extend.c ****     const bitshift_t shift_flipped = WORD_SIZE-shift;
 1393              		.loc 1 338 30 view .LVU590
 1394 08c7 4889CA   		movq	%rcx, %rdx
 1395              	.LVL99:
 341:sieve_extend.c ****     counter_t source_lastword = wordindex(copy_start);
 1396              		.loc 1 341 15 view .LVU591
 1397 08ca 48C1F906 		sarq	$6, %rcx
 1398              	.LVL100:
 340:sieve_extend.c ****     counter_t copy_word = wordindex(copy_start);
 1399              		.loc 1 340 15 view .LVU592
 1400 08ce 48C1FE06 		sarq	$6, %rsi
 1401              	.LVL101:
 343:sieve_extend.c ****                                 | (bitarray[source_lastword] >> shift_flipped))
 1402              		.loc 1 343 25 view .LVU593
 1403 08d2 488D3CCD 		leaq	0(,%rcx,8), %rdi
 1403      00000000 
 1404              	.LVL102:
 338:sieve_extend.c ****     const bitshift_t shift_flipped = WORD_SIZE-shift;
 1405              		.loc 1 338 30 view .LVU594
 1406 08da 83E23F   		andl	$63, %edx
 1407              	.LVL103:
 339:sieve_extend.c ****     counter_t source_word = wordindex(source_start);
 1408              		.loc 1 339 5 is_stmt 1 view .LVU595
 340:sieve_extend.c ****     counter_t copy_word = wordindex(copy_start);
 1409              		.loc 1 340 5 view .LVU596
 340:sieve_extend.c ****     counter_t copy_word = wordindex(copy_start);
 1410              		.loc 1 340 15 is_stmt 0 view .LVU597
 1411 08dd 4989F2   		movq	%rsi, %r10
 1412              	.LVL104:
 341:sieve_extend.c ****     counter_t source_lastword = wordindex(copy_start);
 1413              		.loc 1 341 5 is_stmt 1 view .LVU598
 343:sieve_extend.c ****                                 | (bitarray[source_lastword] >> shift_flipped))
 1414              		.loc 1 343 25 is_stmt 0 view .LVU599
 1415 08e0 498D3438 		leaq	(%r8,%rdi), %rsi
 1416              	.LVL105:
 343:sieve_extend.c ****                                 | (bitarray[source_lastword] >> shift_flipped))
 1417              		.loc 1 343 25 view .LVU600
 1418 08e4 4C8B0E   		movq	(%rsi), %r9
 343:sieve_extend.c ****                                 | (bitarray[source_lastword] >> shift_flipped))
 1419              		.loc 1 343 38 view .LVU601
 1420 08e7 4E8D24D5 		leaq	0(,%r10,8), %r12
 1420      00000000 
 338:sieve_extend.c ****     const bitshift_t shift_flipped = WORD_SIZE-shift;
 1421              		.loc 1 338 22 view .LVU602
 1422 08ef 4989D5   		movq	%rdx, %r13
GAS LISTING /tmp/ccEWrfMF.s 			page 51


 1423 08f2 4929C5   		subq	%rax, %r13
 1424              	.LVL106:
 339:sieve_extend.c ****     counter_t source_word = wordindex(source_start);
 1425              		.loc 1 339 22 view .LVU603
 1426 08f5 4929D7   		subq	%rdx, %r15
 341:sieve_extend.c ****     counter_t source_lastword = wordindex(copy_start);
 1427              		.loc 1 341 15 view .LVU604
 1428 08f8 4889CB   		movq	%rcx, %rbx
 343:sieve_extend.c ****                                 | (bitarray[source_lastword] >> shift_flipped))
 1429              		.loc 1 343 38 view .LVU605
 1430 08fb 4C895424 		movq	%r10, 56(%rsp)
 1430      38
 341:sieve_extend.c ****     counter_t source_lastword = wordindex(copy_start);
 1431              		.loc 1 341 15 view .LVU606
 1432 0900 48894C24 		movq	%rcx, 32(%rsp)
 1432      20
 1433              	.LVL107:
 342:sieve_extend.c ****     bitarray[copy_word] |= ((bitarray[source_word] << shift)  // or the start in to not lose data
 1434              		.loc 1 342 5 is_stmt 1 view .LVU607
 343:sieve_extend.c ****                                 | (bitarray[source_lastword] >> shift_flipped))
 1435              		.loc 1 343 5 view .LVU608
 343:sieve_extend.c ****                                 | (bitarray[source_lastword] >> shift_flipped))
 1436              		.loc 1 343 38 is_stmt 0 view .LVU609
 1437 0905 4B8D0C20 		leaq	(%r8,%r12), %rcx
 1438              	.LVL108:
 343:sieve_extend.c ****                                 | (bitarray[source_lastword] >> shift_flipped))
 1439              		.loc 1 343 52 view .LVU610
 1440 0909 C46291F7 		shlx	%r13, (%rcx), %r11
 1440      19
 344:sieve_extend.c ****                                 & ~chopmask(bitindex(copy_start));
 1441              		.loc 1 344 62 view .LVU611
 1442 090e C4C283F7 		shrx	%r15, %r9, %rax
 1442      C1
 1443              	.LVL109:
 344:sieve_extend.c ****                                 & ~chopmask(bitindex(copy_start));
 1444              		.loc 1 344 33 view .LVU612
 1445 0913 4C09D8   		orq	%r11, %rax
 345:sieve_extend.c ****     copy_word++;
 1446              		.loc 1 345 36 view .LVU613
 1447 0916 49C7C3FF 		movq	$-1, %r11
 1447      FFFFFF
 345:sieve_extend.c ****     copy_word++;
 1448              		.loc 1 345 35 view .LVU614
 1449 091d C4C2E9F7 		shlx	%rdx, %r11, %rdx
 1449      D3
 1450              	.LVL110:
 345:sieve_extend.c ****     copy_word++;
 1451              		.loc 1 345 33 view .LVU615
 1452 0922 4821C2   		andq	%rax, %rdx
 343:sieve_extend.c ****                                 | (bitarray[source_lastword] >> shift_flipped))
 1453              		.loc 1 343 25 view .LVU616
 1454 0925 4C09CA   		orq	%r9, %rdx
 347:sieve_extend.c **** 
 1455              		.loc 1 347 16 view .LVU617
 1456 0928 4C8B4C24 		movq	56(%rsp), %r9
 1456      38
 349:sieve_extend.c ****     const counter_t fast_loop_stop_word = (aligned_copy_word>2) ? (aligned_copy_word - 2) : 0; // s
GAS LISTING /tmp/ccEWrfMF.s 			page 52


 1457              		.loc 1 349 41 view .LVU618
 1458 092d 488B4424 		movq	40(%rsp), %rax
 1458      28
 347:sieve_extend.c **** 
 1459              		.loc 1 347 16 view .LVU619
 1460 0932 49FFC1   		incq	%r9
 349:sieve_extend.c ****     const counter_t fast_loop_stop_word = (aligned_copy_word>2) ? (aligned_copy_word - 2) : 0; // s
 1461              		.loc 1 349 21 view .LVU620
 1462 0935 4C8B5C24 		movq	88(%rsp), %r11
 1462      58
 349:sieve_extend.c ****     const counter_t fast_loop_stop_word = (aligned_copy_word>2) ? (aligned_copy_word - 2) : 0; // s
 1463              		.loc 1 349 41 view .LVU621
 1464 093a 4C01C8   		addq	%r9, %rax
 343:sieve_extend.c ****                                 | (bitarray[source_lastword] >> shift_flipped))
 1465              		.loc 1 343 25 view .LVU622
 1466 093d 488916   		movq	%rdx, (%rsi)
 346:sieve_extend.c ****     source_word++;
 1467              		.loc 1 346 5 is_stmt 1 view .LVU623
 346:sieve_extend.c ****     source_word++;
 1468              		.loc 1 346 14 is_stmt 0 view .LVU624
 1469 0940 4889DE   		movq	%rbx, %rsi
 1470 0943 48FFC3   		incq	%rbx
 1471              	.LVL111:
 347:sieve_extend.c **** 
 1472              		.loc 1 347 5 is_stmt 1 view .LVU625
 349:sieve_extend.c ****     const counter_t fast_loop_stop_word = (aligned_copy_word>2) ? (aligned_copy_word - 2) : 0; // s
 1473              		.loc 1 349 21 is_stmt 0 view .LVU626
 1474 0946 4C39D8   		cmpq	%r11, %rax
 1475 0949 490F4FC3 		cmovg	%r11, %rax
 347:sieve_extend.c **** 
 1476              		.loc 1 347 16 view .LVU627
 1477 094d 4C894C24 		movq	%r9, 80(%rsp)
 1477      50
 1478              	.LVL112:
 349:sieve_extend.c ****     const counter_t fast_loop_stop_word = (aligned_copy_word>2) ? (aligned_copy_word - 2) : 0; // s
 1479              		.loc 1 349 5 is_stmt 1 view .LVU628
 350:sieve_extend.c ****     while (copy_word < fast_loop_stop_word) {
 1480              		.loc 1 350 91 is_stmt 0 view .LVU629
 1481 0952 4883F802 		cmpq	$2, %rax
 1482 0956 41B90200 		movl	$2, %r9d
 1482      0000
 1483              	.LVL113:
 350:sieve_extend.c ****     while (copy_word < fast_loop_stop_word) {
 1484              		.loc 1 350 91 view .LVU630
 1485 095c 4C0F4DC8 		cmovge	%rax, %r9
 349:sieve_extend.c ****     const counter_t fast_loop_stop_word = (aligned_copy_word>2) ? (aligned_copy_word - 2) : 0; // s
 1486              		.loc 1 349 21 view .LVU631
 1487 0960 48894424 		movq	%rax, 48(%rsp)
 1487      30
 1488              	.LVL114:
 350:sieve_extend.c ****     while (copy_word < fast_loop_stop_word) {
 1489              		.loc 1 350 5 is_stmt 1 view .LVU632
 350:sieve_extend.c ****     while (copy_word < fast_loop_stop_word) {
 1490              		.loc 1 350 21 is_stmt 0 view .LVU633
 1491 0965 498D41FE 		leaq	-2(%r9), %rax
 1492              	.LVL115:
 350:sieve_extend.c ****     while (copy_word < fast_loop_stop_word) {
GAS LISTING /tmp/ccEWrfMF.s 			page 53


 1493              		.loc 1 350 21 view .LVU634
 1494 0969 48894424 		movq	%rax, 8(%rsp)
 1494      08
 1495              	.LVL116:
 351:sieve_extend.c ****             bitword_t sourcen = bitarray[source_word-1];
 1496              		.loc 1 351 5 is_stmt 1 view .LVU635
 351:sieve_extend.c ****             bitword_t sourcen = bitarray[source_word-1];
 1497              		.loc 1 351 11 view .LVU636
 343:sieve_extend.c ****                                 | (bitarray[source_lastword] >> shift_flipped))
 1498              		.loc 1 343 52 is_stmt 0 view .LVU637
 1499 096e 4589EE   		movl	%r13d, %r14d
 339:sieve_extend.c ****     counter_t source_word = wordindex(source_start);
 1500              		.loc 1 339 22 view .LVU638
 1501 0971 4D89FA   		movq	%r15, %r10
 351:sieve_extend.c ****             bitword_t sourcen = bitarray[source_word-1];
 1502              		.loc 1 351 11 view .LVU639
 1503 0974 4839C3   		cmpq	%rax, %rbx
 1504 0977 0F8DE803 		jge	.L173
 1504      0000
 1505 097d 488D4710 		leaq	16(%rdi), %rax
 1506              	.LVL117:
 351:sieve_extend.c ****             bitword_t sourcen = bitarray[source_word-1];
 1507              		.loc 1 351 11 view .LVU640
 1508 0981 4929F1   		subq	%rsi, %r9
 1509 0984 4C89E6   		movq	%r12, %rsi
 1510              	.LVL118:
 351:sieve_extend.c ****             bitword_t sourcen = bitarray[source_word-1];
 1511              		.loc 1 351 11 view .LVU641
 1512 0987 4D8D6424 		leaq	72(%r12), %r12
 1512      48
 1513 098c 4983E904 		subq	$4, %r9
 1514 0990 4939C4   		cmpq	%rax, %r12
 1515 0993 4C8D5F48 		leaq	72(%rdi), %r11
 1516 0997 4C896424 		movq	%r12, 24(%rsp)
 1516      18
 1517 099c 48897424 		movq	%rsi, 64(%rsp)
 1517      40
 1518 09a1 410F9EC4 		setle	%r12b
 1519 09a5 4883C610 		addq	$16, %rsi
 1520 09a9 4939F3   		cmpq	%rsi, %r11
 1521 09ac 4C894C24 		movq	%r9, 72(%rsp)
 1521      48
 1522 09b1 410F9EC1 		setle	%r9b
 1523 09b5 4509CC   		orl	%r9d, %r12d
 1524 09b8 4C8B4C24 		movq	64(%rsp), %r9
 1524      40
 1525 09bd 488D5708 		leaq	8(%rdi), %rdx
 1526 09c1 4983C140 		addq	$64, %r9
 1527 09c5 4939C1   		cmpq	%rax, %r9
 1528 09c8 4C890C24 		movq	%r9, (%rsp)
 1529 09cc 410F9EC1 		setle	%r9b
 1530 09d0 4C3B5C24 		cmpq	64(%rsp), %r11
 1530      40
 1531 09d5 0F9E4424 		setle	23(%rsp)
 1531      17
 1532 09da 440A4C24 		orb	23(%rsp), %r9b
 1532      17
GAS LISTING /tmp/ccEWrfMF.s 			page 54


 1533 09df 4521CC   		andl	%r9d, %r12d
 1534 09e2 48837C24 		cmpq	$11, 72(%rsp)
 1534      480B
 1535 09e8 410F97C1 		seta	%r9b
 1536 09ec 4521CC   		andl	%r9d, %r12d
 1537 09ef 48395424 		cmpq	%rdx, 24(%rsp)
 1537      18
 1538 09f4 410F9EC1 		setle	%r9b
 1539 09f8 4883C740 		addq	$64, %rdi
 1540 09fc 4839F7   		cmpq	%rsi, %rdi
 1541 09ff 0F9E4424 		setle	24(%rsp)
 1541      18
 1542 0a04 440A4C24 		orb	24(%rsp), %r9b
 1542      18
 1543 0a09 4521CC   		andl	%r9d, %r12d
 1544 0a0c 4939D3   		cmpq	%rdx, %r11
 1545 0a0f 410F9EC1 		setle	%r9b
 1546 0a13 4839C7   		cmpq	%rax, %rdi
 1547 0a16 410F9EC3 		setle	%r11b
 1548 0a1a 4509D9   		orl	%r11d, %r9d
 1549 0a1d 4584CC   		testb	%r9b, %r12b
 1550 0a20 0F843A0D 		je	.L174
 1550      0000
 1551 0a26 483B7C24 		cmpq	64(%rsp), %rdi
 1551      40
 1552 0a2b 400F9EC7 		setle	%dil
 1553 0a2f 48391424 		cmpq	%rdx, (%rsp)
 1554 0a33 410F9EC4 		setle	%r12b
 1555 0a37 4408E7   		orb	%r12b, %dil
 1556 0a3a 0F84200D 		je	.L174
 1556      0000
 1557 0a40 4C8B4C24 		movq	72(%rsp), %r9
 1557      48
 1558 0a45 4C01C2   		addq	%r8, %rdx
 1559 0a48 49C1E903 		shrq	$3, %r9
 1560 0a4c 4D89CB   		movq	%r9, %r11
 1561 0a4f 4C01C6   		addq	%r8, %rsi
 1562 0a52 4C01C0   		addq	%r8, %rax
 1563 0a55 49C1E306 		salq	$6, %r11
 1564 0a59 31FF     		xorl	%edi, %edi
 1565 0a5b C4C1796E 		vmovd	%r15d, %xmm1
 1565      CF
 1566 0a60 C4C1796E 		vmovd	%r13d, %xmm2
 1566      D5
 1567 0a65 41F6C101 		testb	$1, %r9b
 1568 0a69 0F849100 		je	.L175
 1568      0000
 1569              	.LVL119:
 1570              	.LBB243:
 352:sieve_extend.c ****             bitword_t source0 = bitarray[source_word  ];
 1571              		.loc 1 352 13 is_stmt 1 view .LVU642
 352:sieve_extend.c ****             bitword_t source0 = bitarray[source_word  ];
 1572              		.loc 1 352 23 is_stmt 0 view .LVU643
 1573 0a6f C5FE6F01 		vmovdqu	(%rcx), %ymm0
 1574 0a73 C5FE6F61 		vmovdqu	32(%rcx), %ymm4
 1574      20
 1575 0a78 BF400000 		movl	$64, %edi
GAS LISTING /tmp/ccEWrfMF.s 			page 55


 1575      00
 1576 0a7d C5FD6CF4 		vpunpcklqdq	%ymm4, %ymm0, %ymm6
 1577 0a81 C5FD6DDC 		vpunpckhqdq	%ymm4, %ymm0, %ymm3
 1578 0a85 C4E3FD00 		vpermq	$216, %ymm3, %ymm5
 1578      EBD8
 1579              	.LVL120:
 353:sieve_extend.c **** 
 1580              		.loc 1 353 13 is_stmt 1 view .LVU644
 355:sieve_extend.c ****             bitword_t source1 = bitarray[source_word+1];
 1581              		.loc 1 355 13 view .LVU645
 352:sieve_extend.c ****             bitword_t source0 = bitarray[source_word  ];
 1582              		.loc 1 352 23 is_stmt 0 view .LVU646
 1583 0a8b C4E3FD00 		vpermq	$216, %ymm6, %ymm7
 1583      FED8
 355:sieve_extend.c ****             bitword_t source1 = bitarray[source_word+1];
 1584              		.loc 1 355 46 view .LVU647
 1585 0a91 C555F3CA 		vpsllq	%xmm2, %ymm5, %ymm9
 355:sieve_extend.c ****             bitword_t source1 = bitarray[source_word+1];
 1586              		.loc 1 355 67 view .LVU648
 1587 0a95 C545D3C1 		vpsrlq	%xmm1, %ymm7, %ymm8
 357:sieve_extend.c ****             copy_word += 2;
 1588              		.loc 1 357 67 view .LVU649
 1589 0a99 C5D5D3E1 		vpsrlq	%xmm1, %ymm5, %ymm4
 355:sieve_extend.c ****             bitword_t source1 = bitarray[source_word+1];
 1590              		.loc 1 355 56 view .LVU650
 1591 0a9d C4413DEB 		vpor	%ymm9, %ymm8, %ymm10
 1591      D1
 355:sieve_extend.c ****             bitword_t source1 = bitarray[source_word+1];
 1592              		.loc 1 355 35 view .LVU651
 1593 0aa2 C4437D39 		vextracti128	$0x1, %ymm10, %xmm12
 1593      D401
 1594 0aa8 C579D612 		vmovq	%xmm10, (%rdx)
 355:sieve_extend.c ****             bitword_t source1 = bitarray[source_word+1];
 1595              		.loc 1 355 35 view .LVU652
 1596 0aac C579D662 		vmovq	%xmm12, 32(%rdx)
 1596      20
 1597 0ab1 C463F916 		vpextrq	$1, %xmm10, 16(%rdx)
 1597      521001
 1598 0ab8 C463F916 		vpextrq	$1, %xmm12, 48(%rdx)
 1598      623001
 356:sieve_extend.c ****             bitarray[copy_word+1] = (source1 << shift) | (source0 >> shift_flipped);
 1599              		.loc 1 356 13 is_stmt 1 view .LVU653
 1600              	.LVL121:
 357:sieve_extend.c ****             copy_word += 2;
 1601              		.loc 1 357 13 view .LVU654
 356:sieve_extend.c ****             bitarray[copy_word+1] = (source1 << shift) | (source0 >> shift_flipped);
 1602              		.loc 1 356 23 is_stmt 0 view .LVU655
 1603 0abf C57E6F2E 		vmovdqu	(%rsi), %ymm13
 1604 0ac3 C5156C76 		vpunpcklqdq	32(%rsi), %ymm13, %ymm14
 1604      20
 1605 0ac8 C443FD00 		vpermq	$216, %ymm14, %ymm15
 1605      FED8
 357:sieve_extend.c ****             copy_word += 2;
 1606              		.loc 1 357 46 view .LVU656
 1607 0ace C585F3C2 		vpsllq	%xmm2, %ymm15, %ymm0
 357:sieve_extend.c ****             copy_word += 2;
 1608              		.loc 1 357 56 view .LVU657
GAS LISTING /tmp/ccEWrfMF.s 			page 56


 1609 0ad2 C5FDEBEC 		vpor	%ymm4, %ymm0, %ymm5
 357:sieve_extend.c ****             copy_word += 2;
 1610              		.loc 1 357 35 view .LVU658
 1611 0ad6 C4E37D39 		vextracti128	$0x1, %ymm5, %xmm6
 1611      EE01
 1612 0adc C5F9D628 		vmovq	%xmm5, (%rax)
 357:sieve_extend.c ****             copy_word += 2;
 1613              		.loc 1 357 35 view .LVU659
 1614 0ae0 C5F9D670 		vmovq	%xmm6, 32(%rax)
 1614      20
 1615 0ae5 C4E3F916 		vpextrq	$1, %xmm5, 16(%rax)
 1615      681001
 1616 0aec C4E3F916 		vpextrq	$1, %xmm6, 48(%rax)
 1616      703001
 358:sieve_extend.c ****             source_word += 2;
 1617              		.loc 1 358 13 is_stmt 1 view .LVU660
 359:sieve_extend.c ****     }
 1618              		.loc 1 359 13 view .LVU661
 359:sieve_extend.c ****     }
 1619              		.loc 1 359 13 is_stmt 0 view .LVU662
 1620              	.LBE243:
 351:sieve_extend.c ****             bitword_t sourcen = bitarray[source_word-1];
 1621              		.loc 1 351 11 is_stmt 1 view .LVU663
 1622 0af3 4C39DF   		cmpq	%r11, %rdi
 1623 0af6 0F843001 		je	.L395
 1623      0000
 1624 0afc 0F1F4000 		.p2align 4,,10
 1625              		.p2align 3
 1626              	.L175:
 1627              	.LBB244:
 352:sieve_extend.c ****             bitword_t source0 = bitarray[source_word  ];
 1628              		.loc 1 352 13 view .LVU664
 352:sieve_extend.c ****             bitword_t source0 = bitarray[source_word  ];
 1629              		.loc 1 352 23 is_stmt 0 view .LVU665
 1630 0b00 C5FE6F3C 		vmovdqu	(%rcx,%rdi), %ymm7
 1630      39
 1631 0b05 C57E6F44 		vmovdqu	32(%rcx,%rdi), %ymm8
 1631      3920
 1632 0b0b C441456D 		vpunpckhqdq	%ymm8, %ymm7, %ymm9
 1632      C8
 1633 0b10 C441456C 		vpunpcklqdq	%ymm8, %ymm7, %ymm11
 1633      D8
 1634 0b15 C443FD00 		vpermq	$216, %ymm9, %ymm10
 1634      D1D8
 353:sieve_extend.c **** 
 1635              		.loc 1 353 13 is_stmt 1 view .LVU666
 355:sieve_extend.c ****             bitword_t source1 = bitarray[source_word+1];
 1636              		.loc 1 355 13 view .LVU667
 352:sieve_extend.c ****             bitword_t source0 = bitarray[source_word  ];
 1637              		.loc 1 352 23 is_stmt 0 view .LVU668
 1638 0b1b C443FD00 		vpermq	$216, %ymm11, %ymm12
 1638      E3D8
 355:sieve_extend.c ****             bitword_t source1 = bitarray[source_word+1];
 1639              		.loc 1 355 67 view .LVU669
 1640 0b21 C51DD3E9 		vpsrlq	%xmm1, %ymm12, %ymm13
 355:sieve_extend.c ****             bitword_t source1 = bitarray[source_word+1];
 1641              		.loc 1 355 46 view .LVU670
GAS LISTING /tmp/ccEWrfMF.s 			page 57


 1642 0b25 C52DF3F2 		vpsllq	%xmm2, %ymm10, %ymm14
 357:sieve_extend.c ****             copy_word += 2;
 1643              		.loc 1 357 67 view .LVU671
 1644 0b29 C52DD3C1 		vpsrlq	%xmm1, %ymm10, %ymm8
 355:sieve_extend.c ****             bitword_t source1 = bitarray[source_word+1];
 1645              		.loc 1 355 56 view .LVU672
 1646 0b2d C44115EB 		vpor	%ymm14, %ymm13, %ymm15
 1646      FE
 355:sieve_extend.c ****             bitword_t source1 = bitarray[source_word+1];
 1647              		.loc 1 355 35 view .LVU673
 1648 0b32 C4637D39 		vextracti128	$0x1, %ymm15, %xmm4
 1648      FC01
 1649 0b38 C579D63C 		vmovq	%xmm15, (%rdx,%rdi)
 1649      3A
 355:sieve_extend.c ****             bitword_t source1 = bitarray[source_word+1];
 1650              		.loc 1 355 35 view .LVU674
 1651 0b3d C5F9D664 		vmovq	%xmm4, 32(%rdx,%rdi)
 1651      3A20
 1652 0b43 C463F916 		vpextrq	$1, %xmm15, 16(%rdx,%rdi)
 1652      7C3A1001 
 1653 0b4b C4E3F916 		vpextrq	$1, %xmm4, 48(%rdx,%rdi)
 1653      643A3001 
 356:sieve_extend.c ****             bitarray[copy_word+1] = (source1 << shift) | (source0 >> shift_flipped);
 1654              		.loc 1 356 13 is_stmt 1 view .LVU675
 357:sieve_extend.c ****             copy_word += 2;
 1655              		.loc 1 357 13 view .LVU676
 356:sieve_extend.c ****             bitarray[copy_word+1] = (source1 << shift) | (source0 >> shift_flipped);
 1656              		.loc 1 356 23 is_stmt 0 view .LVU677
 1657 0b53 C5FE6F2C 		vmovdqu	(%rsi,%rdi), %ymm5
 1657      3E
 1658 0b58 C5D56C5C 		vpunpcklqdq	32(%rsi,%rdi), %ymm5, %ymm3
 1658      3E20
 1659 0b5e C4E3FD00 		vpermq	$216, %ymm3, %ymm6
 1659      F3D8
 357:sieve_extend.c ****             copy_word += 2;
 1660              		.loc 1 357 46 view .LVU678
 1661 0b64 C5CDF3FA 		vpsllq	%xmm2, %ymm6, %ymm7
 357:sieve_extend.c ****             copy_word += 2;
 1662              		.loc 1 357 56 view .LVU679
 1663 0b68 C44145EB 		vpor	%ymm8, %ymm7, %ymm9
 1663      C8
 357:sieve_extend.c ****             copy_word += 2;
 1664              		.loc 1 357 35 view .LVU680
 1665 0b6d C4437D39 		vextracti128	$0x1, %ymm9, %xmm11
 1665      CB01
 1666 0b73 C579D65C 		vmovq	%xmm11, 32(%rax,%rdi)
 1666      3820
 357:sieve_extend.c ****             copy_word += 2;
 1667              		.loc 1 357 35 view .LVU681
 1668 0b79 C579D60C 		vmovq	%xmm9, (%rax,%rdi)
 1668      38
 1669 0b7e C463F916 		vpextrq	$1, %xmm11, 48(%rax,%rdi)
 1669      5C383001 
 358:sieve_extend.c ****             source_word += 2;
 1670              		.loc 1 358 13 is_stmt 1 view .LVU682
 359:sieve_extend.c ****     }
 1671              		.loc 1 359 13 view .LVU683
GAS LISTING /tmp/ccEWrfMF.s 			page 58


 359:sieve_extend.c ****     }
 1672              		.loc 1 359 13 is_stmt 0 view .LVU684
 1673              	.LBE244:
 351:sieve_extend.c ****             bitword_t sourcen = bitarray[source_word-1];
 1674              		.loc 1 351 11 is_stmt 1 view .LVU685
 1675              	.LBB245:
 352:sieve_extend.c ****             bitword_t source0 = bitarray[source_word  ];
 1676              		.loc 1 352 13 view .LVU686
 357:sieve_extend.c ****             copy_word += 2;
 1677              		.loc 1 357 35 is_stmt 0 view .LVU687
 1678 0b86 C463F916 		vpextrq	$1, %xmm9, 16(%rax,%rdi)
 1678      4C381001 
 352:sieve_extend.c ****             bitword_t source0 = bitarray[source_word  ];
 1679              		.loc 1 352 23 view .LVU688
 1680 0b8e C57E6F64 		vmovdqu	64(%rcx,%rdi), %ymm12
 1680      3940
 1681 0b94 C57E6F6C 		vmovdqu	96(%rcx,%rdi), %ymm13
 1681      3960
 1682 0b9a C4411D6D 		vpunpckhqdq	%ymm13, %ymm12, %ymm14
 1682      F5
 1683 0b9f C4C11D6C 		vpunpcklqdq	%ymm13, %ymm12, %ymm0
 1683      C5
 1684 0ba4 C443FD00 		vpermq	$216, %ymm14, %ymm15
 1684      FED8
 353:sieve_extend.c **** 
 1685              		.loc 1 353 13 is_stmt 1 view .LVU689
 355:sieve_extend.c ****             bitword_t source1 = bitarray[source_word+1];
 1686              		.loc 1 355 13 view .LVU690
 352:sieve_extend.c ****             bitword_t source0 = bitarray[source_word  ];
 1687              		.loc 1 352 23 is_stmt 0 view .LVU691
 1688 0baa C4E3FD00 		vpermq	$216, %ymm0, %ymm4
 1688      E0D8
 355:sieve_extend.c ****             bitword_t source1 = bitarray[source_word+1];
 1689              		.loc 1 355 67 view .LVU692
 1690 0bb0 C5DDD3E9 		vpsrlq	%xmm1, %ymm4, %ymm5
 355:sieve_extend.c ****             bitword_t source1 = bitarray[source_word+1];
 1691              		.loc 1 355 46 view .LVU693
 1692 0bb4 C585F3DA 		vpsllq	%xmm2, %ymm15, %ymm3
 357:sieve_extend.c ****             copy_word += 2;
 1693              		.loc 1 357 67 view .LVU694
 1694 0bb8 C505D3E9 		vpsrlq	%xmm1, %ymm15, %ymm13
 355:sieve_extend.c ****             bitword_t source1 = bitarray[source_word+1];
 1695              		.loc 1 355 56 view .LVU695
 1696 0bbc C5D5EBF3 		vpor	%ymm3, %ymm5, %ymm6
 355:sieve_extend.c ****             bitword_t source1 = bitarray[source_word+1];
 1697              		.loc 1 355 35 view .LVU696
 1698 0bc0 C4C37D39 		vextracti128	$0x1, %ymm6, %xmm8
 1698      F001
 1699 0bc6 C5F9D674 		vmovq	%xmm6, 64(%rdx,%rdi)
 1699      3A40
 355:sieve_extend.c ****             bitword_t source1 = bitarray[source_word+1];
 1700              		.loc 1 355 35 view .LVU697
 1701 0bcc C579D644 		vmovq	%xmm8, 96(%rdx,%rdi)
 1701      3A60
 1702 0bd2 C4E3F916 		vpextrq	$1, %xmm6, 80(%rdx,%rdi)
 1702      743A5001 
 1703 0bda C463F916 		vpextrq	$1, %xmm8, 112(%rdx,%rdi)
GAS LISTING /tmp/ccEWrfMF.s 			page 59


 1703      443A7001 
 356:sieve_extend.c ****             bitarray[copy_word+1] = (source1 << shift) | (source0 >> shift_flipped);
 1704              		.loc 1 356 13 is_stmt 1 view .LVU698
 357:sieve_extend.c ****             copy_word += 2;
 1705              		.loc 1 357 13 view .LVU699
 356:sieve_extend.c ****             bitarray[copy_word+1] = (source1 << shift) | (source0 >> shift_flipped);
 1706              		.loc 1 356 23 is_stmt 0 view .LVU700
 1707 0be2 C57E6F4C 		vmovdqu	64(%rsi,%rdi), %ymm9
 1707      3E40
 1708 0be8 C5356C54 		vpunpcklqdq	96(%rsi,%rdi), %ymm9, %ymm10
 1708      3E60
 1709 0bee C443FD00 		vpermq	$216, %ymm10, %ymm11
 1709      DAD8
 357:sieve_extend.c ****             copy_word += 2;
 1710              		.loc 1 357 46 view .LVU701
 1711 0bf4 C525F3E2 		vpsllq	%xmm2, %ymm11, %ymm12
 357:sieve_extend.c ****             copy_word += 2;
 1712              		.loc 1 357 56 view .LVU702
 1713 0bf8 C4411DEB 		vpor	%ymm13, %ymm12, %ymm14
 1713      F5
 357:sieve_extend.c ****             copy_word += 2;
 1714              		.loc 1 357 35 view .LVU703
 1715 0bfd C4637D39 		vextracti128	$0x1, %ymm14, %xmm0
 1715      F001
 1716 0c03 C579D674 		vmovq	%xmm14, 64(%rax,%rdi)
 1716      3840
 357:sieve_extend.c ****             copy_word += 2;
 1717              		.loc 1 357 35 view .LVU704
 1718 0c09 C5F9D644 		vmovq	%xmm0, 96(%rax,%rdi)
 1718      3860
 1719 0c0f C463F916 		vpextrq	$1, %xmm14, 80(%rax,%rdi)
 1719      74385001 
 1720 0c17 C4E3F916 		vpextrq	$1, %xmm0, 112(%rax,%rdi)
 1720      44387001 
 358:sieve_extend.c ****             source_word += 2;
 1721              		.loc 1 358 13 is_stmt 1 view .LVU705
 359:sieve_extend.c ****     }
 1722              		.loc 1 359 13 view .LVU706
 359:sieve_extend.c ****     }
 1723              		.loc 1 359 13 is_stmt 0 view .LVU707
 1724              	.LBE245:
 351:sieve_extend.c ****             bitword_t sourcen = bitarray[source_word-1];
 1725              		.loc 1 351 11 is_stmt 1 view .LVU708
 1726 0c1f 4883EF80 		subq	$-128, %rdi
 1727 0c23 4C39DF   		cmpq	%r11, %rdi
 1728 0c26 0F85D4FE 		jne	.L175
 1728      FFFF
 1729              	.L395:
 351:sieve_extend.c ****             bitword_t sourcen = bitarray[source_word-1];
 1730              		.loc 1 351 11 is_stmt 0 view .LVU709
 1731 0c2c 488B4424 		movq	80(%rsp), %rax
 1731      50
 1732 0c31 49C1E103 		salq	$3, %r9
 1733 0c35 4C01C8   		addq	%r9, %rax
 1734              	.LBB246:
 353:sieve_extend.c **** 
 1735              		.loc 1 353 23 view .LVU710
GAS LISTING /tmp/ccEWrfMF.s 			page 60


 1736 0c38 498B0CC0 		movq	(%r8,%rax,8), %rcx
 352:sieve_extend.c ****             bitword_t source0 = bitarray[source_word  ];
 1737              		.loc 1 352 41 view .LVU711
 1738 0c3c 488D34C5 		leaq	0(,%rax,8), %rsi
 1738      00000000 
 1739 0c44 4C01CB   		addq	%r9, %rbx
 1740              	.LVL122:
 352:sieve_extend.c ****             bitword_t source0 = bitarray[source_word  ];
 1741              		.loc 1 352 13 is_stmt 1 view .LVU712
 353:sieve_extend.c **** 
 1742              		.loc 1 353 13 view .LVU713
 355:sieve_extend.c ****             bitword_t source1 = bitarray[source_word+1];
 1743              		.loc 1 355 13 view .LVU714
 355:sieve_extend.c ****             bitword_t source1 = bitarray[source_word+1];
 1744              		.loc 1 355 67 is_stmt 0 view .LVU715
 1745 0c47 C4C2ABF7 		shrx	%r10, -8(%r8,%rsi), %rdx
 1745      5430F8
 355:sieve_extend.c ****             bitword_t source1 = bitarray[source_word+1];
 1746              		.loc 1 355 46 view .LVU716
 1747 0c4e C46291F7 		shlx	%r13, %rcx, %r12
 1747      E1
 355:sieve_extend.c ****             bitword_t source1 = bitarray[source_word+1];
 1748              		.loc 1 355 56 view .LVU717
 1749 0c53 4C09E2   		orq	%r12, %rdx
 1750 0c56 498914D8 		movq	%rdx, (%r8,%rbx,8)
 1751              	.LVL123:
 356:sieve_extend.c ****             bitarray[copy_word+1] = (source1 << shift) | (source0 >> shift_flipped);
 1752              		.loc 1 356 13 is_stmt 1 view .LVU718
 357:sieve_extend.c ****             copy_word += 2;
 1753              		.loc 1 357 13 view .LVU719
 1754              	.LBE246:
 351:sieve_extend.c ****             bitword_t sourcen = bitarray[source_word-1];
 1755              		.loc 1 351 11 is_stmt 0 view .LVU720
 1756 0c5a 4C8B6424 		movq	8(%rsp), %r12
 1756      08
 1757              	.LBB247:
 357:sieve_extend.c ****             copy_word += 2;
 1758              		.loc 1 357 67 view .LVU721
 1759 0c5f C4E2ABF7 		shrx	%r10, %rcx, %rdi
 1759      F9
 357:sieve_extend.c ****             copy_word += 2;
 1760              		.loc 1 357 46 view .LVU722
 1761 0c64 4D8B4C30 		movq	8(%r8,%rsi), %r9
 1761      08
 358:sieve_extend.c ****             source_word += 2;
 1762              		.loc 1 358 23 view .LVU723
 1763 0c69 488D7302 		leaq	2(%rbx), %rsi
 1764              	.LVL124:
 357:sieve_extend.c ****             copy_word += 2;
 1765              		.loc 1 357 46 view .LVU724
 1766 0c6d C44291F7 		shlx	%r13, %r9, %r11
 1766      D9
 357:sieve_extend.c ****             copy_word += 2;
 1767              		.loc 1 357 56 view .LVU725
 1768 0c72 4C09DF   		orq	%r11, %rdi
 1769 0c75 49897CD8 		movq	%rdi, 8(%r8,%rbx,8)
 1769      08
GAS LISTING /tmp/ccEWrfMF.s 			page 61


 358:sieve_extend.c ****             source_word += 2;
 1770              		.loc 1 358 13 is_stmt 1 view .LVU726
 1771              	.LVL125:
 359:sieve_extend.c ****     }
 1772              		.loc 1 359 13 view .LVU727
 359:sieve_extend.c ****     }
 1773              		.loc 1 359 25 is_stmt 0 view .LVU728
 1774 0c7a 488D4802 		leaq	2(%rax), %rcx
 1775              	.LVL126:
 359:sieve_extend.c ****     }
 1776              		.loc 1 359 25 view .LVU729
 1777              	.LBE247:
 351:sieve_extend.c ****             bitword_t sourcen = bitarray[source_word-1];
 1778              		.loc 1 351 11 is_stmt 1 view .LVU730
 1779 0c7e 4939F4   		cmpq	%rsi, %r12
 1780 0c81 0F8EBC00 		jle	.L176
 1780      0000
 1781              	.LBB248:
 352:sieve_extend.c ****             bitword_t source0 = bitarray[source_word  ];
 1782              		.loc 1 352 13 view .LVU731
 353:sieve_extend.c **** 
 1783              		.loc 1 353 23 is_stmt 0 view .LVU732
 1784 0c87 498B3CC8 		movq	(%r8,%rcx,8), %rdi
 352:sieve_extend.c ****             bitword_t source0 = bitarray[source_word  ];
 1785              		.loc 1 352 41 view .LVU733
 1786 0c8b 4C8D1CCD 		leaq	0(,%rcx,8), %r11
 1786      00000000 
 1787              	.LVL127:
 353:sieve_extend.c **** 
 1788              		.loc 1 353 13 is_stmt 1 view .LVU734
 355:sieve_extend.c ****             bitword_t source1 = bitarray[source_word+1];
 1789              		.loc 1 355 13 view .LVU735
 355:sieve_extend.c ****             bitword_t source1 = bitarray[source_word+1];
 1790              		.loc 1 355 67 is_stmt 0 view .LVU736
 1791 0c93 C482ABF7 		shrx	%r10, -8(%r8,%r11), %rdx
 1791      5418F8
 355:sieve_extend.c ****             bitword_t source1 = bitarray[source_word+1];
 1792              		.loc 1 355 46 view .LVU737
 1793 0c9a C46291F7 		shlx	%r13, %rdi, %r9
 1793      CF
 1794              	.LVL128:
 355:sieve_extend.c ****             bitword_t source1 = bitarray[source_word+1];
 1795              		.loc 1 355 56 view .LVU738
 1796 0c9f 4C09CA   		orq	%r9, %rdx
 1797 0ca2 498914F0 		movq	%rdx, (%r8,%rsi,8)
 1798              	.LVL129:
 356:sieve_extend.c ****             bitarray[copy_word+1] = (source1 << shift) | (source0 >> shift_flipped);
 1799              		.loc 1 356 13 is_stmt 1 view .LVU739
 357:sieve_extend.c ****             copy_word += 2;
 1800              		.loc 1 357 13 view .LVU740
 357:sieve_extend.c ****             copy_word += 2;
 1801              		.loc 1 357 67 is_stmt 0 view .LVU741
 1802 0ca6 C4E2ABF7 		shrx	%r10, %rdi, %rdi
 1802      FF
 1803              	.LVL130:
 359:sieve_extend.c ****     }
 1804              		.loc 1 359 25 view .LVU742
GAS LISTING /tmp/ccEWrfMF.s 			page 62


 1805 0cab 488D5004 		leaq	4(%rax), %rdx
 357:sieve_extend.c ****             copy_word += 2;
 1806              		.loc 1 357 46 view .LVU743
 1807 0caf 4B8B4C18 		movq	8(%r8,%r11), %rcx
 1807      08
 1808              	.LVL131:
 357:sieve_extend.c ****             copy_word += 2;
 1809              		.loc 1 357 46 view .LVU744
 1810 0cb4 C46291F7 		shlx	%r13, %rcx, %r11
 1810      D9
 1811              	.LVL132:
 357:sieve_extend.c ****             copy_word += 2;
 1812              		.loc 1 357 56 view .LVU745
 1813 0cb9 4C09DF   		orq	%r11, %rdi
 1814 0cbc 49897CF0 		movq	%rdi, 8(%r8,%rsi,8)
 1814      08
 358:sieve_extend.c ****             source_word += 2;
 1815              		.loc 1 358 13 is_stmt 1 view .LVU746
 358:sieve_extend.c ****             source_word += 2;
 1816              		.loc 1 358 23 is_stmt 0 view .LVU747
 1817 0cc1 488D7304 		leaq	4(%rbx), %rsi
 1818              	.LVL133:
 359:sieve_extend.c ****     }
 1819              		.loc 1 359 13 is_stmt 1 view .LVU748
 359:sieve_extend.c ****     }
 1820              		.loc 1 359 13 is_stmt 0 view .LVU749
 1821              	.LBE248:
 351:sieve_extend.c ****             bitword_t sourcen = bitarray[source_word-1];
 1822              		.loc 1 351 11 is_stmt 1 view .LVU750
 1823 0cc5 4939F4   		cmpq	%rsi, %r12
 1824 0cc8 7E79     		jle	.L176
 1825              	.LBB249:
 352:sieve_extend.c ****             bitword_t source0 = bitarray[source_word  ];
 1826              		.loc 1 352 13 view .LVU751
 353:sieve_extend.c **** 
 1827              		.loc 1 353 23 is_stmt 0 view .LVU752
 1828 0cca 498B0CD0 		movq	(%r8,%rdx,8), %rcx
 1829              	.LVL134:
 352:sieve_extend.c ****             bitword_t source0 = bitarray[source_word  ];
 1830              		.loc 1 352 41 view .LVU753
 1831 0cce 4C8D1CD5 		leaq	0(,%rdx,8), %r11
 1831      00000000 
 1832              	.LVL135:
 353:sieve_extend.c **** 
 1833              		.loc 1 353 13 is_stmt 1 view .LVU754
 355:sieve_extend.c ****             bitword_t source1 = bitarray[source_word+1];
 1834              		.loc 1 355 13 view .LVU755
 355:sieve_extend.c ****             bitword_t source1 = bitarray[source_word+1];
 1835              		.loc 1 355 67 is_stmt 0 view .LVU756
 1836 0cd6 C482ABF7 		shrx	%r10, -8(%r8,%r11), %rdi
 1836      7C18F8
 355:sieve_extend.c ****             bitword_t source1 = bitarray[source_word+1];
 1837              		.loc 1 355 46 view .LVU757
 1838 0cdd C46291F7 		shlx	%r13, %rcx, %r9
 1838      C9
 355:sieve_extend.c ****             bitword_t source1 = bitarray[source_word+1];
 1839              		.loc 1 355 56 view .LVU758
GAS LISTING /tmp/ccEWrfMF.s 			page 63


 1840 0ce2 4C09CF   		orq	%r9, %rdi
 1841 0ce5 49893CF0 		movq	%rdi, (%r8,%rsi,8)
 1842              	.LVL136:
 356:sieve_extend.c ****             bitarray[copy_word+1] = (source1 << shift) | (source0 >> shift_flipped);
 1843              		.loc 1 356 13 is_stmt 1 view .LVU759
 357:sieve_extend.c ****             copy_word += 2;
 1844              		.loc 1 357 13 view .LVU760
 357:sieve_extend.c ****             copy_word += 2;
 1845              		.loc 1 357 67 is_stmt 0 view .LVU761
 1846 0ce9 C4E2ABF7 		shrx	%r10, %rcx, %rcx
 1846      C9
 1847              	.LVL137:
 358:sieve_extend.c ****             source_word += 2;
 1848              		.loc 1 358 23 view .LVU762
 1849 0cee 4883C306 		addq	$6, %rbx
 357:sieve_extend.c ****             copy_word += 2;
 1850              		.loc 1 357 46 view .LVU763
 1851 0cf2 4B8B5418 		movq	8(%r8,%r11), %rdx
 1851      08
 1852              	.LVL138:
 359:sieve_extend.c ****     }
 1853              		.loc 1 359 25 view .LVU764
 1854 0cf7 4883C006 		addq	$6, %rax
 1855              	.LVL139:
 357:sieve_extend.c ****             copy_word += 2;
 1856              		.loc 1 357 46 view .LVU765
 1857 0cfb C46291F7 		shlx	%r13, %rdx, %r11
 1857      DA
 1858              	.LVL140:
 357:sieve_extend.c ****             copy_word += 2;
 1859              		.loc 1 357 56 view .LVU766
 1860 0d00 4C09D9   		orq	%r11, %rcx
 1861 0d03 49894CF0 		movq	%rcx, 8(%r8,%rsi,8)
 1861      08
 358:sieve_extend.c ****             source_word += 2;
 1862              		.loc 1 358 13 is_stmt 1 view .LVU767
 1863              	.LVL141:
 359:sieve_extend.c ****     }
 1864              		.loc 1 359 13 view .LVU768
 359:sieve_extend.c ****     }
 1865              		.loc 1 359 13 is_stmt 0 view .LVU769
 1866              	.LBE249:
 351:sieve_extend.c ****             bitword_t sourcen = bitarray[source_word-1];
 1867              		.loc 1 351 11 is_stmt 1 view .LVU770
 1868 0d08 4939DC   		cmpq	%rbx, %r12
 1869 0d0b 7E36     		jle	.L176
 1870              	.LBB250:
 352:sieve_extend.c ****             bitword_t source0 = bitarray[source_word  ];
 1871              		.loc 1 352 13 view .LVU771
 353:sieve_extend.c **** 
 1872              		.loc 1 353 23 is_stmt 0 view .LVU772
 1873 0d0d 498B3CC0 		movq	(%r8,%rax,8), %rdi
 352:sieve_extend.c ****             bitword_t source0 = bitarray[source_word  ];
 1874              		.loc 1 352 41 view .LVU773
 1875 0d11 4C8D24C5 		leaq	0(,%rax,8), %r12
 1875      00000000 
 1876              	.LVL142:
GAS LISTING /tmp/ccEWrfMF.s 			page 64


 353:sieve_extend.c **** 
 1877              		.loc 1 353 13 is_stmt 1 view .LVU774
 355:sieve_extend.c ****             bitword_t source1 = bitarray[source_word+1];
 1878              		.loc 1 355 13 view .LVU775
 355:sieve_extend.c ****             bitword_t source1 = bitarray[source_word+1];
 1879              		.loc 1 355 67 is_stmt 0 view .LVU776
 1880 0d19 C482ABF7 		shrx	%r10, -8(%r8,%r12), %rax
 1880      4420F8
 355:sieve_extend.c ****             bitword_t source1 = bitarray[source_word+1];
 1881              		.loc 1 355 46 view .LVU777
 1882 0d20 C4E291F7 		shlx	%r13, %rdi, %rsi
 1882      F7
 355:sieve_extend.c ****             bitword_t source1 = bitarray[source_word+1];
 1883              		.loc 1 355 56 view .LVU778
 1884 0d25 4809F0   		orq	%rsi, %rax
 1885 0d28 498904D8 		movq	%rax, (%r8,%rbx,8)
 1886              	.LVL143:
 356:sieve_extend.c ****             bitarray[copy_word+1] = (source1 << shift) | (source0 >> shift_flipped);
 1887              		.loc 1 356 13 is_stmt 1 view .LVU779
 357:sieve_extend.c ****             copy_word += 2;
 1888              		.loc 1 357 13 view .LVU780
 357:sieve_extend.c ****             copy_word += 2;
 1889              		.loc 1 357 67 is_stmt 0 view .LVU781
 1890 0d2c C4E2ABF7 		shrx	%r10, %rdi, %rdx
 1890      D7
 357:sieve_extend.c ****             copy_word += 2;
 1891              		.loc 1 357 46 view .LVU782
 1892 0d31 4F8B4C20 		movq	8(%r8,%r12), %r9
 1892      08
 1893 0d36 C44291F7 		shlx	%r13, %r9, %r11
 1893      D9
 357:sieve_extend.c ****             copy_word += 2;
 1894              		.loc 1 357 56 view .LVU783
 1895 0d3b 4C09DA   		orq	%r11, %rdx
 1896 0d3e 498954D8 		movq	%rdx, 8(%r8,%rbx,8)
 1896      08
 1897              	.LVL144:
 358:sieve_extend.c ****             source_word += 2;
 1898              		.loc 1 358 13 is_stmt 1 view .LVU784
 359:sieve_extend.c ****     }
 1899              		.loc 1 359 13 view .LVU785
 359:sieve_extend.c ****     }
 1900              		.loc 1 359 13 is_stmt 0 view .LVU786
 1901              	.LBE250:
 351:sieve_extend.c ****             bitword_t sourcen = bitarray[source_word-1];
 1902              		.loc 1 351 11 is_stmt 1 view .LVU787
 1903              	.L176:
 351:sieve_extend.c ****             bitword_t sourcen = bitarray[source_word-1];
 1904              		.loc 1 351 11 is_stmt 0 view .LVU788
 1905 0d43 488B4C24 		movq	72(%rsp), %rcx
 1905      48
 1906 0d48 4C8B5C24 		movq	56(%rsp), %r11
 1906      38
 1907 0d4d 4883E1FE 		andq	$-2, %rcx
 1908 0d51 498D440B 		leaq	3(%r11,%rcx), %rax
 1908      03
 1909 0d56 4C8B6424 		movq	32(%rsp), %r12
GAS LISTING /tmp/ccEWrfMF.s 			page 65


 1909      20
 1910 0d5b 48894424 		movq	%rax, 80(%rsp)
 1910      50
 1911 0d60 498D5C0C 		leaq	3(%r12,%rcx), %rbx
 1911      03
 1912              	.L173:
 1913              	.LVL145:
 362:sieve_extend.c ****         bitarray[copy_word] = (bitarray[source_word-1] >> shift_flipped) | (bitarray[source_word] <
 1914              		.loc 1 362 11 is_stmt 1 view .LVU789
 1915 0d65 4C8B4C24 		movq	48(%rsp), %r9
 1915      30
 1916 0d6a 4939D9   		cmpq	%rbx, %r9
 1917 0d6d 0F8C6803 		jl	.L178
 1917      0000
 1918 0d73 488B7424 		movq	80(%rsp), %rsi
 1918      50
 1919 0d78 488D0CDD 		leaq	0(,%rbx,8), %rcx
 1919      00000000 
 1920 0d80 4C8D1CF5 		leaq	32(,%rsi,8), %r11
 1920      20000000 
 1921 0d88 488D7920 		leaq	32(%rcx), %rdi
 1922 0d8c 498D53D8 		leaq	-40(%r11), %rdx
 1923 0d90 4839D7   		cmpq	%rdx, %rdi
 1924 0d93 0F9EC0   		setle	%al
 1925 0d96 4939CB   		cmpq	%rcx, %r11
 1926 0d99 410F9EC4 		setle	%r12b
 1927 0d9d 4408E0   		orb	%r12b, %al
 1928 0da0 0F84D207 		je	.L179
 1928      0000
 1929 0da6 4C89CE   		movq	%r9, %rsi
 1930 0da9 4829DE   		subq	%rbx, %rsi
 1931 0dac 4883FE03 		cmpq	$3, %rsi
 1932 0db0 0F86C207 		jbe	.L179
 1932      0000
 1933 0db6 4D8D6101 		leaq	1(%r9), %r12
 1934 0dba 4D89E1   		movq	%r12, %r9
 1935 0dbd 4929D9   		subq	%rbx, %r9
 1936 0dc0 4C89CF   		movq	%r9, %rdi
 1937 0dc3 48C1EF02 		shrq	$2, %rdi
 1938 0dc7 48C1E705 		salq	$5, %rdi
 1939 0dcb C4C1796E 		vmovd	%r14d, %xmm4
 1939      E6
 1940 0dd0 4C8D77E0 		leaq	-32(%rdi), %r14
 1941 0dd4 49C1EE05 		shrq	$5, %r14
 1942 0dd8 49FFC6   		incq	%r14
 1943 0ddb 4B8D7418 		leaq	-32(%r8,%r11), %rsi
 1943      E0
 1944 0de0 4C01C2   		addq	%r8, %rdx
 1945 0de3 4C01C1   		addq	%r8, %rcx
 1946 0de6 4531DB   		xorl	%r11d, %r11d
 1947 0de9 C4C1796E 		vmovd	%r15d, %xmm1
 1947      CF
 1948 0dee 4183E607 		andl	$7, %r14d
 1949 0df2 0F842601 		je	.L180
 1949      0000
 1950 0df8 4983FE01 		cmpq	$1, %r14
 1951 0dfc 0F84F000 		je	.L316
GAS LISTING /tmp/ccEWrfMF.s 			page 66


 1951      0000
 1952 0e02 4983FE02 		cmpq	$2, %r14
 1953 0e06 0F84C400 		je	.L317
 1953      0000
 1954 0e0c 4983FE03 		cmpq	$3, %r14
 1955 0e10 0F849700 		je	.L318
 1955      0000
 1956 0e16 4983FE04 		cmpq	$4, %r14
 1957 0e1a 746F     		je	.L319
 1958 0e1c 4983FE05 		cmpq	$5, %r14
 1959 0e20 7447     		je	.L320
 1960 0e22 4983FE06 		cmpq	$6, %r14
 1961 0e26 741E     		je	.L321
 1962              	.LVL146:
 363:sieve_extend.c ****         copy_word++;
 1963              		.loc 1 363 9 view .LVU790
 363:sieve_extend.c ****         copy_word++;
 1964              		.loc 1 363 56 is_stmt 0 view .LVU791
 1965 0e28 C5FE6F12 		vmovdqu	(%rdx), %ymm2
 363:sieve_extend.c ****         copy_word++;
 1966              		.loc 1 363 99 view .LVU792
 1967 0e2c C5FE6F1E 		vmovdqu	(%rsi), %ymm3
 363:sieve_extend.c ****         copy_word++;
 1968              		.loc 1 363 56 view .LVU793
 1969 0e30 C5EDD3E9 		vpsrlq	%xmm1, %ymm2, %ymm5
 363:sieve_extend.c ****         copy_word++;
 1970              		.loc 1 363 99 view .LVU794
 1971 0e34 C5E5F3F4 		vpsllq	%xmm4, %ymm3, %ymm6
 1972 0e38 41BB2000 		movl	$32, %r11d
 1972      0000
 363:sieve_extend.c ****         copy_word++;
 1973              		.loc 1 363 74 view .LVU795
 1974 0e3e C5D5EBFE 		vpor	%ymm6, %ymm5, %ymm7
 363:sieve_extend.c ****         copy_word++;
 1975              		.loc 1 363 29 view .LVU796
 1976 0e42 C5FE7F39 		vmovdqu	%ymm7, (%rcx)
 364:sieve_extend.c ****         source_word++;
 1977              		.loc 1 364 9 is_stmt 1 view .LVU797
 365:sieve_extend.c ****     }
 1978              		.loc 1 365 9 view .LVU798
 362:sieve_extend.c ****         bitarray[copy_word] = (bitarray[source_word-1] >> shift_flipped) | (bitarray[source_word] <
 1979              		.loc 1 362 11 view .LVU799
 1980              	.L321:
 363:sieve_extend.c ****         copy_word++;
 1981              		.loc 1 363 9 view .LVU800
 363:sieve_extend.c ****         copy_word++;
 1982              		.loc 1 363 56 is_stmt 0 view .LVU801
 1983 0e46 C4217E6F 		vmovdqu	(%rdx,%r11), %ymm8
 1983      041A
 363:sieve_extend.c ****         copy_word++;
 1984              		.loc 1 363 99 view .LVU802
 1985 0e4c C4217E6F 		vmovdqu	(%rsi,%r11), %ymm10
 1985      141E
 363:sieve_extend.c ****         copy_word++;
 1986              		.loc 1 363 56 view .LVU803
 1987 0e52 C53DD3C9 		vpsrlq	%xmm1, %ymm8, %ymm9
 363:sieve_extend.c ****         copy_word++;
GAS LISTING /tmp/ccEWrfMF.s 			page 67


 1988              		.loc 1 363 99 view .LVU804
 1989 0e56 C52DF3DC 		vpsllq	%xmm4, %ymm10, %ymm11
 363:sieve_extend.c ****         copy_word++;
 1990              		.loc 1 363 74 view .LVU805
 1991 0e5a C44135EB 		vpor	%ymm11, %ymm9, %ymm12
 1991      E3
 363:sieve_extend.c ****         copy_word++;
 1992              		.loc 1 363 29 view .LVU806
 1993 0e5f C4217E7F 		vmovdqu	%ymm12, (%rcx,%r11)
 1993      2419
 364:sieve_extend.c ****         source_word++;
 1994              		.loc 1 364 9 is_stmt 1 view .LVU807
 365:sieve_extend.c ****     }
 1995              		.loc 1 365 9 view .LVU808
 362:sieve_extend.c ****         bitarray[copy_word] = (bitarray[source_word-1] >> shift_flipped) | (bitarray[source_word] <
 1996              		.loc 1 362 11 view .LVU809
 1997 0e65 4983C320 		addq	$32, %r11
 1998              	.L320:
 363:sieve_extend.c ****         copy_word++;
 1999              		.loc 1 363 9 view .LVU810
 363:sieve_extend.c ****         copy_word++;
 2000              		.loc 1 363 56 is_stmt 0 view .LVU811
 2001 0e69 C4217E6F 		vmovdqu	(%rdx,%r11), %ymm13
 2001      2C1A
 363:sieve_extend.c ****         copy_word++;
 2002              		.loc 1 363 99 view .LVU812
 2003 0e6f C4217E6F 		vmovdqu	(%rsi,%r11), %ymm15
 2003      3C1E
 363:sieve_extend.c ****         copy_word++;
 2004              		.loc 1 363 56 view .LVU813
 2005 0e75 C515D3F1 		vpsrlq	%xmm1, %ymm13, %ymm14
 363:sieve_extend.c ****         copy_word++;
 2006              		.loc 1 363 99 view .LVU814
 2007 0e79 C585F3C4 		vpsllq	%xmm4, %ymm15, %ymm0
 363:sieve_extend.c ****         copy_word++;
 2008              		.loc 1 363 74 view .LVU815
 2009 0e7d C58DEBD0 		vpor	%ymm0, %ymm14, %ymm2
 363:sieve_extend.c ****         copy_word++;
 2010              		.loc 1 363 29 view .LVU816
 2011 0e81 C4A17E7F 		vmovdqu	%ymm2, (%rcx,%r11)
 2011      1419
 364:sieve_extend.c ****         source_word++;
 2012              		.loc 1 364 9 is_stmt 1 view .LVU817
 365:sieve_extend.c ****     }
 2013              		.loc 1 365 9 view .LVU818
 362:sieve_extend.c ****         bitarray[copy_word] = (bitarray[source_word-1] >> shift_flipped) | (bitarray[source_word] <
 2014              		.loc 1 362 11 view .LVU819
 2015 0e87 4983C320 		addq	$32, %r11
 2016              	.L319:
 363:sieve_extend.c ****         copy_word++;
 2017              		.loc 1 363 9 view .LVU820
 363:sieve_extend.c ****         copy_word++;
 2018              		.loc 1 363 56 is_stmt 0 view .LVU821
 2019 0e8b C4A17E6F 		vmovdqu	(%rdx,%r11), %ymm5
 2019      2C1A
 363:sieve_extend.c ****         copy_word++;
 2020              		.loc 1 363 99 view .LVU822
GAS LISTING /tmp/ccEWrfMF.s 			page 68


 2021 0e91 C4A17E6F 		vmovdqu	(%rsi,%r11), %ymm3
 2021      1C1E
 363:sieve_extend.c ****         copy_word++;
 2022              		.loc 1 363 56 view .LVU823
 2023 0e97 C5D5D3F9 		vpsrlq	%xmm1, %ymm5, %ymm7
 363:sieve_extend.c ****         copy_word++;
 2024              		.loc 1 363 99 view .LVU824
 2025 0e9b C5E5F3F4 		vpsllq	%xmm4, %ymm3, %ymm6
 363:sieve_extend.c ****         copy_word++;
 2026              		.loc 1 363 74 view .LVU825
 2027 0e9f C545EBC6 		vpor	%ymm6, %ymm7, %ymm8
 363:sieve_extend.c ****         copy_word++;
 2028              		.loc 1 363 29 view .LVU826
 2029 0ea3 C4217E7F 		vmovdqu	%ymm8, (%rcx,%r11)
 2029      0419
 364:sieve_extend.c ****         source_word++;
 2030              		.loc 1 364 9 is_stmt 1 view .LVU827
 365:sieve_extend.c ****     }
 2031              		.loc 1 365 9 view .LVU828
 362:sieve_extend.c ****         bitarray[copy_word] = (bitarray[source_word-1] >> shift_flipped) | (bitarray[source_word] <
 2032              		.loc 1 362 11 view .LVU829
 2033 0ea9 4983C320 		addq	$32, %r11
 2034              	.L318:
 363:sieve_extend.c ****         copy_word++;
 2035              		.loc 1 363 9 view .LVU830
 363:sieve_extend.c ****         copy_word++;
 2036              		.loc 1 363 56 is_stmt 0 view .LVU831
 2037 0ead C4217E6F 		vmovdqu	(%rdx,%r11), %ymm9
 2037      0C1A
 363:sieve_extend.c ****         copy_word++;
 2038              		.loc 1 363 99 view .LVU832
 2039 0eb3 C4217E6F 		vmovdqu	(%rsi,%r11), %ymm11
 2039      1C1E
 363:sieve_extend.c ****         copy_word++;
 2040              		.loc 1 363 56 view .LVU833
 2041 0eb9 C535D3D1 		vpsrlq	%xmm1, %ymm9, %ymm10
 363:sieve_extend.c ****         copy_word++;
 2042              		.loc 1 363 99 view .LVU834
 2043 0ebd C525F3E4 		vpsllq	%xmm4, %ymm11, %ymm12
 363:sieve_extend.c ****         copy_word++;
 2044              		.loc 1 363 74 view .LVU835
 2045 0ec1 C4412DEB 		vpor	%ymm12, %ymm10, %ymm13
 2045      EC
 363:sieve_extend.c ****         copy_word++;
 2046              		.loc 1 363 29 view .LVU836
 2047 0ec6 C4217E7F 		vmovdqu	%ymm13, (%rcx,%r11)
 2047      2C19
 364:sieve_extend.c ****         source_word++;
 2048              		.loc 1 364 9 is_stmt 1 view .LVU837
 365:sieve_extend.c ****     }
 2049              		.loc 1 365 9 view .LVU838
 362:sieve_extend.c ****         bitarray[copy_word] = (bitarray[source_word-1] >> shift_flipped) | (bitarray[source_word] <
 2050              		.loc 1 362 11 view .LVU839
 2051 0ecc 4983C320 		addq	$32, %r11
 2052              	.L317:
 363:sieve_extend.c ****         copy_word++;
 2053              		.loc 1 363 9 view .LVU840
GAS LISTING /tmp/ccEWrfMF.s 			page 69


 363:sieve_extend.c ****         copy_word++;
 2054              		.loc 1 363 56 is_stmt 0 view .LVU841
 2055 0ed0 C4217E6F 		vmovdqu	(%rdx,%r11), %ymm14
 2055      341A
 363:sieve_extend.c ****         copy_word++;
 2056              		.loc 1 363 99 view .LVU842
 2057 0ed6 C4A17E6F 		vmovdqu	(%rsi,%r11), %ymm0
 2057      041E
 363:sieve_extend.c ****         copy_word++;
 2058              		.loc 1 363 56 view .LVU843
 2059 0edc C50DD3F9 		vpsrlq	%xmm1, %ymm14, %ymm15
 363:sieve_extend.c ****         copy_word++;
 2060              		.loc 1 363 99 view .LVU844
 2061 0ee0 C5FDF3D4 		vpsllq	%xmm4, %ymm0, %ymm2
 363:sieve_extend.c ****         copy_word++;
 2062              		.loc 1 363 74 view .LVU845
 2063 0ee4 C585EBEA 		vpor	%ymm2, %ymm15, %ymm5
 363:sieve_extend.c ****         copy_word++;
 2064              		.loc 1 363 29 view .LVU846
 2065 0ee8 C4A17E7F 		vmovdqu	%ymm5, (%rcx,%r11)
 2065      2C19
 364:sieve_extend.c ****         source_word++;
 2066              		.loc 1 364 9 is_stmt 1 view .LVU847
 365:sieve_extend.c ****     }
 2067              		.loc 1 365 9 view .LVU848
 362:sieve_extend.c ****         bitarray[copy_word] = (bitarray[source_word-1] >> shift_flipped) | (bitarray[source_word] <
 2068              		.loc 1 362 11 view .LVU849
 2069 0eee 4983C320 		addq	$32, %r11
 2070              	.L316:
 363:sieve_extend.c ****         copy_word++;
 2071              		.loc 1 363 9 view .LVU850
 363:sieve_extend.c ****         copy_word++;
 2072              		.loc 1 363 56 is_stmt 0 view .LVU851
 2073 0ef2 C4A17E6F 		vmovdqu	(%rdx,%r11), %ymm7
 2073      3C1A
 363:sieve_extend.c ****         copy_word++;
 2074              		.loc 1 363 99 view .LVU852
 2075 0ef8 C4A17E6F 		vmovdqu	(%rsi,%r11), %ymm3
 2075      1C1E
 363:sieve_extend.c ****         copy_word++;
 2076              		.loc 1 363 56 view .LVU853
 2077 0efe C5C5D3F1 		vpsrlq	%xmm1, %ymm7, %ymm6
 363:sieve_extend.c ****         copy_word++;
 2078              		.loc 1 363 99 view .LVU854
 2079 0f02 C565F3C4 		vpsllq	%xmm4, %ymm3, %ymm8
 363:sieve_extend.c ****         copy_word++;
 2080              		.loc 1 363 74 view .LVU855
 2081 0f06 C4414DEB 		vpor	%ymm8, %ymm6, %ymm9
 2081      C8
 363:sieve_extend.c ****         copy_word++;
 2082              		.loc 1 363 29 view .LVU856
 2083 0f0b C4217E7F 		vmovdqu	%ymm9, (%rcx,%r11)
 2083      0C19
 364:sieve_extend.c ****         source_word++;
 2084              		.loc 1 364 9 is_stmt 1 view .LVU857
 365:sieve_extend.c ****     }
 2085              		.loc 1 365 9 view .LVU858
GAS LISTING /tmp/ccEWrfMF.s 			page 70


 362:sieve_extend.c ****         bitarray[copy_word] = (bitarray[source_word-1] >> shift_flipped) | (bitarray[source_word] <
 2086              		.loc 1 362 11 view .LVU859
 2087 0f11 4983C320 		addq	$32, %r11
 2088 0f15 4939FB   		cmpq	%rdi, %r11
 2089 0f18 0F843E01 		je	.L394
 2089      0000
 2090              	.L180:
 363:sieve_extend.c ****         copy_word++;
 2091              		.loc 1 363 9 view .LVU860
 363:sieve_extend.c ****         copy_word++;
 2092              		.loc 1 363 56 is_stmt 0 view .LVU861
 2093 0f1e C4217E6F 		vmovdqu	(%rdx,%r11), %ymm10
 2093      141A
 363:sieve_extend.c ****         copy_word++;
 2094              		.loc 1 363 99 view .LVU862
 2095 0f24 C4217E6F 		vmovdqu	(%rsi,%r11), %ymm12
 2095      241E
 363:sieve_extend.c ****         copy_word++;
 2096              		.loc 1 363 56 view .LVU863
 2097 0f2a C52DD3D9 		vpsrlq	%xmm1, %ymm10, %ymm11
 363:sieve_extend.c ****         copy_word++;
 2098              		.loc 1 363 99 view .LVU864
 2099 0f2e C51DF3EC 		vpsllq	%xmm4, %ymm12, %ymm13
 363:sieve_extend.c ****         copy_word++;
 2100              		.loc 1 363 74 view .LVU865
 2101 0f32 C44125EB 		vpor	%ymm13, %ymm11, %ymm14
 2101      F5
 363:sieve_extend.c ****         copy_word++;
 2102              		.loc 1 363 29 view .LVU866
 2103 0f37 C4217E7F 		vmovdqu	%ymm14, (%rcx,%r11)
 2103      3419
 364:sieve_extend.c ****         source_word++;
 2104              		.loc 1 364 9 is_stmt 1 view .LVU867
 365:sieve_extend.c ****     }
 2105              		.loc 1 365 9 view .LVU868
 362:sieve_extend.c ****         bitarray[copy_word] = (bitarray[source_word-1] >> shift_flipped) | (bitarray[source_word] <
 2106              		.loc 1 362 11 view .LVU869
 363:sieve_extend.c ****         copy_word++;
 2107              		.loc 1 363 9 view .LVU870
 363:sieve_extend.c ****         copy_word++;
 2108              		.loc 1 363 56 is_stmt 0 view .LVU871
 2109 0f3d C4217E6F 		vmovdqu	32(%rdx,%r11), %ymm15
 2109      7C1A20
 363:sieve_extend.c ****         copy_word++;
 2110              		.loc 1 363 99 view .LVU872
 2111 0f44 C4A17E6F 		vmovdqu	32(%rsi,%r11), %ymm2
 2111      541E20
 363:sieve_extend.c ****         copy_word++;
 2112              		.loc 1 363 56 view .LVU873
 2113 0f4b C585D3C1 		vpsrlq	%xmm1, %ymm15, %ymm0
 363:sieve_extend.c ****         copy_word++;
 2114              		.loc 1 363 99 view .LVU874
 2115 0f4f C5EDF3EC 		vpsllq	%xmm4, %ymm2, %ymm5
 363:sieve_extend.c ****         copy_word++;
 2116              		.loc 1 363 74 view .LVU875
 2117 0f53 C5FDEBFD 		vpor	%ymm5, %ymm0, %ymm7
 363:sieve_extend.c ****         copy_word++;
GAS LISTING /tmp/ccEWrfMF.s 			page 71


 2118              		.loc 1 363 29 view .LVU876
 2119 0f57 C4A17E7F 		vmovdqu	%ymm7, 32(%rcx,%r11)
 2119      7C1920
 364:sieve_extend.c ****         source_word++;
 2120              		.loc 1 364 9 is_stmt 1 view .LVU877
 365:sieve_extend.c ****     }
 2121              		.loc 1 365 9 view .LVU878
 362:sieve_extend.c ****         bitarray[copy_word] = (bitarray[source_word-1] >> shift_flipped) | (bitarray[source_word] <
 2122              		.loc 1 362 11 view .LVU879
 363:sieve_extend.c ****         copy_word++;
 2123              		.loc 1 363 9 view .LVU880
 363:sieve_extend.c ****         copy_word++;
 2124              		.loc 1 363 56 is_stmt 0 view .LVU881
 2125 0f5e C4A17E6F 		vmovdqu	64(%rdx,%r11), %ymm6
 2125      741A40
 363:sieve_extend.c ****         copy_word++;
 2126              		.loc 1 363 99 view .LVU882
 2127 0f65 C4A17E6F 		vmovdqu	64(%rsi,%r11), %ymm3
 2127      5C1E40
 363:sieve_extend.c ****         copy_word++;
 2128              		.loc 1 363 56 view .LVU883
 2129 0f6c C54DD3C1 		vpsrlq	%xmm1, %ymm6, %ymm8
 363:sieve_extend.c ****         copy_word++;
 2130              		.loc 1 363 99 view .LVU884
 2131 0f70 C565F3CC 		vpsllq	%xmm4, %ymm3, %ymm9
 363:sieve_extend.c ****         copy_word++;
 2132              		.loc 1 363 74 view .LVU885
 2133 0f74 C4413DEB 		vpor	%ymm9, %ymm8, %ymm10
 2133      D1
 363:sieve_extend.c ****         copy_word++;
 2134              		.loc 1 363 29 view .LVU886
 2135 0f79 C4217E7F 		vmovdqu	%ymm10, 64(%rcx,%r11)
 2135      541940
 364:sieve_extend.c ****         source_word++;
 2136              		.loc 1 364 9 is_stmt 1 view .LVU887
 365:sieve_extend.c ****     }
 2137              		.loc 1 365 9 view .LVU888
 362:sieve_extend.c ****         bitarray[copy_word] = (bitarray[source_word-1] >> shift_flipped) | (bitarray[source_word] <
 2138              		.loc 1 362 11 view .LVU889
 363:sieve_extend.c ****         copy_word++;
 2139              		.loc 1 363 9 view .LVU890
 363:sieve_extend.c ****         copy_word++;
 2140              		.loc 1 363 56 is_stmt 0 view .LVU891
 2141 0f80 C4217E6F 		vmovdqu	96(%rdx,%r11), %ymm11
 2141      5C1A60
 363:sieve_extend.c ****         copy_word++;
 2142              		.loc 1 363 99 view .LVU892
 2143 0f87 C4217E6F 		vmovdqu	96(%rsi,%r11), %ymm13
 2143      6C1E60
 363:sieve_extend.c ****         copy_word++;
 2144              		.loc 1 363 56 view .LVU893
 2145 0f8e C525D3E1 		vpsrlq	%xmm1, %ymm11, %ymm12
 363:sieve_extend.c ****         copy_word++;
 2146              		.loc 1 363 99 view .LVU894
 2147 0f92 C515F3F4 		vpsllq	%xmm4, %ymm13, %ymm14
 363:sieve_extend.c ****         copy_word++;
 2148              		.loc 1 363 74 view .LVU895
GAS LISTING /tmp/ccEWrfMF.s 			page 72


 2149 0f96 C4411DEB 		vpor	%ymm14, %ymm12, %ymm15
 2149      FE
 363:sieve_extend.c ****         copy_word++;
 2150              		.loc 1 363 29 view .LVU896
 2151 0f9b C4217E7F 		vmovdqu	%ymm15, 96(%rcx,%r11)
 2151      7C1960
 364:sieve_extend.c ****         source_word++;
 2152              		.loc 1 364 9 is_stmt 1 view .LVU897
 365:sieve_extend.c ****     }
 2153              		.loc 1 365 9 view .LVU898
 362:sieve_extend.c ****         bitarray[copy_word] = (bitarray[source_word-1] >> shift_flipped) | (bitarray[source_word] <
 2154              		.loc 1 362 11 view .LVU899
 363:sieve_extend.c ****         copy_word++;
 2155              		.loc 1 363 9 view .LVU900
 363:sieve_extend.c ****         copy_word++;
 2156              		.loc 1 363 56 is_stmt 0 view .LVU901
 2157 0fa2 C4A17E6F 		vmovdqu	128(%rdx,%r11), %ymm0
 2157      841A8000 
 2157      0000
 363:sieve_extend.c ****         copy_word++;
 2158              		.loc 1 363 99 view .LVU902
 2159 0fac C4A17E6F 		vmovdqu	128(%rsi,%r11), %ymm5
 2159      AC1E8000 
 2159      0000
 363:sieve_extend.c ****         copy_word++;
 2160              		.loc 1 363 56 view .LVU903
 2161 0fb6 C5FDD3D1 		vpsrlq	%xmm1, %ymm0, %ymm2
 363:sieve_extend.c ****         copy_word++;
 2162              		.loc 1 363 99 view .LVU904
 2163 0fba C5D5F3FC 		vpsllq	%xmm4, %ymm5, %ymm7
 363:sieve_extend.c ****         copy_word++;
 2164              		.loc 1 363 74 view .LVU905
 2165 0fbe C5EDEBF7 		vpor	%ymm7, %ymm2, %ymm6
 363:sieve_extend.c ****         copy_word++;
 2166              		.loc 1 363 29 view .LVU906
 2167 0fc2 C4A17E7F 		vmovdqu	%ymm6, 128(%rcx,%r11)
 2167      B4198000 
 2167      0000
 364:sieve_extend.c ****         source_word++;
 2168              		.loc 1 364 9 is_stmt 1 view .LVU907
 365:sieve_extend.c ****     }
 2169              		.loc 1 365 9 view .LVU908
 362:sieve_extend.c ****         bitarray[copy_word] = (bitarray[source_word-1] >> shift_flipped) | (bitarray[source_word] <
 2170              		.loc 1 362 11 view .LVU909
 363:sieve_extend.c ****         copy_word++;
 2171              		.loc 1 363 9 view .LVU910
 363:sieve_extend.c ****         copy_word++;
 2172              		.loc 1 363 56 is_stmt 0 view .LVU911
 2173 0fcc C4217E6F 		vmovdqu	160(%rdx,%r11), %ymm8
 2173      841AA000 
 2173      0000
 363:sieve_extend.c ****         copy_word++;
 2174              		.loc 1 363 99 view .LVU912
 2175 0fd6 C4A17E6F 		vmovdqu	160(%rsi,%r11), %ymm3
 2175      9C1EA000 
 2175      0000
 363:sieve_extend.c ****         copy_word++;
GAS LISTING /tmp/ccEWrfMF.s 			page 73


 2176              		.loc 1 363 56 view .LVU913
 2177 0fe0 C53DD3C9 		vpsrlq	%xmm1, %ymm8, %ymm9
 363:sieve_extend.c ****         copy_word++;
 2178              		.loc 1 363 99 view .LVU914
 2179 0fe4 C565F3D4 		vpsllq	%xmm4, %ymm3, %ymm10
 363:sieve_extend.c ****         copy_word++;
 2180              		.loc 1 363 74 view .LVU915
 2181 0fe8 C44135EB 		vpor	%ymm10, %ymm9, %ymm11
 2181      DA
 363:sieve_extend.c ****         copy_word++;
 2182              		.loc 1 363 29 view .LVU916
 2183 0fed C4217E7F 		vmovdqu	%ymm11, 160(%rcx,%r11)
 2183      9C19A000 
 2183      0000
 364:sieve_extend.c ****         source_word++;
 2184              		.loc 1 364 9 is_stmt 1 view .LVU917
 365:sieve_extend.c ****     }
 2185              		.loc 1 365 9 view .LVU918
 362:sieve_extend.c ****         bitarray[copy_word] = (bitarray[source_word-1] >> shift_flipped) | (bitarray[source_word] <
 2186              		.loc 1 362 11 view .LVU919
 363:sieve_extend.c ****         copy_word++;
 2187              		.loc 1 363 9 view .LVU920
 363:sieve_extend.c ****         copy_word++;
 2188              		.loc 1 363 56 is_stmt 0 view .LVU921
 2189 0ff7 C4217E6F 		vmovdqu	192(%rdx,%r11), %ymm12
 2189      A41AC000 
 2189      0000
 363:sieve_extend.c ****         copy_word++;
 2190              		.loc 1 363 99 view .LVU922
 2191 1001 C4217E6F 		vmovdqu	192(%rsi,%r11), %ymm14
 2191      B41EC000 
 2191      0000
 363:sieve_extend.c ****         copy_word++;
 2192              		.loc 1 363 56 view .LVU923
 2193 100b C51DD3E9 		vpsrlq	%xmm1, %ymm12, %ymm13
 363:sieve_extend.c ****         copy_word++;
 2194              		.loc 1 363 99 view .LVU924
 2195 100f C50DF3FC 		vpsllq	%xmm4, %ymm14, %ymm15
 363:sieve_extend.c ****         copy_word++;
 2196              		.loc 1 363 74 view .LVU925
 2197 1013 C4C115EB 		vpor	%ymm15, %ymm13, %ymm0
 2197      C7
 363:sieve_extend.c ****         copy_word++;
 2198              		.loc 1 363 29 view .LVU926
 2199 1018 C4A17E7F 		vmovdqu	%ymm0, 192(%rcx,%r11)
 2199      8419C000 
 2199      0000
 364:sieve_extend.c ****         source_word++;
 2200              		.loc 1 364 9 is_stmt 1 view .LVU927
 365:sieve_extend.c ****     }
 2201              		.loc 1 365 9 view .LVU928
 362:sieve_extend.c ****         bitarray[copy_word] = (bitarray[source_word-1] >> shift_flipped) | (bitarray[source_word] <
 2202              		.loc 1 362 11 view .LVU929
 363:sieve_extend.c ****         copy_word++;
 2203              		.loc 1 363 9 view .LVU930
 363:sieve_extend.c ****         copy_word++;
 2204              		.loc 1 363 56 is_stmt 0 view .LVU931
GAS LISTING /tmp/ccEWrfMF.s 			page 74


 2205 1022 C4A17E6F 		vmovdqu	224(%rdx,%r11), %ymm2
 2205      941AE000 
 2205      0000
 363:sieve_extend.c ****         copy_word++;
 2206              		.loc 1 363 99 view .LVU932
 2207 102c C4A17E6F 		vmovdqu	224(%rsi,%r11), %ymm7
 2207      BC1EE000 
 2207      0000
 363:sieve_extend.c ****         copy_word++;
 2208              		.loc 1 363 56 view .LVU933
 2209 1036 C5EDD3E9 		vpsrlq	%xmm1, %ymm2, %ymm5
 363:sieve_extend.c ****         copy_word++;
 2210              		.loc 1 363 99 view .LVU934
 2211 103a C5C5F3F4 		vpsllq	%xmm4, %ymm7, %ymm6
 363:sieve_extend.c ****         copy_word++;
 2212              		.loc 1 363 74 view .LVU935
 2213 103e C555EBC6 		vpor	%ymm6, %ymm5, %ymm8
 363:sieve_extend.c ****         copy_word++;
 2214              		.loc 1 363 29 view .LVU936
 2215 1042 C4217E7F 		vmovdqu	%ymm8, 224(%rcx,%r11)
 2215      8419E000 
 2215      0000
 364:sieve_extend.c ****         source_word++;
 2216              		.loc 1 364 9 is_stmt 1 view .LVU937
 365:sieve_extend.c ****     }
 2217              		.loc 1 365 9 view .LVU938
 362:sieve_extend.c ****         bitarray[copy_word] = (bitarray[source_word-1] >> shift_flipped) | (bitarray[source_word] <
 2218              		.loc 1 362 11 view .LVU939
 2219 104c 4981C300 		addq	$256, %r11
 2219      010000
 2220 1053 4939FB   		cmpq	%rdi, %r11
 2221 1056 0F85C2FE 		jne	.L180
 2221      FFFF
 2222              	.L394:
 2223 105c 488B4424 		movq	80(%rsp), %rax
 2223      50
 2224 1061 4D89CF   		movq	%r9, %r15
 2225 1064 4983E7FC 		andq	$-4, %r15
 2226 1068 4C01F8   		addq	%r15, %rax
 2227 106b 4C01FB   		addq	%r15, %rbx
 2228 106e 4D39F9   		cmpq	%r15, %r9
 2229 1071 7465     		je	.L183
 2230              	.LVL147:
 363:sieve_extend.c ****         copy_word++;
 2231              		.loc 1 363 9 view .LVU940
 362:sieve_extend.c ****         bitarray[copy_word] = (bitarray[source_word-1] >> shift_flipped) | (bitarray[source_word] <
 2232              		.loc 1 362 11 is_stmt 0 view .LVU941
 2233 1073 4C8B7424 		movq	48(%rsp), %r14
 2233      30
 363:sieve_extend.c ****         copy_word++;
 2234              		.loc 1 363 56 view .LVU942
 2235 1078 C4C2ABF7 		shrx	%r10, -8(%r8,%rax,8), %rdx
 2235      54C0F8
 363:sieve_extend.c ****         copy_word++;
 2236              		.loc 1 363 99 view .LVU943
 2237 107f C4C291F7 		shlx	%r13, (%r8,%rax,8), %rcx
 2237      0CC0
GAS LISTING /tmp/ccEWrfMF.s 			page 75


 364:sieve_extend.c ****         source_word++;
 2238              		.loc 1 364 18 view .LVU944
 2239 1085 4C8D4B01 		leaq	1(%rbx), %r9
 363:sieve_extend.c ****         copy_word++;
 2240              		.loc 1 363 74 view .LVU945
 2241 1089 4809CA   		orq	%rcx, %rdx
 2242 108c 498914D8 		movq	%rdx, (%r8,%rbx,8)
 364:sieve_extend.c ****         source_word++;
 2243              		.loc 1 364 9 is_stmt 1 view .LVU946
 2244              	.LVL148:
 365:sieve_extend.c ****     }
 2245              		.loc 1 365 9 view .LVU947
 365:sieve_extend.c ****     }
 2246              		.loc 1 365 20 is_stmt 0 view .LVU948
 2247 1090 488D7001 		leaq	1(%rax), %rsi
 2248              	.LVL149:
 362:sieve_extend.c ****         bitarray[copy_word] = (bitarray[source_word-1] >> shift_flipped) | (bitarray[source_word] <
 2249              		.loc 1 362 11 is_stmt 1 view .LVU949
 2250 1094 4D39F1   		cmpq	%r14, %r9
 2251 1097 7F3F     		jg	.L183
 363:sieve_extend.c ****         copy_word++;
 2252              		.loc 1 363 9 view .LVU950
 363:sieve_extend.c ****         copy_word++;
 2253              		.loc 1 363 40 is_stmt 0 view .LVU951
 2254 1099 488D3CF5 		leaq	0(,%rsi,8), %rdi
 2254      00000000 
 363:sieve_extend.c ****         copy_word++;
 2255              		.loc 1 363 56 view .LVU952
 2256 10a1 C442ABF7 		shrx	%r10, -8(%r8,%rdi), %r11
 2256      5C38F8
 363:sieve_extend.c ****         copy_word++;
 2257              		.loc 1 363 99 view .LVU953
 2258 10a8 C44291F7 		shlx	%r13, (%r8,%rsi,8), %r15
 2258      3CF0
 364:sieve_extend.c ****         source_word++;
 2259              		.loc 1 364 18 view .LVU954
 2260 10ae 4883C302 		addq	$2, %rbx
 363:sieve_extend.c ****         copy_word++;
 2261              		.loc 1 363 74 view .LVU955
 2262 10b2 4D09FB   		orq	%r15, %r11
 2263 10b5 4F891CC8 		movq	%r11, (%r8,%r9,8)
 364:sieve_extend.c ****         source_word++;
 2264              		.loc 1 364 9 is_stmt 1 view .LVU956
 2265              	.LVL150:
 365:sieve_extend.c ****     }
 2266              		.loc 1 365 9 view .LVU957
 362:sieve_extend.c ****         bitarray[copy_word] = (bitarray[source_word-1] >> shift_flipped) | (bitarray[source_word] <
 2267              		.loc 1 362 11 view .LVU958
 2268 10b9 4939DE   		cmpq	%rbx, %r14
 2269 10bc 7C1A     		jl	.L183
 363:sieve_extend.c ****         copy_word++;
 2270              		.loc 1 363 9 view .LVU959
 363:sieve_extend.c ****         copy_word++;
 2271              		.loc 1 363 99 is_stmt 0 view .LVU960
 2272 10be 498B4438 		movq	8(%r8,%rdi), %rax
 2272      08
 363:sieve_extend.c ****         copy_word++;
GAS LISTING /tmp/ccEWrfMF.s 			page 76


 2273              		.loc 1 363 56 view .LVU961
 2274 10c3 498B14F0 		movq	(%r8,%rsi,8), %rdx
 363:sieve_extend.c ****         copy_word++;
 2275              		.loc 1 363 99 view .LVU962
 2276 10c7 C46291F7 		shlx	%r13, %rax, %r13
 2276      E8
 2277              	.LVL151:
 363:sieve_extend.c ****         copy_word++;
 2278              		.loc 1 363 56 view .LVU963
 2279 10cc C462ABF7 		shrx	%r10, %rdx, %r10
 2279      D2
 363:sieve_extend.c ****         copy_word++;
 2280              		.loc 1 363 74 view .LVU964
 2281 10d1 4D09D5   		orq	%r10, %r13
 2282 10d4 4D892CD8 		movq	%r13, (%r8,%rbx,8)
 364:sieve_extend.c ****         source_word++;
 2283              		.loc 1 364 9 is_stmt 1 view .LVU965
 365:sieve_extend.c ****     }
 2284              		.loc 1 365 9 view .LVU966
 2285              	.LVL152:
 362:sieve_extend.c ****         bitarray[copy_word] = (bitarray[source_word-1] >> shift_flipped) | (bitarray[source_word] <
 2286              		.loc 1 362 11 view .LVU967
 2287              	.L183:
 362:sieve_extend.c ****         bitarray[copy_word] = (bitarray[source_word-1] >> shift_flipped) | (bitarray[source_word] <
 2288              		.loc 1 362 11 is_stmt 0 view .LVU968
 2289 10d8 4C89E3   		movq	%r12, %rbx
 2290              	.L178:
 368:sieve_extend.c **** 
 2291              		.loc 1 368 5 is_stmt 1 view .LVU969
 368:sieve_extend.c **** 
 2292              		.loc 1 368 8 is_stmt 0 view .LVU970
 2293 10db 4C8B7424 		movq	88(%rsp), %r14
 2293      58
 2294 10e0 4939DE   		cmpq	%rbx, %r14
 2295 10e3 0F8E1F04 		jle	.L416
 2295      0000
 370:sieve_extend.c ****     while (copy_word + size <= destination_stop_word) {
 2296              		.loc 1 370 5 is_stmt 1 view .LVU971
 370:sieve_extend.c ****     while (copy_word + size <= destination_stop_word) {
 2297              		.loc 1 370 17 is_stmt 0 view .LVU972
 2298 10e9 488B4C24 		movq	40(%rsp), %rcx
 2298      28
 2299 10ee 4989DB   		movq	%rbx, %r11
 371:sieve_extend.c ****         memcpy(&bitarray[copy_word], &bitarray[source_word], (uintmax_t)size*sizeof(bitword_t) );
 2300              		.loc 1 371 22 view .LVU973
 2301 10f1 4C8D0C19 		leaq	(%rcx,%rbx), %r9
 370:sieve_extend.c ****     while (copy_word + size <= destination_stop_word) {
 2302              		.loc 1 370 17 view .LVU974
 2303 10f5 4929CB   		subq	%rcx, %r11
 2304              	.LVL153:
 371:sieve_extend.c ****         memcpy(&bitarray[copy_word], &bitarray[source_word], (uintmax_t)size*sizeof(bitword_t) );
 2305              		.loc 1 371 5 is_stmt 1 view .LVU975
 371:sieve_extend.c ****         memcpy(&bitarray[copy_word], &bitarray[source_word], (uintmax_t)size*sizeof(bitword_t) );
 2306              		.loc 1 371 11 view .LVU976
 2307 10f8 4D39CE   		cmpq	%r9, %r14
 2308 10fb 0F8C4701 		jl	.L185
 2308      0000
GAS LISTING /tmp/ccEWrfMF.s 			page 77


 2309 1101 4D8D24D8 		leaq	(%r8,%rbx,8), %r12
 2310 1105 4A8D14CD 		leaq	0(,%r9,8), %rdx
 2310      00000000 
 372:sieve_extend.c ****         copy_word += size;
 2311              		.loc 1 372 9 is_stmt 0 view .LVU977
 2312 110d 4C8D3CCD 		leaq	0(,%rcx,8), %r15
 2312      00000000 
 372:sieve_extend.c ****         copy_word += size;
 2313              		.loc 1 372 38 view .LVU978
 2314 1115 4F8D34D8 		leaq	(%r8,%r11,8), %r14
 2315 1119 4929D4   		subq	%rdx, %r12
 2316 111c 4889CB   		movq	%rcx, %rbx
 2317              	.LVL154:
 372:sieve_extend.c ****         copy_word += size;
 2318              		.loc 1 372 38 view .LVU979
 2319 111f 4C895C24 		movq	%r11, 80(%rsp)
 2319      50
 2320 1124 4C894424 		movq	%r8, 72(%rsp)
 2320      48
 2321 1129 C5F877   		vzeroupper
 2322              	.LVL155:
 2323              	.L186:
 372:sieve_extend.c ****         copy_word += size;
 2324              		.loc 1 372 38 view .LVU980
 2325 112c 4D89CD   		movq	%r9, %r13
 372:sieve_extend.c ****         copy_word += size;
 2326              		.loc 1 372 9 is_stmt 1 view .LVU981
 2327              	.LVL156:
 2328              	.LBB251:
 2329              	.LBI251:
  31:/usr/include/x86_64-linux-gnu/bits/string_fortified.h **** 	       size_t __len))
 2330              		.loc 2 31 1 view .LVU982
 2331              	.LBB252:
 2332              		.loc 2 34 3 view .LVU983
 2333              		.loc 2 34 10 is_stmt 0 view .LVU984
 2334 112f 4B8D3CCC 		leaq	(%r12,%r9,8), %rdi
 2335 1133 4C89FA   		movq	%r15, %rdx
 2336 1136 4C89F6   		movq	%r14, %rsi
 2337 1139 E8000000 		call	memcpy@PLT
 2337      00
 2338              	.LVL157:
 2339              		.loc 2 34 10 view .LVU985
 2340              	.LBE252:
 2341              	.LBE251:
 373:sieve_extend.c ****     }
 2342              		.loc 1 373 9 is_stmt 1 view .LVU986
 371:sieve_extend.c ****         memcpy(&bitarray[copy_word], &bitarray[source_word], (uintmax_t)size*sizeof(bitword_t) );
 2343              		.loc 1 371 11 view .LVU987
 2344 113e 4D8D441D 		leaq	0(%r13,%rbx), %r8
 2344      00
 2345 1143 4C394424 		cmpq	%r8, 88(%rsp)
 2345      58
 2346 1148 0F8CE200 		jl	.L408
 2346      0000
 2347 114e 4D89C5   		movq	%r8, %r13
 2348              	.LVL158:
 372:sieve_extend.c ****         copy_word += size;
GAS LISTING /tmp/ccEWrfMF.s 			page 78


 2349              		.loc 1 372 9 view .LVU988
 2350              	.LBB260:
  31:/usr/include/x86_64-linux-gnu/bits/string_fortified.h **** 	       size_t __len))
 2351              		.loc 2 31 1 view .LVU989
 2352              	.LBB253:
 2353              		.loc 2 34 3 view .LVU990
 2354              		.loc 2 34 10 is_stmt 0 view .LVU991
 2355 1151 4B8D3CC4 		leaq	(%r12,%r8,8), %rdi
 2356 1155 4C89FA   		movq	%r15, %rdx
 2357 1158 4C89F6   		movq	%r14, %rsi
 2358 115b E8000000 		call	memcpy@PLT
 2358      00
 2359              	.LVL159:
 2360              		.loc 2 34 10 view .LVU992
 2361              	.LBE253:
 2362              	.LBE260:
 373:sieve_extend.c ****     }
 2363              		.loc 1 373 9 is_stmt 1 view .LVU993
 371:sieve_extend.c ****         memcpy(&bitarray[copy_word], &bitarray[source_word], (uintmax_t)size*sizeof(bitword_t) );
 2364              		.loc 1 371 11 view .LVU994
 2365 1160 4D8D4C1D 		leaq	0(%r13,%rbx), %r9
 2365      00
 2366 1165 4C394C24 		cmpq	%r9, 88(%rsp)
 2366      58
 2367 116a 0F8CC000 		jl	.L408
 2367      0000
 2368 1170 4D89CD   		movq	%r9, %r13
 372:sieve_extend.c ****         copy_word += size;
 2369              		.loc 1 372 9 view .LVU995
 2370              	.LVL160:
 2371              	.LBB261:
  31:/usr/include/x86_64-linux-gnu/bits/string_fortified.h **** 	       size_t __len))
 2372              		.loc 2 31 1 view .LVU996
 2373              	.LBB254:
 2374              		.loc 2 34 3 view .LVU997
 2375              		.loc 2 34 10 is_stmt 0 view .LVU998
 2376 1173 4B8D3CCC 		leaq	(%r12,%r9,8), %rdi
 2377 1177 4C89FA   		movq	%r15, %rdx
 2378 117a 4C89F6   		movq	%r14, %rsi
 2379 117d E8000000 		call	memcpy@PLT
 2379      00
 2380              	.LVL161:
 2381              		.loc 2 34 10 view .LVU999
 2382              	.LBE254:
 2383              	.LBE261:
 373:sieve_extend.c ****     }
 2384              		.loc 1 373 9 is_stmt 1 view .LVU1000
 371:sieve_extend.c ****         memcpy(&bitarray[copy_word], &bitarray[source_word], (uintmax_t)size*sizeof(bitword_t) );
 2385              		.loc 1 371 11 view .LVU1001
 2386 1182 498D7C1D 		leaq	0(%r13,%rbx), %rdi
 2386      00
 2387 1187 48397C24 		cmpq	%rdi, 88(%rsp)
 2387      58
 2388 118c 0F8C9E00 		jl	.L408
 2388      0000
 2389 1192 4989FD   		movq	%rdi, %r13
 372:sieve_extend.c ****         copy_word += size;
GAS LISTING /tmp/ccEWrfMF.s 			page 79


 2390              		.loc 1 372 9 view .LVU1002
 2391              	.LVL162:
 2392              	.LBB262:
  31:/usr/include/x86_64-linux-gnu/bits/string_fortified.h **** 	       size_t __len))
 2393              		.loc 2 31 1 view .LVU1003
 2394              	.LBB255:
 2395              		.loc 2 34 3 view .LVU1004
 2396              		.loc 2 34 10 is_stmt 0 view .LVU1005
 2397 1195 4C89FA   		movq	%r15, %rdx
 2398 1198 498D3CFC 		leaq	(%r12,%rdi,8), %rdi
 2399 119c 4C89F6   		movq	%r14, %rsi
 2400 119f E8000000 		call	memcpy@PLT
 2400      00
 2401              	.LVL163:
 2402              		.loc 2 34 10 view .LVU1006
 2403              	.LBE255:
 2404              	.LBE262:
 373:sieve_extend.c ****     }
 2405              		.loc 1 373 9 is_stmt 1 view .LVU1007
 371:sieve_extend.c ****         memcpy(&bitarray[copy_word], &bitarray[source_word], (uintmax_t)size*sizeof(bitword_t) );
 2406              		.loc 1 371 11 view .LVU1008
 2407 11a4 4D8D5C1D 		leaq	0(%r13,%rbx), %r11
 2407      00
 2408 11a9 4C395C24 		cmpq	%r11, 88(%rsp)
 2408      58
 2409 11ae 0F8C7C00 		jl	.L408
 2409      0000
 2410 11b4 4D89DD   		movq	%r11, %r13
 372:sieve_extend.c ****         copy_word += size;
 2411              		.loc 1 372 9 view .LVU1009
 2412              	.LVL164:
 2413              	.LBB263:
  31:/usr/include/x86_64-linux-gnu/bits/string_fortified.h **** 	       size_t __len))
 2414              		.loc 2 31 1 view .LVU1010
 2415              	.LBB256:
 2416              		.loc 2 34 3 view .LVU1011
 2417              		.loc 2 34 10 is_stmt 0 view .LVU1012
 2418 11b7 4C89F6   		movq	%r14, %rsi
 2419 11ba 4B8D3CDC 		leaq	(%r12,%r11,8), %rdi
 2420 11be 4C89FA   		movq	%r15, %rdx
 2421 11c1 E8000000 		call	memcpy@PLT
 2421      00
 2422              	.LVL165:
 2423              		.loc 2 34 10 view .LVU1013
 2424              	.LBE256:
 2425              	.LBE263:
 373:sieve_extend.c ****     }
 2426              		.loc 1 373 9 is_stmt 1 view .LVU1014
 371:sieve_extend.c ****         memcpy(&bitarray[copy_word], &bitarray[source_word], (uintmax_t)size*sizeof(bitword_t) );
 2427              		.loc 1 371 11 view .LVU1015
 2428 11c6 498D741D 		leaq	0(%r13,%rbx), %rsi
 2428      00
 2429 11cb 48397424 		cmpq	%rsi, 88(%rsp)
 2429      58
 2430 11d0 7C5E     		jl	.L408
 2431 11d2 4989F5   		movq	%rsi, %r13
 372:sieve_extend.c ****         copy_word += size;
GAS LISTING /tmp/ccEWrfMF.s 			page 80


 2432              		.loc 1 372 9 view .LVU1016
 2433              	.LVL166:
 2434              	.LBB264:
  31:/usr/include/x86_64-linux-gnu/bits/string_fortified.h **** 	       size_t __len))
 2435              		.loc 2 31 1 view .LVU1017
 2436              	.LBB257:
 2437              		.loc 2 34 3 view .LVU1018
 2438              		.loc 2 34 10 is_stmt 0 view .LVU1019
 2439 11d5 498D3CF4 		leaq	(%r12,%rsi,8), %rdi
 2440 11d9 4C89FA   		movq	%r15, %rdx
 2441 11dc 4C89F6   		movq	%r14, %rsi
 2442 11df E8000000 		call	memcpy@PLT
 2442      00
 2443              	.LVL167:
 2444              		.loc 2 34 10 view .LVU1020
 2445              	.LBE257:
 2446              	.LBE264:
 373:sieve_extend.c ****     }
 2447              		.loc 1 373 9 is_stmt 1 view .LVU1021
 371:sieve_extend.c ****         memcpy(&bitarray[copy_word], &bitarray[source_word], (uintmax_t)size*sizeof(bitword_t) );
 2448              		.loc 1 371 11 view .LVU1022
 2449 11e4 498D441D 		leaq	0(%r13,%rbx), %rax
 2449      00
 2450 11e9 48394424 		cmpq	%rax, 88(%rsp)
 2450      58
 2451 11ee 7C40     		jl	.L408
 2452 11f0 4989C5   		movq	%rax, %r13
 372:sieve_extend.c ****         copy_word += size;
 2453              		.loc 1 372 9 view .LVU1023
 2454              	.LVL168:
 2455              	.LBB265:
  31:/usr/include/x86_64-linux-gnu/bits/string_fortified.h **** 	       size_t __len))
 2456              		.loc 2 31 1 view .LVU1024
 2457              	.LBB258:
 2458              		.loc 2 34 3 view .LVU1025
 2459              		.loc 2 34 10 is_stmt 0 view .LVU1026
 2460 11f3 498D3CC4 		leaq	(%r12,%rax,8), %rdi
 2461 11f7 4C89FA   		movq	%r15, %rdx
 2462 11fa 4C89F6   		movq	%r14, %rsi
 2463 11fd E8000000 		call	memcpy@PLT
 2463      00
 2464              	.LVL169:
 2465              		.loc 2 34 10 view .LVU1027
 2466              	.LBE258:
 2467              	.LBE265:
 373:sieve_extend.c ****     }
 2468              		.loc 1 373 9 is_stmt 1 view .LVU1028
 371:sieve_extend.c ****         memcpy(&bitarray[copy_word], &bitarray[source_word], (uintmax_t)size*sizeof(bitword_t) );
 2469              		.loc 1 371 11 view .LVU1029
 2470 1202 4D8D541D 		leaq	0(%r13,%rbx), %r10
 2470      00
 2471 1207 4C395424 		cmpq	%r10, 88(%rsp)
 2471      58
 2472 120c 7C22     		jl	.L408
 2473 120e 4D89D5   		movq	%r10, %r13
 372:sieve_extend.c ****         copy_word += size;
 2474              		.loc 1 372 9 view .LVU1030
GAS LISTING /tmp/ccEWrfMF.s 			page 81


 2475              	.LVL170:
 2476              	.LBB266:
  31:/usr/include/x86_64-linux-gnu/bits/string_fortified.h **** 	       size_t __len))
 2477              		.loc 2 31 1 view .LVU1031
 2478              	.LBB259:
 2479              		.loc 2 34 3 view .LVU1032
 2480              		.loc 2 34 10 is_stmt 0 view .LVU1033
 2481 1211 4B8D3CD4 		leaq	(%r12,%r10,8), %rdi
 2482 1215 4C89FA   		movq	%r15, %rdx
 2483 1218 4C89F6   		movq	%r14, %rsi
 2484 121b E8000000 		call	memcpy@PLT
 2484      00
 2485              	.LVL171:
 2486              		.loc 2 34 10 view .LVU1034
 2487              	.LBE259:
 2488              	.LBE266:
 373:sieve_extend.c ****     }
 2489              		.loc 1 373 9 is_stmt 1 view .LVU1035
 371:sieve_extend.c ****         memcpy(&bitarray[copy_word], &bitarray[source_word], (uintmax_t)size*sizeof(bitword_t) );
 2490              		.loc 1 371 11 view .LVU1036
 371:sieve_extend.c ****         memcpy(&bitarray[copy_word], &bitarray[source_word], (uintmax_t)size*sizeof(bitword_t) );
 2491              		.loc 1 371 11 is_stmt 0 view .LVU1037
 2492 1220 4D8D4C1D 		leaq	0(%r13,%rbx), %r9
 2492      00
 2493              	.LVL172:
 371:sieve_extend.c ****         memcpy(&bitarray[copy_word], &bitarray[source_word], (uintmax_t)size*sizeof(bitword_t) );
 2494              		.loc 1 371 11 view .LVU1038
 2495 1225 4C394C24 		cmpq	%r9, 88(%rsp)
 2495      58
 2496 122a 0F8DFCFE 		jge	.L186
 2496      FFFF
 2497              	.LVL173:
 2498              		.p2align 4,,10
 2499              		.p2align 3
 2500              	.L408:
 371:sieve_extend.c ****         memcpy(&bitarray[copy_word], &bitarray[source_word], (uintmax_t)size*sizeof(bitword_t) );
 2501              		.loc 1 371 11 view .LVU1039
 2502 1230 4C8B5C24 		movq	80(%rsp), %r11
 2502      50
 2503 1235 4C8B4424 		movq	72(%rsp), %r8
 2503      48
 2504              	.LVL174:
 376:sieve_extend.c ****         bitarray[copy_word] = bitarray[source_word];
 2505              		.loc 1 376 11 is_stmt 1 view .LVU1040
 2506 123a 4C89EB   		movq	%r13, %rbx
 2507 123d 4C396C24 		cmpq	%r13, 88(%rsp)
 2507      58
 2508 1242 0F8C0602 		jl	.L417
 2508      0000
 2509              	.LVL175:
 2510              	.L185:
 376:sieve_extend.c ****         bitarray[copy_word] = bitarray[source_word];
 2511              		.loc 1 376 11 is_stmt 0 view .LVU1041
 2512 1248 4C8D3CDD 		leaq	0(,%rbx,8), %r15
 2512      00000000 
 2513 1250 4E8D34DD 		leaq	32(,%r11,8), %r14
 2513      20000000 
GAS LISTING /tmp/ccEWrfMF.s 			page 82


 2514 1258 4D39F7   		cmpq	%r14, %r15
 2515 125b 4A8D0CDD 		leaq	0(,%r11,8), %rcx
 2515      00000000 
 2516 1263 498D5720 		leaq	32(%r15), %rdx
 2517 1267 410F9DC4 		setge	%r12b
 2518 126b 4839D1   		cmpq	%rdx, %rcx
 2519 126e 400F9DC7 		setge	%dil
 2520 1272 4108FC   		orb	%dil, %r12b
 2521 1275 0F84E501 		je	.L187
 2521      0000
 376:sieve_extend.c ****         bitarray[copy_word] = bitarray[source_word];
 2522              		.loc 1 376 11 view .LVU1042
 2523 127b 488B7424 		movq	88(%rsp), %rsi
 2523      58
 2524 1280 4889F0   		movq	%rsi, %rax
 2525 1283 4829D8   		subq	%rbx, %rax
 2526 1286 4883F808 		cmpq	$8, %rax
 2527 128a 0F86D001 		jbe	.L187
 2527      0000
 2528 1290 4C8D5601 		leaq	1(%rsi), %r10
 2529 1294 4929DA   		subq	%rbx, %r10
 2530 1297 4D89D5   		movq	%r10, %r13
 2531 129a 49C1ED02 		shrq	$2, %r13
 2532 129e 49C1E505 		salq	$5, %r13
 2533 12a2 4D8D4DE0 		leaq	-32(%r13), %r9
 2534 12a6 49C1E905 		shrq	$5, %r9
 2535 12aa 49FFC1   		incq	%r9
 2536 12ad 4C01C1   		addq	%r8, %rcx
 2537 12b0 4D01C7   		addq	%r8, %r15
 362:sieve_extend.c ****         bitarray[copy_word] = (bitarray[source_word-1] >> shift_flipped) | (bitarray[source_word] <
 2538              		.loc 1 362 11 view .LVU1043
 2539 12b3 4531F6   		xorl	%r14d, %r14d
 2540 12b6 4183E107 		andl	$7, %r9d
 2541 12ba 0F849C00 		je	.L188
 2541      0000
 2542 12c0 4983F901 		cmpq	$1, %r9
 2543 12c4 747D     		je	.L329
 2544 12c6 4983F902 		cmpq	$2, %r9
 2545 12ca 7467     		je	.L330
 2546 12cc 4983F903 		cmpq	$3, %r9
 2547 12d0 7451     		je	.L331
 2548 12d2 4983F904 		cmpq	$4, %r9
 2549 12d6 743B     		je	.L332
 2550 12d8 4983F905 		cmpq	$5, %r9
 2551 12dc 7425     		je	.L333
 2552 12de 4983F906 		cmpq	$6, %r9
 2553 12e2 740F     		je	.L334
 2554              	.LVL176:
 377:sieve_extend.c ****         copy_word++;
 2555              		.loc 1 377 9 is_stmt 1 view .LVU1044
 377:sieve_extend.c ****         copy_word++;
 2556              		.loc 1 377 29 is_stmt 0 view .LVU1045
 2557 12e4 C5FE6F09 		vmovdqu	(%rcx), %ymm1
 2558 12e8 41BE2000 		movl	$32, %r14d
 2558      0000
 2559 12ee C4C17E7F 		vmovdqu	%ymm1, (%r15)
 2559      0F
GAS LISTING /tmp/ccEWrfMF.s 			page 83


 378:sieve_extend.c ****         source_word++;
 2560              		.loc 1 378 9 is_stmt 1 view .LVU1046
 379:sieve_extend.c ****     }
 2561              		.loc 1 379 9 view .LVU1047
 376:sieve_extend.c ****         bitarray[copy_word] = bitarray[source_word];
 2562              		.loc 1 376 11 view .LVU1048
 2563              	.L334:
 377:sieve_extend.c ****         copy_word++;
 2564              		.loc 1 377 9 view .LVU1049
 377:sieve_extend.c ****         copy_word++;
 2565              		.loc 1 377 29 is_stmt 0 view .LVU1050
 2566 12f3 C4A17E6F 		vmovdqu	(%rcx,%r14), %ymm4
 2566      2431
 2567 12f9 C4817E7F 		vmovdqu	%ymm4, (%r15,%r14)
 2567      2437
 378:sieve_extend.c ****         source_word++;
 2568              		.loc 1 378 9 is_stmt 1 view .LVU1051
 379:sieve_extend.c ****     }
 2569              		.loc 1 379 9 view .LVU1052
 376:sieve_extend.c ****         bitarray[copy_word] = bitarray[source_word];
 2570              		.loc 1 376 11 view .LVU1053
 2571 12ff 4983C620 		addq	$32, %r14
 2572              	.L333:
 377:sieve_extend.c ****         copy_word++;
 2573              		.loc 1 377 9 view .LVU1054
 377:sieve_extend.c ****         copy_word++;
 2574              		.loc 1 377 29 is_stmt 0 view .LVU1055
 2575 1303 C4217E6F 		vmovdqu	(%rcx,%r14), %ymm9
 2575      0C31
 2576 1309 C4017E7F 		vmovdqu	%ymm9, (%r15,%r14)
 2576      0C37
 378:sieve_extend.c ****         source_word++;
 2577              		.loc 1 378 9 is_stmt 1 view .LVU1056
 379:sieve_extend.c ****     }
 2578              		.loc 1 379 9 view .LVU1057
 376:sieve_extend.c ****         bitarray[copy_word] = bitarray[source_word];
 2579              		.loc 1 376 11 view .LVU1058
 2580 130f 4983C620 		addq	$32, %r14
 2581              	.L332:
 377:sieve_extend.c ****         copy_word++;
 2582              		.loc 1 377 9 view .LVU1059
 377:sieve_extend.c ****         copy_word++;
 2583              		.loc 1 377 29 is_stmt 0 view .LVU1060
 2584 1313 C4A17E6F 		vmovdqu	(%rcx,%r14), %ymm3
 2584      1C31
 2585 1319 C4817E7F 		vmovdqu	%ymm3, (%r15,%r14)
 2585      1C37
 378:sieve_extend.c ****         source_word++;
 2586              		.loc 1 378 9 is_stmt 1 view .LVU1061
 379:sieve_extend.c ****     }
 2587              		.loc 1 379 9 view .LVU1062
 376:sieve_extend.c ****         bitarray[copy_word] = bitarray[source_word];
 2588              		.loc 1 376 11 view .LVU1063
 2589 131f 4983C620 		addq	$32, %r14
 2590              	.L331:
 377:sieve_extend.c ****         copy_word++;
 2591              		.loc 1 377 9 view .LVU1064
GAS LISTING /tmp/ccEWrfMF.s 			page 84


 377:sieve_extend.c ****         copy_word++;
 2592              		.loc 1 377 29 is_stmt 0 view .LVU1065
 2593 1323 C4217E6F 		vmovdqu	(%rcx,%r14), %ymm10
 2593      1431
 2594 1329 C4017E7F 		vmovdqu	%ymm10, (%r15,%r14)
 2594      1437
 378:sieve_extend.c ****         source_word++;
 2595              		.loc 1 378 9 is_stmt 1 view .LVU1066
 379:sieve_extend.c ****     }
 2596              		.loc 1 379 9 view .LVU1067
 376:sieve_extend.c ****         bitarray[copy_word] = bitarray[source_word];
 2597              		.loc 1 376 11 view .LVU1068
 2598 132f 4983C620 		addq	$32, %r14
 2599              	.L330:
 377:sieve_extend.c ****         copy_word++;
 2600              		.loc 1 377 9 view .LVU1069
 377:sieve_extend.c ****         copy_word++;
 2601              		.loc 1 377 29 is_stmt 0 view .LVU1070
 2602 1333 C4217E6F 		vmovdqu	(%rcx,%r14), %ymm11
 2602      1C31
 2603 1339 C4017E7F 		vmovdqu	%ymm11, (%r15,%r14)
 2603      1C37
 378:sieve_extend.c ****         source_word++;
 2604              		.loc 1 378 9 is_stmt 1 view .LVU1071
 379:sieve_extend.c ****     }
 2605              		.loc 1 379 9 view .LVU1072
 376:sieve_extend.c ****         bitarray[copy_word] = bitarray[source_word];
 2606              		.loc 1 376 11 view .LVU1073
 2607 133f 4983C620 		addq	$32, %r14
 2608              	.L329:
 377:sieve_extend.c ****         copy_word++;
 2609              		.loc 1 377 9 view .LVU1074
 377:sieve_extend.c ****         copy_word++;
 2610              		.loc 1 377 29 is_stmt 0 view .LVU1075
 2611 1343 C4217E6F 		vmovdqu	(%rcx,%r14), %ymm12
 2611      2431
 2612 1349 C4017E7F 		vmovdqu	%ymm12, (%r15,%r14)
 2612      2437
 378:sieve_extend.c ****         source_word++;
 2613              		.loc 1 378 9 is_stmt 1 view .LVU1076
 379:sieve_extend.c ****     }
 2614              		.loc 1 379 9 view .LVU1077
 376:sieve_extend.c ****         bitarray[copy_word] = bitarray[source_word];
 2615              		.loc 1 376 11 view .LVU1078
 2616 134f 4983C620 		addq	$32, %r14
 2617 1353 4D39EE   		cmpq	%r13, %r14
 2618 1356 0F849600 		je	.L391
 2618      0000
 2619              	.L188:
 377:sieve_extend.c ****         copy_word++;
 2620              		.loc 1 377 9 view .LVU1079
 377:sieve_extend.c ****         copy_word++;
 2621              		.loc 1 377 29 is_stmt 0 view .LVU1080
 2622 135c C4217E6F 		vmovdqu	(%rcx,%r14), %ymm13
 2622      2C31
 2623 1362 C4017E7F 		vmovdqu	%ymm13, (%r15,%r14)
 2623      2C37
GAS LISTING /tmp/ccEWrfMF.s 			page 85


 378:sieve_extend.c ****         source_word++;
 2624              		.loc 1 378 9 is_stmt 1 view .LVU1081
 379:sieve_extend.c ****     }
 2625              		.loc 1 379 9 view .LVU1082
 376:sieve_extend.c ****         bitarray[copy_word] = bitarray[source_word];
 2626              		.loc 1 376 11 view .LVU1083
 377:sieve_extend.c ****         copy_word++;
 2627              		.loc 1 377 9 view .LVU1084
 377:sieve_extend.c ****         copy_word++;
 2628              		.loc 1 377 29 is_stmt 0 view .LVU1085
 2629 1368 C4217E6F 		vmovdqu	32(%rcx,%r14), %ymm14
 2629      743120
 2630 136f C4017E7F 		vmovdqu	%ymm14, 32(%r15,%r14)
 2630      743720
 378:sieve_extend.c ****         source_word++;
 2631              		.loc 1 378 9 is_stmt 1 view .LVU1086
 379:sieve_extend.c ****     }
 2632              		.loc 1 379 9 view .LVU1087
 376:sieve_extend.c ****         bitarray[copy_word] = bitarray[source_word];
 2633              		.loc 1 376 11 view .LVU1088
 377:sieve_extend.c ****         copy_word++;
 2634              		.loc 1 377 9 view .LVU1089
 377:sieve_extend.c ****         copy_word++;
 2635              		.loc 1 377 29 is_stmt 0 view .LVU1090
 2636 1376 C4217E6F 		vmovdqu	64(%rcx,%r14), %ymm15
 2636      7C3140
 2637 137d C4017E7F 		vmovdqu	%ymm15, 64(%r15,%r14)
 2637      7C3740
 378:sieve_extend.c ****         source_word++;
 2638              		.loc 1 378 9 is_stmt 1 view .LVU1091
 379:sieve_extend.c ****     }
 2639              		.loc 1 379 9 view .LVU1092
 376:sieve_extend.c ****         bitarray[copy_word] = bitarray[source_word];
 2640              		.loc 1 376 11 view .LVU1093
 377:sieve_extend.c ****         copy_word++;
 2641              		.loc 1 377 9 view .LVU1094
 377:sieve_extend.c ****         copy_word++;
 2642              		.loc 1 377 29 is_stmt 0 view .LVU1095
 2643 1384 C4A17E6F 		vmovdqu	96(%rcx,%r14), %ymm0
 2643      443160
 2644 138b C4817E7F 		vmovdqu	%ymm0, 96(%r15,%r14)
 2644      443760
 378:sieve_extend.c ****         source_word++;
 2645              		.loc 1 378 9 is_stmt 1 view .LVU1096
 379:sieve_extend.c ****     }
 2646              		.loc 1 379 9 view .LVU1097
 376:sieve_extend.c ****         bitarray[copy_word] = bitarray[source_word];
 2647              		.loc 1 376 11 view .LVU1098
 377:sieve_extend.c ****         copy_word++;
 2648              		.loc 1 377 9 view .LVU1099
 377:sieve_extend.c ****         copy_word++;
 2649              		.loc 1 377 29 is_stmt 0 view .LVU1100
 2650 1392 C4A17E6F 		vmovdqu	128(%rcx,%r14), %ymm2
 2650      94318000 
 2650      0000
 2651 139c C4817E7F 		vmovdqu	%ymm2, 128(%r15,%r14)
 2651      94378000 
GAS LISTING /tmp/ccEWrfMF.s 			page 86


 2651      0000
 378:sieve_extend.c ****         source_word++;
 2652              		.loc 1 378 9 is_stmt 1 view .LVU1101
 379:sieve_extend.c ****     }
 2653              		.loc 1 379 9 view .LVU1102
 376:sieve_extend.c ****         bitarray[copy_word] = bitarray[source_word];
 2654              		.loc 1 376 11 view .LVU1103
 377:sieve_extend.c ****         copy_word++;
 2655              		.loc 1 377 9 view .LVU1104
 377:sieve_extend.c ****         copy_word++;
 2656              		.loc 1 377 29 is_stmt 0 view .LVU1105
 2657 13a6 C4A17E6F 		vmovdqu	160(%rcx,%r14), %ymm5
 2657      AC31A000 
 2657      0000
 2658 13b0 C4817E7F 		vmovdqu	%ymm5, 160(%r15,%r14)
 2658      AC37A000 
 2658      0000
 378:sieve_extend.c ****         source_word++;
 2659              		.loc 1 378 9 is_stmt 1 view .LVU1106
 379:sieve_extend.c ****     }
 2660              		.loc 1 379 9 view .LVU1107
 376:sieve_extend.c ****         bitarray[copy_word] = bitarray[source_word];
 2661              		.loc 1 376 11 view .LVU1108
 377:sieve_extend.c ****         copy_word++;
 2662              		.loc 1 377 9 view .LVU1109
 377:sieve_extend.c ****         copy_word++;
 2663              		.loc 1 377 29 is_stmt 0 view .LVU1110
 2664 13ba C4A17E6F 		vmovdqu	192(%rcx,%r14), %ymm7
 2664      BC31C000 
 2664      0000
 2665 13c4 C4817E7F 		vmovdqu	%ymm7, 192(%r15,%r14)
 2665      BC37C000 
 2665      0000
 378:sieve_extend.c ****         source_word++;
 2666              		.loc 1 378 9 is_stmt 1 view .LVU1111
 379:sieve_extend.c ****     }
 2667              		.loc 1 379 9 view .LVU1112
 376:sieve_extend.c ****         bitarray[copy_word] = bitarray[source_word];
 2668              		.loc 1 376 11 view .LVU1113
 377:sieve_extend.c ****         copy_word++;
 2669              		.loc 1 377 9 view .LVU1114
 377:sieve_extend.c ****         copy_word++;
 2670              		.loc 1 377 29 is_stmt 0 view .LVU1115
 2671 13ce C4A17E6F 		vmovdqu	224(%rcx,%r14), %ymm6
 2671      B431E000 
 2671      0000
 2672 13d8 C4817E7F 		vmovdqu	%ymm6, 224(%r15,%r14)
 2672      B437E000 
 2672      0000
 378:sieve_extend.c ****         source_word++;
 2673              		.loc 1 378 9 is_stmt 1 view .LVU1116
 379:sieve_extend.c ****     }
 2674              		.loc 1 379 9 view .LVU1117
 376:sieve_extend.c ****         bitarray[copy_word] = bitarray[source_word];
 2675              		.loc 1 376 11 view .LVU1118
 2676 13e2 4981C600 		addq	$256, %r14
 2676      010000
GAS LISTING /tmp/ccEWrfMF.s 			page 87


 2677 13e9 4D39EE   		cmpq	%r13, %r14
 2678 13ec 0F856AFF 		jne	.L188
 2678      FFFF
 2679              	.L391:
 2680 13f2 4D89D7   		movq	%r10, %r15
 2681 13f5 4983E7FC 		andq	$-4, %r15
 2682 13f9 4D01FB   		addq	%r15, %r11
 2683 13fc 4C01FB   		addq	%r15, %rbx
 2684 13ff 4D39D7   		cmpq	%r10, %r15
 2685 1402 0F840001 		je	.L416
 2685      0000
 2686              	.LVL177:
 377:sieve_extend.c ****         copy_word++;
 2687              		.loc 1 377 9 view .LVU1119
 377:sieve_extend.c ****         copy_word++;
 2688              		.loc 1 377 39 is_stmt 0 view .LVU1120
 2689 1408 4B8B0CD8 		movq	(%r8,%r11,8), %rcx
 376:sieve_extend.c ****         bitarray[copy_word] = bitarray[source_word];
 2690              		.loc 1 376 11 view .LVU1121
 2691 140c 488B7C24 		movq	88(%rsp), %rdi
 2691      58
 378:sieve_extend.c ****         source_word++;
 2692              		.loc 1 378 18 view .LVU1122
 2693 1411 4C8D6301 		leaq	1(%rbx), %r12
 377:sieve_extend.c ****         copy_word++;
 2694              		.loc 1 377 29 view .LVU1123
 2695 1415 49890CD8 		movq	%rcx, (%r8,%rbx,8)
 378:sieve_extend.c ****         source_word++;
 2696              		.loc 1 378 9 is_stmt 1 view .LVU1124
 2697              	.LVL178:
 379:sieve_extend.c ****     }
 2698              		.loc 1 379 9 view .LVU1125
 379:sieve_extend.c ****     }
 2699              		.loc 1 379 20 is_stmt 0 view .LVU1126
 2700 1419 49FFC3   		incq	%r11
 2701              	.LVL179:
 376:sieve_extend.c ****         bitarray[copy_word] = bitarray[source_word];
 2702              		.loc 1 376 11 is_stmt 1 view .LVU1127
 2703 141c 4939FC   		cmpq	%rdi, %r12
 2704 141f 0F8FE300 		jg	.L416
 2704      0000
 377:sieve_extend.c ****         copy_word++;
 2705              		.loc 1 377 9 view .LVU1128
 377:sieve_extend.c ****         copy_word++;
 2706              		.loc 1 377 39 is_stmt 0 view .LVU1129
 2707 1425 4A8D34DD 		leaq	0(,%r11,8), %rsi
 2707      00000000 
 2708 142d 4F8B1CD8 		movq	(%r8,%r11,8), %r11
 2709              	.LVL180:
 378:sieve_extend.c ****         source_word++;
 2710              		.loc 1 378 18 view .LVU1130
 2711 1431 4883C302 		addq	$2, %rbx
 377:sieve_extend.c ****         copy_word++;
 2712              		.loc 1 377 29 view .LVU1131
 2713 1435 4F891CE0 		movq	%r11, (%r8,%r12,8)
 378:sieve_extend.c ****         source_word++;
 2714              		.loc 1 378 9 is_stmt 1 view .LVU1132
GAS LISTING /tmp/ccEWrfMF.s 			page 88


 2715              	.LVL181:
 379:sieve_extend.c ****     }
 2716              		.loc 1 379 9 view .LVU1133
 376:sieve_extend.c ****         bitarray[copy_word] = bitarray[source_word];
 2717              		.loc 1 376 11 view .LVU1134
 2718 1439 4839FB   		cmpq	%rdi, %rbx
 2719 143c 0F8FC600 		jg	.L416
 2719      0000
 377:sieve_extend.c ****         copy_word++;
 2720              		.loc 1 377 9 view .LVU1135
 377:sieve_extend.c ****         copy_word++;
 2721              		.loc 1 377 39 is_stmt 0 view .LVU1136
 2722 1442 498B5430 		movq	8(%r8,%rsi), %rdx
 2722      08
 377:sieve_extend.c ****         copy_word++;
 2723              		.loc 1 377 29 view .LVU1137
 2724 1447 498914D8 		movq	%rdx, (%r8,%rbx,8)
 378:sieve_extend.c ****         source_word++;
 2725              		.loc 1 378 9 is_stmt 1 view .LVU1138
 379:sieve_extend.c ****     }
 2726              		.loc 1 379 9 view .LVU1139
 376:sieve_extend.c ****         bitarray[copy_word] = bitarray[source_word];
 2727              		.loc 1 376 11 view .LVU1140
 2728 144b C5F877   		vzeroupper
 2729              	.L417:
 382:sieve_extend.c **** 
 2730              		.loc 1 382 1 is_stmt 0 view .LVU1141
 2731 144e 488D65D8 		leaq	-40(%rbp), %rsp
 2732              	.LVL182:
 382:sieve_extend.c **** 
 2733              		.loc 1 382 1 view .LVU1142
 2734 1452 5B       		popq	%rbx
 2735 1453 415C     		popq	%r12
 2736 1455 415D     		popq	%r13
 2737 1457 415E     		popq	%r14
 2738 1459 415F     		popq	%r15
 2739 145b 5D       		popq	%rbp
 2740              		.cfi_remember_state
 2741              		.cfi_def_cfa 7, 8
 2742              	.LVL183:
 382:sieve_extend.c **** 
 2743              		.loc 1 382 1 view .LVU1143
 2744 145c C3       		ret
 2745              	.LVL184:
 2746 145d 0F1F00   		.p2align 4,,10
 2747              		.p2align 3
 2748              	.L187:
 2749              		.cfi_restore_state
 382:sieve_extend.c **** 
 2750              		.loc 1 382 1 view .LVU1144
 2751 1460 4C8B5424 		movq	88(%rsp), %r10
 2751      58
 2752 1465 4B8D0438 		leaq	(%r8,%r15), %rax
 2753 1469 4F8D44D0 		leaq	8(%r8,%r10,8), %r8
 2753      08
 377:sieve_extend.c ****         copy_word++;
 2754              		.loc 1 377 39 view .LVU1145
GAS LISTING /tmp/ccEWrfMF.s 			page 89


 2755 146e 4929DB   		subq	%rbx, %r11
 2756              	.LVL185:
 377:sieve_extend.c ****         copy_word++;
 2757              		.loc 1 377 39 view .LVU1146
 2758 1471 4C89C3   		movq	%r8, %rbx
 2759              	.LVL186:
 377:sieve_extend.c ****         copy_word++;
 2760              		.loc 1 377 39 view .LVU1147
 2761 1474 4829C3   		subq	%rax, %rbx
 2762 1477 4883EB08 		subq	$8, %rbx
 2763 147b 48C1EB03 		shrq	$3, %rbx
 2764 147f 48FFC3   		incq	%rbx
 2765 1482 83E307   		andl	$7, %ebx
 2766 1485 0F849500 		je	.L190
 2766      0000
 2767 148b 4883FB01 		cmpq	$1, %rbx
 2768 148f 7466     		je	.L335
 2769 1491 4883FB02 		cmpq	$2, %rbx
 2770 1495 7454     		je	.L336
 2771 1497 4883FB03 		cmpq	$3, %rbx
 2772 149b 7442     		je	.L337
 2773 149d 4883FB04 		cmpq	$4, %rbx
 2774 14a1 7430     		je	.L338
 2775 14a3 4883FB05 		cmpq	$5, %rbx
 2776 14a7 741E     		je	.L339
 2777 14a9 4883FB06 		cmpq	$6, %rbx
 2778 14ad 740C     		je	.L340
 377:sieve_extend.c ****         copy_word++;
 2779              		.loc 1 377 9 is_stmt 1 view .LVU1148
 377:sieve_extend.c ****         copy_word++;
 2780              		.loc 1 377 39 is_stmt 0 view .LVU1149
 2781 14af 4E8B2CD8 		movq	(%rax,%r11,8), %r13
 2782 14b3 4883C008 		addq	$8, %rax
 377:sieve_extend.c ****         copy_word++;
 2783              		.loc 1 377 29 view .LVU1150
 2784 14b7 4C8968F8 		movq	%r13, -8(%rax)
 378:sieve_extend.c ****         source_word++;
 2785              		.loc 1 378 9 is_stmt 1 view .LVU1151
 379:sieve_extend.c ****     }
 2786              		.loc 1 379 9 view .LVU1152
 376:sieve_extend.c ****         bitarray[copy_word] = bitarray[source_word];
 2787              		.loc 1 376 11 view .LVU1153
 2788              	.L340:
 377:sieve_extend.c ****         copy_word++;
 2789              		.loc 1 377 9 view .LVU1154
 377:sieve_extend.c ****         copy_word++;
 2790              		.loc 1 377 39 is_stmt 0 view .LVU1155
 2791 14bb 4E8B0CD8 		movq	(%rax,%r11,8), %r9
 2792 14bf 4883C008 		addq	$8, %rax
 377:sieve_extend.c ****         copy_word++;
 2793              		.loc 1 377 29 view .LVU1156
 2794 14c3 4C8948F8 		movq	%r9, -8(%rax)
 378:sieve_extend.c ****         source_word++;
 2795              		.loc 1 378 9 is_stmt 1 view .LVU1157
 379:sieve_extend.c ****     }
 2796              		.loc 1 379 9 view .LVU1158
 376:sieve_extend.c ****         bitarray[copy_word] = bitarray[source_word];
GAS LISTING /tmp/ccEWrfMF.s 			page 90


 2797              		.loc 1 376 11 view .LVU1159
 2798              	.L339:
 377:sieve_extend.c ****         copy_word++;
 2799              		.loc 1 377 9 view .LVU1160
 377:sieve_extend.c ****         copy_word++;
 2800              		.loc 1 377 39 is_stmt 0 view .LVU1161
 2801 14c7 4E8B34D8 		movq	(%rax,%r11,8), %r14
 2802 14cb 4883C008 		addq	$8, %rax
 377:sieve_extend.c ****         copy_word++;
 2803              		.loc 1 377 29 view .LVU1162
 2804 14cf 4C8970F8 		movq	%r14, -8(%rax)
 378:sieve_extend.c ****         source_word++;
 2805              		.loc 1 378 9 is_stmt 1 view .LVU1163
 379:sieve_extend.c ****     }
 2806              		.loc 1 379 9 view .LVU1164
 376:sieve_extend.c ****         bitarray[copy_word] = bitarray[source_word];
 2807              		.loc 1 376 11 view .LVU1165
 2808              	.L338:
 377:sieve_extend.c ****         copy_word++;
 2809              		.loc 1 377 9 view .LVU1166
 377:sieve_extend.c ****         copy_word++;
 2810              		.loc 1 377 39 is_stmt 0 view .LVU1167
